TN:
SF:/usr/share/miniconda3/envs/moose/x86_64-conda-linux-gnu/include/c++/10.4.0/bits/alloc_traits.h
FN:459,_ZNSt16allocator_traitsISaIdEE8allocateERS0_m
FNDA:0,_ZNSt16allocator_traitsISaIdEE8allocateERS0_m
FNF:1
FNH:0
DA:459,0
DA:460,0
DA:492,0
DA:512,0
DA:516,34
LF:5
LH:1
end_of_record
SF:/usr/share/miniconda3/envs/moose/x86_64-conda-linux-gnu/include/c++/10.4.0/bits/shared_ptr_base.h
FN:555,_ZNSt23_Sp_counted_ptr_inplaceI9BeaverAppSaIS0_ELN9__gnu_cxx12_Lock_policyE2EED0Ev
FNDA:0,_ZNSt23_Sp_counted_ptr_inplaceI9BeaverAppSaIS0_ELN9__gnu_cxx12_Lock_policyE2EED0Ev
FN:555,_ZNSt23_Sp_counted_ptr_inplaceI9BeaverAppSaIS0_ELN9__gnu_cxx12_Lock_policyE2EED2Ev
FNDA:0,_ZNSt23_Sp_counted_ptr_inplaceI9BeaverAppSaIS0_ELN9__gnu_cxx12_Lock_policyE2EED2Ev
FN:558,_ZNSt23_Sp_counted_ptr_inplaceI9BeaverAppSaIS0_ELN9__gnu_cxx12_Lock_policyE2EE10_M_disposeEv
FNDA:0,_ZNSt23_Sp_counted_ptr_inplaceI9BeaverAppSaIS0_ELN9__gnu_cxx12_Lock_policyE2EE10_M_disposeEv
FN:565,_ZNSt23_Sp_counted_ptr_inplaceI9BeaverAppSaIS0_ELN9__gnu_cxx12_Lock_policyE2EE10_M_destroyEv
FNDA:0,_ZNSt23_Sp_counted_ptr_inplaceI9BeaverAppSaIS0_ELN9__gnu_cxx12_Lock_policyE2EE10_M_destroyEv
FN:578,_ZNSt23_Sp_counted_ptr_inplaceI9BeaverAppSaIS0_ELN9__gnu_cxx12_Lock_policyE2EE14_M_get_deleterERKSt9type_info
FNDA:0,_ZNSt23_Sp_counted_ptr_inplaceI9BeaverAppSaIS0_ELN9__gnu_cxx12_Lock_policyE2EE14_M_get_deleterERKSt9type_info
FN:675,_ZNSt14__shared_countILN9__gnu_cxx12_Lock_policyE2EEC2I9BeaverAppSaIS4_EJRK15InputParametersEEERPT_St20_Sp_alloc_shared_tagIT0_EDpOT1_
FNDA:0,_ZNSt14__shared_countILN9__gnu_cxx12_Lock_policyE2EEC2I9BeaverAppSaIS4_EJRK15InputParametersEEERPT_St20_Sp_alloc_shared_tagIT0_EDpOT1_
FNF:6
FNH:0
DA:120,0
DA:121,0
DA:534,0
DA:546,0
DA:547,0
DA:553,0
DA:555,0
DA:555,0
DA:555,0
DA:558,0
DA:561,0
DA:565,0
DA:568,0
DA:570,0
DA:578,0
DA:586,0
DA:588,0
DA:593,0
DA:675,0
DA:680,0
DA:682,0
DA:685,0
DA:686,0
DA:687,0
DA:764,0
DA:766,0
DA:1204,0
DA:1375,0
DA:1376,0
LF:29
LH:0
end_of_record
SF:/usr/share/miniconda3/envs/moose/x86_64-conda-linux-gnu/include/c++/10.4.0/bits/hashtable.h
FN:425,_ZNSt10_HashtableINSt7__cxx1112basic_stringIcSt11char_traitsIcESaIcEEESt4pairIKS5_S5_ESaIS8_ENSt8__detail10_Select1stESt8equal_toIS5_ESt4hashIS5_ENSA_18_Mod_range_hashingENSA_20_Default_ranged_hashENSA_20_Prime_rehash_policyENSA_17_Hashtable_traitsILb1ELb0ELb1EEEE21_M_deallocate_bucketsEv
FNDA:0,_ZNSt10_HashtableINSt7__cxx1112basic_stringIcSt11char_traitsIcESaIcEEESt4pairIKS5_S5_ESaIS8_ENSt8__detail10_Select1stESt8equal_toIS5_ESt4hashIS5_ENSA_18_Mod_range_hashingENSA_20_Default_ranged_hashENSA_20_Prime_rehash_policyENSA_17_Hashtable_traitsILb1ELb0ELb1EEEE21_M_deallocate_bucketsEv
FN:2081,_ZNSt10_HashtableINSt7__cxx1112basic_stringIcSt11char_traitsIcESaIcEEESt4pairIKS5_S5_ESaIS8_ENSt8__detail10_Select1stESt8equal_toIS5_ESt4hashIS5_ENSA_18_Mod_range_hashingENSA_20_Default_ranged_hashENSA_20_Prime_rehash_policyENSA_17_Hashtable_traitsILb1ELb0ELb1EEEE5clearEv
FNDA:0,_ZNSt10_HashtableINSt7__cxx1112basic_stringIcSt11char_traitsIcESaIcEEESt4pairIKS5_S5_ESaIS8_ENSt8__detail10_Select1stESt8equal_toIS5_ESt4hashIS5_ENSA_18_Mod_range_hashingENSA_20_Default_ranged_hashENSA_20_Prime_rehash_policyENSA_17_Hashtable_traitsILb1ELb0ELb1EEEE5clearEv
FNF:2
FNH:0
DA:394,0
DA:418,0
DA:425,0
DA:426,0
DA:435,0
DA:1442,0
DA:1443,0
DA:2081,0
DA:2086,0
DA:2087,0
DA:2088,0
DA:2089,0
LF:12
LH:0
end_of_record
SF:/home/runner/work/beaver/beaver/moose/framework/build/header_symlinks/InputParameters.h
FN:53,_ZN15InputParametersD0Ev
FNDA:0,_ZN15InputParametersD0Ev
FN:53,_ZN15InputParametersD2Ev
FNDA:0,_ZN15InputParametersD2Ev
FN:1179,_ZN15InputParameters3setIbEERT_RKNSt7__cxx1112basic_stringIcSt11char_traitsIcESaIcEEEb
FNDA:0,_ZN15InputParameters3setIbEERT_RKNSt7__cxx1112basic_stringIcSt11char_traitsIcESaIcEEEb
FN:1569,_ZNK15InputParameters19checkConsistentTypeIbEEvRKNSt7__cxx1112basic_stringIcSt11char_traitsIcESaIcEEE
FNDA:0,_ZNK15InputParameters19checkConsistentTypeIbEEvRKNSt7__cxx1112basic_stringIcSt11char_traitsIcESaIcEEE
FNF:4
FNH:0
DA:53,0
DA:53,0
DA:1179,0
DA:1181,0
DA:1183,0
DA:1184,0
DA:1186,0
DA:1188,0
DA:1189,0
DA:1193,0
DA:1569,0
DA:1571,0
DA:1575,0
DA:1580,0
DA:1581,0
DA:1586,0
LF:16
LH:0
end_of_record
SF:/usr/share/miniconda3/envs/moose/x86_64-conda-linux-gnu/include/c++/10.4.0/bits/basic_string.h
FN:533,_ZNSt7__cxx1112basic_stringIcSt11char_traitsIcESaIcEEC2IS3_EEPKcRKS3_
FNDA:340,_ZNSt7__cxx1112basic_stringIcSt11char_traitsIcESaIcEEC2IS3_EEPKcRKS3_
FN:1483,_ZNSt7__cxx1112basic_stringIcSt11char_traitsIcESaIcEE6assignIPcvEERS4_T_S8_
FNDA:0,_ZNSt7__cxx1112basic_stringIcSt11char_traitsIcESaIcEE6assignIPcvEERS4_T_S8_
FNF:2
FNH:1
DA:164,340
DA:165,340
DA:187,170
DA:191,374
DA:195,748
DA:201,340
DA:219,170
DA:225,374
DA:401,34
DA:406,340
DA:533,340
DA:536,340
DA:539,340
DA:540,340
DA:671,153
DA:827,0
DA:915,0
DA:1483,0
DA:1484,0
DA:6292,0
DA:6485,0
LF:21
LH:15
end_of_record
SF:/usr/share/miniconda3/envs/moose/x86_64-conda-linux-gnu/include/c++/10.4.0/bits/hashtable_policy.h
FN:2052,_ZNSt8__detail16_Hashtable_allocISaINS_10_Hash_nodeISt4pairIKNSt7__cxx1112basic_stringIcSt11char_traitsIcESaIcEEES8_ELb1EEEEE18_M_deallocate_nodeEPSB_
FNDA:0,_ZNSt8__detail16_Hashtable_allocISaINS_10_Hash_nodeISt4pairIKNSt7__cxx1112basic_stringIcSt11char_traitsIcESaIcEEES8_ELb1EEEEE18_M_deallocate_nodeEPSB_
FNF:1
FNH:0
DA:270,0
DA:2052,0
DA:2056,0
DA:2064,0
DA:2072,0
DA:2076,0
DA:2101,0
LF:7
LH:0
end_of_record
SF:/usr/share/miniconda3/envs/moose/libmesh/include/timpi/message_tag.h
LF:0
LH:0
end_of_record
SF:/home/runner/work/beaver/beaver/moose/modules/module_loader/build/header_symlinks/ModulesApp.h
DA:130,17
LF:1
LH:1
end_of_record
SF:/usr/share/miniconda3/envs/moose/x86_64-conda-linux-gnu/include/c++/10.4.0/tuple
FN:1702,_ZNSt4pairIKNSt7__cxx1112basic_stringIcSt11char_traitsIcESaIcEEEN15InputParameters8MetadataEEC2IJRS6_EJLm0EEJEJEEERSt5tupleIJDpT_EERSC_IJDpT1_EESt12_Index_tupleIJXspT0_EEESL_IJXspT2_EEE
FNDA:0,_ZNSt4pairIKNSt7__cxx1112basic_stringIcSt11char_traitsIcESaIcEEEN15InputParameters8MetadataEEC2IJRS6_EJLm0EEJEJEEERSt5tupleIJDpT_EERSC_IJDpT1_EESt12_Index_tupleIJXspT0_EEESL_IJXspT2_EEE
FNF:1
FNH:0
DA:130,0
DA:132,0
DA:133,0
DA:135,0
DA:136,0
DA:143,0
DA:176,0
DA:532,0
DA:1690,0
DA:1695,0
DA:1702,0
DA:1706,0
DA:1707,0
LF:13
LH:0
end_of_record
SF:/usr/share/miniconda3/envs/moose/x86_64-conda-linux-gnu/include/c++/10.4.0/streambuf
LF:0
LH:0
end_of_record
SF:/usr/share/miniconda3/envs/moose/x86_64-conda-linux-gnu/include/c++/10.4.0/bits/stl_algobase.h
DA:235,0
DA:236,0
DA:425,0
DA:426,0
LF:4
LH:0
end_of_record
SF:/usr/share/miniconda3/envs/moose/x86_64-conda-linux-gnu/include/c++/10.4.0/iostream
LF:0
LH:0
end_of_record
SF:/usr/share/miniconda3/envs/moose/x86_64-conda-linux-gnu/include/c++/10.4.0/bits/shared_ptr.h
FN:407,_ZNSt10shared_ptrI9BeaverAppEC2ISaIS0_EJRK15InputParametersEEESt20_Sp_alloc_shared_tagIT_EDpOT0_
FNDA:0,_ZNSt10shared_ptrI9BeaverAppEC2ISaIS0_EJRK15InputParametersEEESt20_Sp_alloc_shared_tagIT_EDpOT0_
FNF:1
FNH:0
DA:121,0
DA:407,0
DA:408,0
DA:409,0
DA:862,0
DA:877,0
LF:6
LH:0
end_of_record
SF:/usr/share/miniconda3/envs/moose/x86_64-conda-linux-gnu/include/c++/10.4.0/utility
DA:189,0
LF:1
LH:0
end_of_record
SF:/usr/share/miniconda3/envs/moose/x86_64-conda-linux-gnu/include/c++/10.4.0/bits/stl_iterator.h
DA:1001,0
DA:1005,0
LF:2
LH:0
end_of_record
SF:/usr/share/miniconda3/envs/moose/x86_64-conda-linux-gnu/include/c++/10.4.0/sstream
DA:678,0
LF:1
LH:0
end_of_record
SF:/home/runner/work/beaver/beaver/moose/framework/contrib/hit/parse.h
LF:0
LH:0
end_of_record
SF:/home/runner/work/beaver/beaver/moose/framework/build/header_symlinks/MooseEnumItem.h
DA:24,0
LF:1
LH:0
end_of_record
SF:/usr/share/miniconda3/envs/moose/x86_64-conda-linux-gnu/include/c++/10.4.0/bits/stl_construct.h
FN:149,_ZNSt12_Destroy_auxILb0EE9__destroyIPSt5tupleIJNSt7__cxx1112basic_stringIcSt11char_traitsIcESaIcEEEN5Moose23RelationshipManagerTypeESt8functionIFvRK15InputParametersRSC_EEEEEEvT_SK_
FNDA:0,_ZNSt12_Destroy_auxILb0EE9__destroyIPSt5tupleIJNSt7__cxx1112basic_stringIcSt11char_traitsIcESaIcEEEN5Moose23RelationshipManagerTypeESt8functionIFvRK15InputParametersRSC_EEEEEEvT_SK_
FNF:1
FNH:0
DA:149,0
DA:151,0
DA:153,0
DA:185,0
LF:4
LH:0
end_of_record
SF:/usr/share/miniconda3/envs/moose/libmesh/include/libmesh/threads_pthread.h
FN:146,_ZN7libMesh7Threads10spin_mutexD2Ev
FNDA:0,_ZN7libMesh7Threads10spin_mutexD2Ev
FN:504,_ZN7libMesh7Threads6atomicIjEppEv
FNDA:0,_ZN7libMesh7Threads6atomicIjEppEv
FN:518,_ZN7libMesh7Threads6atomicIjEmmEv
FNDA:0,_ZN7libMesh7Threads6atomicIjEmmEv
FNF:3
FNH:0
DA:146,0
DA:148,0
DA:149,0
DA:504,0
DA:507,0
DA:508,0
DA:518,0
DA:521,0
DA:522,0
LF:9
LH:0
end_of_record
SF:/usr/share/miniconda3/envs/moose/x86_64-conda-linux-gnu/include/c++/10.4.0/string_view
FN:288,_ZNKSt17basic_string_viewIcSt11char_traitsIcEE7compareES2_
FNDA:0,_ZNKSt17basic_string_viewIcSt11char_traitsIcEE7compareES2_
FNF:1
FNH:0
DA:288,0
DA:290,0
DA:291,0
DA:292,0
DA:294,0
DA:463,0
DA:464,0
DA:466,0
DA:468,0
DA:552,0
DA:558,0
LF:11
LH:0
end_of_record
SF:/usr/share/miniconda3/envs/moose/x86_64-conda-linux-gnu/include/c++/10.4.0/bits/stl_tree.h
FN:613,_ZNSt8_Rb_treeINSt7__cxx1112basic_stringIcSt11char_traitsIcESaIcEEES5_St9_IdentityIS5_ESt4lessIS5_ESaIS5_EE17_M_construct_nodeIJRKS5_EEEvPSt13_Rb_tree_nodeIS5_EDpOT_
FNDA:34,_ZNSt8_Rb_treeINSt7__cxx1112basic_stringIcSt11char_traitsIcESaIcEEES5_St9_IdentityIS5_ESt4lessIS5_ESaIS5_EE17_M_construct_nodeIJRKS5_EEEvPSt13_Rb_tree_nodeIS5_EDpOT_
FN:613,_ZNSt8_Rb_treeINSt7__cxx1112basic_stringIcSt11char_traitsIcESaIcEEESt4pairIKS5_St10unique_ptrI23AppFactoryBuildInfoBaseSt14default_deleteIS9_EEESt10_Select1stISD_ESt4lessIS5_ESaISD_EE17_M_construct_nodeIJRKSt21piecewise_construct_tSt5tupleIJRS7_EESO_IJEEEEEvPSt13_Rb_tree_nodeISD_EDpOT_
FNDA:0,_ZNSt8_Rb_treeINSt7__cxx1112basic_stringIcSt11char_traitsIcESaIcEEESt4pairIKS5_St10unique_ptrI23AppFactoryBuildInfoBaseSt14default_deleteIS9_EEESt10_Select1stISD_ESt4lessIS5_ESaISD_EE17_M_construct_nodeIJRKSt21piecewise_construct_tSt5tupleIJRS7_EESO_IJEEEEEvPSt13_Rb_tree_nodeISD_EDpOT_
FN:613,_ZNSt8_Rb_treeINSt7__cxx1112basic_stringIcSt11char_traitsIcESaIcEEESt4pairIKS5_St10unique_ptrIN7libMesh10Parameters5ValueESt14default_deleteISB_EEESt10_Select1stISF_ESt4lessIvESaISF_EE17_M_construct_nodeIJRKSt21piecewise_construct_tSt5tupleIJRS7_EESQ_IJEEEEEvPSt13_Rb_tree_nodeISF_EDpOT_
FNDA:0,_ZNSt8_Rb_treeINSt7__cxx1112basic_stringIcSt11char_traitsIcESaIcEEESt4pairIKS5_St10unique_ptrIN7libMesh10Parameters5ValueESt14default_deleteISB_EEESt10_Select1stISF_ESt4lessIvESaISF_EE17_M_construct_nodeIJRKSt21piecewise_construct_tSt5tupleIJRS7_EESQ_IJEEEEEvPSt13_Rb_tree_nodeISF_EDpOT_
FN:613,_ZNSt8_Rb_treeINSt7__cxx1112basic_stringIcSt11char_traitsIcESaIcEEESt4pairIKS5_N15InputParameters8MetadataEESt10_Select1stISA_ESt4lessIS5_ESaISA_EE17_M_construct_nodeIJRKSt21piecewise_construct_tSt5tupleIJRS7_EESL_IJEEEEEvPSt13_Rb_tree_nodeISA_EDpOT_
FNDA:0,_ZNSt8_Rb_treeINSt7__cxx1112basic_stringIcSt11char_traitsIcESaIcEEESt4pairIKS5_N15InputParameters8MetadataEESt10_Select1stISA_ESt4lessIS5_ESaISA_EE17_M_construct_nodeIJRKSt21piecewise_construct_tSt5tupleIJRS7_EESL_IJEEEEEvPSt13_Rb_tree_nodeISA_EDpOT_
FN:632,_ZNSt8_Rb_treeINSt7__cxx1112basic_stringIcSt11char_traitsIcESaIcEEESt4pairIKS5_St10unique_ptrIN7libMesh10Parameters5ValueESt14default_deleteISB_EEESt10_Select1stISF_ESt4lessIvESaISF_EE14_M_create_nodeIJRKSt21piecewise_construct_tSt5tupleIJRS7_EESQ_IJEEEEEPSt13_Rb_tree_nodeISF_EDpOT_
FNDA:0,_ZNSt8_Rb_treeINSt7__cxx1112basic_stringIcSt11char_traitsIcESaIcEEESt4pairIKS5_St10unique_ptrIN7libMesh10Parameters5ValueESt14default_deleteISB_EEESt10_Select1stISF_ESt4lessIvESaISF_EE14_M_create_nodeIJRKSt21piecewise_construct_tSt5tupleIJRS7_EESQ_IJEEEEEPSt13_Rb_tree_nodeISF_EDpOT_
FN:632,_ZNSt8_Rb_treeINSt7__cxx1112basic_stringIcSt11char_traitsIcESaIcEEESt4pairIKS5_N15InputParameters8MetadataEESt10_Select1stISA_ESt4lessIS5_ESaISA_EE14_M_create_nodeIJRKSt21piecewise_construct_tSt5tupleIJRS7_EESL_IJEEEEEPSt13_Rb_tree_nodeISA_EDpOT_
FNDA:0,_ZNSt8_Rb_treeINSt7__cxx1112basic_stringIcSt11char_traitsIcESaIcEEESt4pairIKS5_N15InputParameters8MetadataEESt10_Select1stISA_ESt4lessIS5_ESaISA_EE14_M_create_nodeIJRKSt21piecewise_construct_tSt5tupleIJRS7_EESL_IJEEEEEPSt13_Rb_tree_nodeISA_EDpOT_
FN:632,_ZNSt8_Rb_treeINSt7__cxx1112basic_stringIcSt11char_traitsIcESaIcEEES5_St9_IdentityIS5_ESt4lessIS5_ESaIS5_EE14_M_create_nodeIJRKS5_EEEPSt13_Rb_tree_nodeIS5_EDpOT_
FNDA:34,_ZNSt8_Rb_treeINSt7__cxx1112basic_stringIcSt11char_traitsIcESaIcEEES5_St9_IdentityIS5_ESt4lessIS5_ESaIS5_EE14_M_create_nodeIJRKS5_EEEPSt13_Rb_tree_nodeIS5_EDpOT_
FN:632,_ZNSt8_Rb_treeINSt7__cxx1112basic_stringIcSt11char_traitsIcESaIcEEESt4pairIKS5_St10unique_ptrI23AppFactoryBuildInfoBaseSt14default_deleteIS9_EEESt10_Select1stISD_ESt4lessIS5_ESaISD_EE14_M_create_nodeIJRKSt21piecewise_construct_tSt5tupleIJRS7_EESO_IJEEEEEPSt13_Rb_tree_nodeISD_EDpOT_
FNDA:0,_ZNSt8_Rb_treeINSt7__cxx1112basic_stringIcSt11char_traitsIcESaIcEEESt4pairIKS5_St10unique_ptrI23AppFactoryBuildInfoBaseSt14default_deleteIS9_EEESt10_Select1stISD_ESt4lessIS5_ESaISD_EE14_M_create_nodeIJRKSt21piecewise_construct_tSt5tupleIJRS7_EESO_IJEEEEEPSt13_Rb_tree_nodeISD_EDpOT_
FN:652,_ZNSt8_Rb_treeI13MooseEnumItemS0_St9_IdentityIS0_ESt4lessIS0_ESaIS0_EE12_M_drop_nodeEPSt13_Rb_tree_nodeIS0_E
FNDA:0,_ZNSt8_Rb_treeI13MooseEnumItemS0_St9_IdentityIS0_ESt4lessIS0_ESaIS0_EE12_M_drop_nodeEPSt13_Rb_tree_nodeIS0_E
FN:652,_ZNSt8_Rb_treeINSt7__cxx1112basic_stringIcSt11char_traitsIcESaIcEEESt4pairIKS5_St10unique_ptrIN7libMesh10Parameters5ValueESt14default_deleteISB_EEESt10_Select1stISF_ESt4lessIvESaISF_EE12_M_drop_nodeEPSt13_Rb_tree_nodeISF_E
FNDA:0,_ZNSt8_Rb_treeINSt7__cxx1112basic_stringIcSt11char_traitsIcESaIcEEESt4pairIKS5_St10unique_ptrIN7libMesh10Parameters5ValueESt14default_deleteISB_EEESt10_Select1stISF_ESt4lessIvESaISF_EE12_M_drop_nodeEPSt13_Rb_tree_nodeISF_E
FN:652,_ZNSt8_Rb_treeINSt7__cxx1112basic_stringIcSt11char_traitsIcESaIcEEESt4pairIKS5_N15InputParameters8MetadataEESt10_Select1stISA_ESt4lessIS5_ESaISA_EE12_M_drop_nodeEPSt13_Rb_tree_nodeISA_E
FNDA:0,_ZNSt8_Rb_treeINSt7__cxx1112basic_stringIcSt11char_traitsIcESaIcEEESt4pairIKS5_N15InputParameters8MetadataEESt10_Select1stISA_ESt4lessIS5_ESaISA_EE12_M_drop_nodeEPSt13_Rb_tree_nodeISA_E
FN:652,_ZNSt8_Rb_treeINSt7__cxx1112basic_stringIcSt11char_traitsIcESaIcEEESt4pairIKS5_S5_ESt10_Select1stIS8_ESt4lessIS5_ESaIS8_EE12_M_drop_nodeEPSt13_Rb_tree_nodeIS8_E
FNDA:0,_ZNSt8_Rb_treeINSt7__cxx1112basic_stringIcSt11char_traitsIcESaIcEEESt4pairIKS5_S5_ESt10_Select1stIS8_ESt4lessIS5_ESaIS8_EE12_M_drop_nodeEPSt13_Rb_tree_nodeIS8_E
FN:652,_ZNSt8_Rb_treeINSt7__cxx1112basic_stringIcSt11char_traitsIcESaIcEEESt4pairIKS5_St10unique_ptrI23AppFactoryBuildInfoBaseSt14default_deleteIS9_EEESt10_Select1stISD_ESt4lessIS5_ESaISD_EE12_M_drop_nodeEPSt13_Rb_tree_nodeISD_E
FNDA:0,_ZNSt8_Rb_treeINSt7__cxx1112basic_stringIcSt11char_traitsIcESaIcEEESt4pairIKS5_St10unique_ptrI23AppFactoryBuildInfoBaseSt14default_deleteIS9_EEESt10_Select1stISD_ESt4lessIS5_ESaISD_EE12_M_drop_nodeEPSt13_Rb_tree_nodeISD_E
FN:1107,_ZNSt8_Rb_treeINSt7__cxx1112basic_stringIcSt11char_traitsIcESaIcEEES5_St9_IdentityIS5_ESt4lessIS5_ESaIS5_EE22_M_insert_range_uniqueIPKS5_EENSt9enable_ifIXsrSt7is_sameIS5_NSt15iterator_traitsIT_E10value_typeEE5valueEvE4typeESI_SI_
FNDA:34,_ZNSt8_Rb_treeINSt7__cxx1112basic_stringIcSt11char_traitsIcESaIcEEES5_St9_IdentityIS5_ESt4lessIS5_ESaIS5_EE22_M_insert_range_uniqueIPKS5_EENSt9enable_ifIXsrSt7is_sameIS5_NSt15iterator_traitsIT_E10value_typeEE5valueEvE4typeESI_SI_
FN:1261,_ZNSt8_Rb_treeINSt7__cxx1112basic_stringIcSt11char_traitsIcESaIcEEESt4pairIKS5_St10unique_ptrIN7libMesh10Parameters5ValueESt14default_deleteISB_EEESt10_Select1stISF_ESt4lessIvESaISF_EE5clearEv
FNDA:0,_ZNSt8_Rb_treeINSt7__cxx1112basic_stringIcSt11char_traitsIcESaIcEEESt4pairIKS5_St10unique_ptrIN7libMesh10Parameters5ValueESt14default_deleteISB_EEESt10_Select1stISF_ESt4lessIvESaISF_EE5clearEv
FN:1312,_ZNKSt8_Rb_treeINSt7__cxx1112basic_stringIcSt11char_traitsIcESaIcEEESt4pairIKS5_St10unique_ptrIN7libMesh10Parameters5ValueESt14default_deleteISB_EEESt10_Select1stISF_ESt4lessIvESaISF_EE10_M_find_trISt17basic_string_viewIcS3_EvEESt23_Rb_tree_const_iteratorISF_ERKT_
FNDA:0,_ZNKSt8_Rb_treeINSt7__cxx1112basic_stringIcSt11char_traitsIcESaIcEEESt4pairIKS5_St10unique_ptrIN7libMesh10Parameters5ValueESt14default_deleteISB_EEESt10_Select1stISF_ESt4lessIvESaISF_EE10_M_find_trISt17basic_string_viewIcS3_EvEESt23_Rb_tree_const_iteratorISF_ERKT_
FN:1341,_ZNKSt8_Rb_treeINSt7__cxx1112basic_stringIcSt11char_traitsIcESaIcEEESt4pairIKS5_St10unique_ptrIN7libMesh10Parameters5ValueESt14default_deleteISB_EEESt10_Select1stISF_ESt4lessIvESaISF_EE17_M_lower_bound_trISt17basic_string_viewIcS3_EvEESt23_Rb_tree_const_iteratorISF_ERKT_
FNDA:0,_ZNKSt8_Rb_treeINSt7__cxx1112basic_stringIcSt11char_traitsIcESaIcEEESt4pairIKS5_St10unique_ptrIN7libMesh10Parameters5ValueESt14default_deleteISB_EEESt10_Select1stISF_ESt4lessIvESaISF_EE17_M_lower_bound_trISt17basic_string_viewIcS3_EvEESt23_Rb_tree_const_iteratorISF_ERKT_
FN:1808,_ZNSt8_Rb_treeINSt7__cxx1112basic_stringIcSt11char_traitsIcESaIcEEES5_St9_IdentityIS5_ESt4lessIS5_ESaIS5_EE10_M_insert_IRKS5_NSB_11_Alloc_nodeEEESt17_Rb_tree_iteratorIS5_EPSt18_Rb_tree_node_baseSJ_OT_RT0_
FNDA:34,_ZNSt8_Rb_treeINSt7__cxx1112basic_stringIcSt11char_traitsIcESaIcEEES5_St9_IdentityIS5_ESt4lessIS5_ESaIS5_EE10_M_insert_IRKS5_NSB_11_Alloc_nodeEEESt17_Rb_tree_iteratorIS5_EPSt18_Rb_tree_node_baseSJ_OT_RT0_
FN:1918,_ZNSt8_Rb_treeINSt7__cxx1112basic_stringIcSt11char_traitsIcESaIcEEESt4pairIKS5_N15InputParameters8MetadataEESt10_Select1stISA_ESt4lessIS5_ESaISA_EE8_M_eraseEPSt13_Rb_tree_nodeISA_E
FNDA:0,_ZNSt8_Rb_treeINSt7__cxx1112basic_stringIcSt11char_traitsIcESaIcEEESt4pairIKS5_N15InputParameters8MetadataEESt10_Select1stISA_ESt4lessIS5_ESaISA_EE8_M_eraseEPSt13_Rb_tree_nodeISA_E
FN:1918,_ZNSt8_Rb_treeINSt7__cxx1112basic_stringIcSt11char_traitsIcESaIcEEESt4pairIKS5_St10unique_ptrIN7libMesh10Parameters5ValueESt14default_deleteISB_EEESt10_Select1stISF_ESt4lessIvESaISF_EE8_M_eraseEPSt13_Rb_tree_nodeISF_E
FNDA:0,_ZNSt8_Rb_treeINSt7__cxx1112basic_stringIcSt11char_traitsIcESaIcEEESt4pairIKS5_St10unique_ptrIN7libMesh10Parameters5ValueESt14default_deleteISB_EEESt10_Select1stISF_ESt4lessIvESaISF_EE8_M_eraseEPSt13_Rb_tree_nodeISF_E
FN:1918,_ZNSt8_Rb_treeIttSt9_IdentityItESt4lessItESaItEE8_M_eraseEPSt13_Rb_tree_nodeItE
FNDA:0,_ZNSt8_Rb_treeIttSt9_IdentityItESt4lessItESaItEE8_M_eraseEPSt13_Rb_tree_nodeItE
FN:1918,_ZNSt8_Rb_treeIssSt9_IdentityIsESt4lessIsESaIsEE8_M_eraseEPSt13_Rb_tree_nodeIsE
FNDA:0,_ZNSt8_Rb_treeIssSt9_IdentityIsESt4lessIsESaIsEE8_M_eraseEPSt13_Rb_tree_nodeIsE
FN:1918,_ZNSt8_Rb_treeINSt7__cxx1112basic_stringIcSt11char_traitsIcESaIcEEES5_St9_IdentityIS5_ESt4lessIS5_ESaIS5_EE8_M_eraseEPSt13_Rb_tree_nodeIS5_E
FNDA:68,_ZNSt8_Rb_treeINSt7__cxx1112basic_stringIcSt11char_traitsIcESaIcEEES5_St9_IdentityIS5_ESt4lessIS5_ESaIS5_EE8_M_eraseEPSt13_Rb_tree_nodeIS5_E
FN:1918,_ZNSt8_Rb_treeINSt7__cxx1112basic_stringIcSt11char_traitsIcESaIcEEESt4pairIKS5_S5_ESt10_Select1stIS8_ESt4lessIS5_ESaIS8_EE8_M_eraseEPSt13_Rb_tree_nodeIS8_E
FNDA:0,_ZNSt8_Rb_treeINSt7__cxx1112basic_stringIcSt11char_traitsIcESaIcEEESt4pairIKS5_S5_ESt10_Select1stIS8_ESt4lessIS5_ESaIS8_EE8_M_eraseEPSt13_Rb_tree_nodeIS8_E
FN:1918,_ZNSt8_Rb_treeINSt7__cxx1112basic_stringIcSt11char_traitsIcESaIcEEESt4pairIKS5_S6_IS5_S5_EESt10_Select1stIS9_ESt4lessIS5_ESaIS9_EE8_M_eraseEPSt13_Rb_tree_nodeIS9_E
FNDA:0,_ZNSt8_Rb_treeINSt7__cxx1112basic_stringIcSt11char_traitsIcESaIcEEESt4pairIKS5_S6_IS5_S5_EESt10_Select1stIS9_ESt4lessIS5_ESaIS9_EE8_M_eraseEPSt13_Rb_tree_nodeIS9_E
FN:1918,_ZNSt8_Rb_treeI13MooseEnumItemS0_St9_IdentityIS0_ESt4lessIS0_ESaIS0_EE8_M_eraseEPSt13_Rb_tree_nodeIS0_E
FNDA:0,_ZNSt8_Rb_treeI13MooseEnumItemS0_St9_IdentityIS0_ESt4lessIS0_ESaIS0_EE8_M_eraseEPSt13_Rb_tree_nodeIS0_E
FN:1935,_ZNSt8_Rb_treeINSt7__cxx1112basic_stringIcSt11char_traitsIcESaIcEEESt4pairIKS5_N15InputParameters8MetadataEESt10_Select1stISA_ESt4lessIS5_ESaISA_EE14_M_lower_boundEPSt13_Rb_tree_nodeISA_EPSt18_Rb_tree_node_baseRS7_
FNDA:0,_ZNSt8_Rb_treeINSt7__cxx1112basic_stringIcSt11char_traitsIcESaIcEEESt4pairIKS5_N15InputParameters8MetadataEESt10_Select1stISA_ESt4lessIS5_ESaISA_EE14_M_lower_boundEPSt13_Rb_tree_nodeISA_EPSt18_Rb_tree_node_baseRS7_
FN:1935,_ZNSt8_Rb_treeINSt7__cxx1112basic_stringIcSt11char_traitsIcESaIcEEESt4pairIKS5_St10unique_ptrI23AppFactoryBuildInfoBaseSt14default_deleteIS9_EEESt10_Select1stISD_ESt4lessIS5_ESaISD_EE14_M_lower_boundEPSt13_Rb_tree_nodeISD_EPSt18_Rb_tree_node_baseRS7_
FNDA:0,_ZNSt8_Rb_treeINSt7__cxx1112basic_stringIcSt11char_traitsIcESaIcEEESt4pairIKS5_St10unique_ptrI23AppFactoryBuildInfoBaseSt14default_deleteIS9_EEESt10_Select1stISD_ESt4lessIS5_ESaISD_EE14_M_lower_boundEPSt13_Rb_tree_nodeISD_EPSt18_Rb_tree_node_baseRS7_
FN:1935,_ZNSt8_Rb_treeINSt7__cxx1112basic_stringIcSt11char_traitsIcESaIcEEESt4pairIKS5_St10unique_ptrIN7libMesh10Parameters5ValueESt14default_deleteISB_EEESt10_Select1stISF_ESt4lessIvESaISF_EE14_M_lower_boundEPSt13_Rb_tree_nodeISF_EPSt18_Rb_tree_node_baseRS7_
FNDA:0,_ZNSt8_Rb_treeINSt7__cxx1112basic_stringIcSt11char_traitsIcESaIcEEESt4pairIKS5_St10unique_ptrIN7libMesh10Parameters5ValueESt14default_deleteISB_EEESt10_Select1stISF_ESt4lessIvESaISF_EE14_M_lower_boundEPSt13_Rb_tree_nodeISF_EPSt18_Rb_tree_node_baseRS7_
FN:1951,_ZNKSt8_Rb_treeINSt7__cxx1112basic_stringIcSt11char_traitsIcESaIcEEESt4pairIKS5_St10unique_ptrIN7libMesh10Parameters5ValueESt14default_deleteISB_EEESt10_Select1stISF_ESt4lessIvESaISF_EE14_M_lower_boundEPKSt13_Rb_tree_nodeISF_EPKSt18_Rb_tree_node_baseRS7_
FNDA:0,_ZNKSt8_Rb_treeINSt7__cxx1112basic_stringIcSt11char_traitsIcESaIcEEESt4pairIKS5_St10unique_ptrIN7libMesh10Parameters5ValueESt14default_deleteISB_EEESt10_Select1stISF_ESt4lessIvESaISF_EE14_M_lower_boundEPKSt13_Rb_tree_nodeISF_EPKSt18_Rb_tree_node_baseRS7_
FN:1951,_ZNKSt8_Rb_treeINSt7__cxx1112basic_stringIcSt11char_traitsIcESaIcEEESt4pairIKS5_St10unique_ptrI23AppFactoryBuildInfoBaseSt14default_deleteIS9_EEESt10_Select1stISD_ESt4lessIS5_ESaISD_EE14_M_lower_boundEPKSt13_Rb_tree_nodeISD_EPKSt18_Rb_tree_node_baseRS7_
FNDA:0,_ZNKSt8_Rb_treeINSt7__cxx1112basic_stringIcSt11char_traitsIcESaIcEEESt4pairIKS5_St10unique_ptrI23AppFactoryBuildInfoBaseSt14default_deleteIS9_EEESt10_Select1stISD_ESt4lessIS5_ESaISD_EE14_M_lower_boundEPKSt13_Rb_tree_nodeISD_EPKSt18_Rb_tree_node_baseRS7_
FN:2096,_ZNSt8_Rb_treeINSt7__cxx1112basic_stringIcSt11char_traitsIcESaIcEEESt4pairIKS5_N15InputParameters8MetadataEESt10_Select1stISA_ESt4lessIS5_ESaISA_EE24_M_get_insert_unique_posERS7_
FNDA:0,_ZNSt8_Rb_treeINSt7__cxx1112basic_stringIcSt11char_traitsIcESaIcEEESt4pairIKS5_N15InputParameters8MetadataEESt10_Select1stISA_ESt4lessIS5_ESaISA_EE24_M_get_insert_unique_posERS7_
FN:2096,_ZNSt8_Rb_treeINSt7__cxx1112basic_stringIcSt11char_traitsIcESaIcEEES5_St9_IdentityIS5_ESt4lessIS5_ESaIS5_EE24_M_get_insert_unique_posERKS5_
FNDA:0,_ZNSt8_Rb_treeINSt7__cxx1112basic_stringIcSt11char_traitsIcESaIcEEES5_St9_IdentityIS5_ESt4lessIS5_ESaIS5_EE24_M_get_insert_unique_posERKS5_
FN:2096,_ZNSt8_Rb_treeINSt7__cxx1112basic_stringIcSt11char_traitsIcESaIcEEESt4pairIKS5_St10unique_ptrIN7libMesh10Parameters5ValueESt14default_deleteISB_EEESt10_Select1stISF_ESt4lessIvESaISF_EE24_M_get_insert_unique_posERS7_
FNDA:0,_ZNSt8_Rb_treeINSt7__cxx1112basic_stringIcSt11char_traitsIcESaIcEEESt4pairIKS5_St10unique_ptrIN7libMesh10Parameters5ValueESt14default_deleteISB_EEESt10_Select1stISF_ESt4lessIvESaISF_EE24_M_get_insert_unique_posERS7_
FN:2096,_ZNSt8_Rb_treeINSt7__cxx1112basic_stringIcSt11char_traitsIcESaIcEEESt4pairIKS5_St10unique_ptrI23AppFactoryBuildInfoBaseSt14default_deleteIS9_EEESt10_Select1stISD_ESt4lessIS5_ESaISD_EE24_M_get_insert_unique_posERS7_
FNDA:0,_ZNSt8_Rb_treeINSt7__cxx1112basic_stringIcSt11char_traitsIcESaIcEEESt4pairIKS5_St10unique_ptrI23AppFactoryBuildInfoBaseSt14default_deleteIS9_EEESt10_Select1stISD_ESt4lessIS5_ESaISD_EE24_M_get_insert_unique_posERS7_
FN:2198,_ZNSt8_Rb_treeINSt7__cxx1112basic_stringIcSt11char_traitsIcESaIcEEESt4pairIKS5_N15InputParameters8MetadataEESt10_Select1stISA_ESt4lessIS5_ESaISA_EE29_M_get_insert_hint_unique_posESt23_Rb_tree_const_iteratorISA_ERS7_
FNDA:0,_ZNSt8_Rb_treeINSt7__cxx1112basic_stringIcSt11char_traitsIcESaIcEEESt4pairIKS5_N15InputParameters8MetadataEESt10_Select1stISA_ESt4lessIS5_ESaISA_EE29_M_get_insert_hint_unique_posESt23_Rb_tree_const_iteratorISA_ERS7_
FN:2198,_ZNSt8_Rb_treeINSt7__cxx1112basic_stringIcSt11char_traitsIcESaIcEEESt4pairIKS5_St10unique_ptrI23AppFactoryBuildInfoBaseSt14default_deleteIS9_EEESt10_Select1stISD_ESt4lessIS5_ESaISD_EE29_M_get_insert_hint_unique_posESt23_Rb_tree_const_iteratorISD_ERS7_
FNDA:0,_ZNSt8_Rb_treeINSt7__cxx1112basic_stringIcSt11char_traitsIcESaIcEEESt4pairIKS5_St10unique_ptrI23AppFactoryBuildInfoBaseSt14default_deleteIS9_EEESt10_Select1stISD_ESt4lessIS5_ESaISD_EE29_M_get_insert_hint_unique_posESt23_Rb_tree_const_iteratorISD_ERS7_
FN:2198,_ZNSt8_Rb_treeINSt7__cxx1112basic_stringIcSt11char_traitsIcESaIcEEESt4pairIKS5_St10unique_ptrIN7libMesh10Parameters5ValueESt14default_deleteISB_EEESt10_Select1stISF_ESt4lessIvESaISF_EE29_M_get_insert_hint_unique_posESt23_Rb_tree_const_iteratorISF_ERS7_
FNDA:0,_ZNSt8_Rb_treeINSt7__cxx1112basic_stringIcSt11char_traitsIcESaIcEEESt4pairIKS5_St10unique_ptrIN7libMesh10Parameters5ValueESt14default_deleteISB_EEESt10_Select1stISF_ESt4lessIvESaISF_EE29_M_get_insert_hint_unique_posESt23_Rb_tree_const_iteratorISF_ERS7_
FN:2198,_ZNSt8_Rb_treeINSt7__cxx1112basic_stringIcSt11char_traitsIcESaIcEEES5_St9_IdentityIS5_ESt4lessIS5_ESaIS5_EE29_M_get_insert_hint_unique_posESt23_Rb_tree_const_iteratorIS5_ERKS5_
FNDA:0,_ZNSt8_Rb_treeINSt7__cxx1112basic_stringIcSt11char_traitsIcESaIcEEES5_St9_IdentityIS5_ESt4lessIS5_ESaIS5_EE29_M_get_insert_hint_unique_posESt23_Rb_tree_const_iteratorIS5_ERKS5_
FN:2259,_ZNSt8_Rb_treeINSt7__cxx1112basic_stringIcSt11char_traitsIcESaIcEEES5_St9_IdentityIS5_ESt4lessIS5_ESaIS5_EE17_M_insert_unique_IRKS5_NSB_11_Alloc_nodeEEESt17_Rb_tree_iteratorIS5_ESt23_Rb_tree_const_iteratorIS5_EOT_RT0_
FNDA:34,_ZNSt8_Rb_treeINSt7__cxx1112basic_stringIcSt11char_traitsIcESaIcEEES5_St9_IdentityIS5_ESt4lessIS5_ESaIS5_EE17_M_insert_unique_IRKS5_NSB_11_Alloc_nodeEEESt17_Rb_tree_iteratorIS5_ESt23_Rb_tree_const_iteratorIS5_EOT_RT0_
FN:2365,_ZNSt8_Rb_treeINSt7__cxx1112basic_stringIcSt11char_traitsIcESaIcEEESt4pairIKS5_N15InputParameters8MetadataEESt10_Select1stISA_ESt4lessIS5_ESaISA_EE14_M_insert_nodeEPSt18_Rb_tree_node_baseSI_PSt13_Rb_tree_nodeISA_E
FNDA:0,_ZNSt8_Rb_treeINSt7__cxx1112basic_stringIcSt11char_traitsIcESaIcEEESt4pairIKS5_N15InputParameters8MetadataEESt10_Select1stISA_ESt4lessIS5_ESaISA_EE14_M_insert_nodeEPSt18_Rb_tree_node_baseSI_PSt13_Rb_tree_nodeISA_E
FN:2365,_ZNSt8_Rb_treeINSt7__cxx1112basic_stringIcSt11char_traitsIcESaIcEEESt4pairIKS5_St10unique_ptrIN7libMesh10Parameters5ValueESt14default_deleteISB_EEESt10_Select1stISF_ESt4lessIvESaISF_EE14_M_insert_nodeEPSt18_Rb_tree_node_baseSN_PSt13_Rb_tree_nodeISF_E
FNDA:0,_ZNSt8_Rb_treeINSt7__cxx1112basic_stringIcSt11char_traitsIcESaIcEEESt4pairIKS5_St10unique_ptrIN7libMesh10Parameters5ValueESt14default_deleteISB_EEESt10_Select1stISF_ESt4lessIvESaISF_EE14_M_insert_nodeEPSt18_Rb_tree_node_baseSN_PSt13_Rb_tree_nodeISF_E
FN:2365,_ZNSt8_Rb_treeINSt7__cxx1112basic_stringIcSt11char_traitsIcESaIcEEESt4pairIKS5_St10unique_ptrI23AppFactoryBuildInfoBaseSt14default_deleteIS9_EEESt10_Select1stISD_ESt4lessIS5_ESaISD_EE14_M_insert_nodeEPSt18_Rb_tree_node_baseSL_PSt13_Rb_tree_nodeISD_E
FNDA:0,_ZNSt8_Rb_treeINSt7__cxx1112basic_stringIcSt11char_traitsIcESaIcEEESt4pairIKS5_St10unique_ptrI23AppFactoryBuildInfoBaseSt14default_deleteIS9_EEESt10_Select1stISD_ESt4lessIS5_ESaISD_EE14_M_insert_nodeEPSt18_Rb_tree_node_baseSL_PSt13_Rb_tree_nodeISD_E
FN:2463,_ZNSt8_Rb_treeINSt7__cxx1112basic_stringIcSt11char_traitsIcESaIcEEESt4pairIKS5_St10unique_ptrI23AppFactoryBuildInfoBaseSt14default_deleteIS9_EEESt10_Select1stISD_ESt4lessIS5_ESaISD_EE22_M_emplace_hint_uniqueIJRKSt21piecewise_construct_tSt5tupleIJRS7_EESO_IJEEEEESt17_Rb_tree_iteratorISD_ESt23_Rb_tree_const_iteratorISD_EDpOT_
FNDA:0,_ZNSt8_Rb_treeINSt7__cxx1112basic_stringIcSt11char_traitsIcESaIcEEESt4pairIKS5_St10unique_ptrI23AppFactoryBuildInfoBaseSt14default_deleteIS9_EEESt10_Select1stISD_ESt4lessIS5_ESaISD_EE22_M_emplace_hint_uniqueIJRKSt21piecewise_construct_tSt5tupleIJRS7_EESO_IJEEEEESt17_Rb_tree_iteratorISD_ESt23_Rb_tree_const_iteratorISD_EDpOT_
FN:2463,_ZNSt8_Rb_treeINSt7__cxx1112basic_stringIcSt11char_traitsIcESaIcEEESt4pairIKS5_N15InputParameters8MetadataEESt10_Select1stISA_ESt4lessIS5_ESaISA_EE22_M_emplace_hint_uniqueIJRKSt21piecewise_construct_tSt5tupleIJRS7_EESL_IJEEEEESt17_Rb_tree_iteratorISA_ESt23_Rb_tree_const_iteratorISA_EDpOT_
FNDA:0,_ZNSt8_Rb_treeINSt7__cxx1112basic_stringIcSt11char_traitsIcESaIcEEESt4pairIKS5_N15InputParameters8MetadataEESt10_Select1stISA_ESt4lessIS5_ESaISA_EE22_M_emplace_hint_uniqueIJRKSt21piecewise_construct_tSt5tupleIJRS7_EESL_IJEEEEESt17_Rb_tree_iteratorISA_ESt23_Rb_tree_const_iteratorISA_EDpOT_
FN:2463,_ZNSt8_Rb_treeINSt7__cxx1112basic_stringIcSt11char_traitsIcESaIcEEESt4pairIKS5_St10unique_ptrIN7libMesh10Parameters5ValueESt14default_deleteISB_EEESt10_Select1stISF_ESt4lessIvESaISF_EE22_M_emplace_hint_uniqueIJRKSt21piecewise_construct_tSt5tupleIJRS7_EESQ_IJEEEEESt17_Rb_tree_iteratorISF_ESt23_Rb_tree_const_iteratorISF_EDpOT_
FNDA:0,_ZNSt8_Rb_treeINSt7__cxx1112basic_stringIcSt11char_traitsIcESaIcEEESt4pairIKS5_St10unique_ptrIN7libMesh10Parameters5ValueESt14default_deleteISB_EEESt10_Select1stISF_ESt4lessIvESaISF_EE22_M_emplace_hint_uniqueIJRKSt21piecewise_construct_tSt5tupleIJRS7_EESQ_IJEEEEESt17_Rb_tree_iteratorISF_ESt23_Rb_tree_const_iteratorISF_EDpOT_
FN:2568,_ZNKSt8_Rb_treeINSt7__cxx1112basic_stringIcSt11char_traitsIcESaIcEEESt4pairIKS5_St10unique_ptrI23AppFactoryBuildInfoBaseSt14default_deleteIS9_EEESt10_Select1stISD_ESt4lessIS5_ESaISD_EE4findERS7_
FNDA:0,_ZNKSt8_Rb_treeINSt7__cxx1112basic_stringIcSt11char_traitsIcESaIcEEESt4pairIKS5_St10unique_ptrI23AppFactoryBuildInfoBaseSt14default_deleteIS9_EEESt10_Select1stISD_ESt4lessIS5_ESaISD_EE4findERS7_
FN:2568,_ZNKSt8_Rb_treeINSt7__cxx1112basic_stringIcSt11char_traitsIcESaIcEEESt4pairIKS5_St10unique_ptrIN7libMesh10Parameters5ValueESt14default_deleteISB_EEESt10_Select1stISF_ESt4lessIvESaISF_EE4findERS7_
FNDA:0,_ZNKSt8_Rb_treeINSt7__cxx1112basic_stringIcSt11char_traitsIcESaIcEEESt4pairIKS5_St10unique_ptrIN7libMesh10Parameters5ValueESt14default_deleteISB_EEESt10_Select1stISF_ESt4lessIvESaISF_EE4findERS7_
FNF:48
FNH:6
DA:152,34
DA:174,34
DA:175,34
DA:208,34
DA:209,34
DA:210,34
DA:211,34
DA:287,0
DA:302,0
DA:303,0
DA:350,34
DA:351,0
DA:355,0
DA:368,0
DA:369,0
DA:397,0
DA:542,34
DA:543,34
DA:552,34
DA:571,0
DA:613,34
DA:622,0
DA:624,0
DA:626,0
DA:628,34
DA:613,0
DA:622,0
DA:624,0
DA:626,0
DA:628,0
DA:613,0
DA:622,0
DA:624,0
DA:626,0
DA:628,0
DA:613,0
DA:622,0
DA:624,0
DA:626,0
DA:628,0
DA:632,34
DA:635,34
DA:636,34
DA:632,0
DA:635,0
DA:636,0
DA:632,0
DA:635,0
DA:636,0
DA:632,0
DA:635,0
DA:636,0
DA:647,34
DA:652,0
DA:656,0
DA:652,0
DA:656,0
DA:652,0
DA:656,0
DA:652,0
DA:656,0
DA:652,0
DA:656,0
DA:716,34
DA:751,34
DA:757,0
DA:762,34
DA:766,0
DA:792,34
DA:796,0
DA:800,0
DA:804,0
DA:993,34
DA:1005,0
DA:1009,0
DA:1013,0
DA:1017,0
DA:1041,0
DA:1107,34
DA:1110,68
DA:1111,34
DA:1112,34
DA:1261,0
DA:1263,0
DA:1265,0
DA:1279,0
DA:1312,0
DA:1314,0
DA:1315,0
DA:1317,0
DA:1341,0
DA:1345,0
DA:1346,0
DA:1353,0
DA:1808,34
DA:1817,34
DA:1818,34
DA:1823,34
DA:1824,34
DA:1825,34
DA:1826,34
DA:1918,0
DA:1922,0
DA:1924,0
DA:1926,0
DA:1929,0
DA:1918,0
DA:1922,0
DA:1924,0
DA:1926,0
DA:1929,0
DA:1918,0
DA:1922,0
DA:1924,0
DA:1929,0
DA:1918,0
DA:1922,0
DA:1924,0
DA:1926,0
DA:1929,0
DA:1918,68
DA:1922,102
DA:1924,34
DA:1929,68
DA:1918,0
DA:1922,0
DA:1924,0
DA:1929,0
DA:1918,0
DA:1922,0
DA:1924,0
DA:1929,0
DA:1918,0
DA:1922,0
DA:1924,0
DA:1926,0
DA:1929,0
DA:1935,0
DA:1939,0
DA:1940,0
DA:1944,0
DA:1935,0
DA:1939,0
DA:1940,0
DA:1944,0
DA:1935,0
DA:1939,0
DA:1940,0
DA:1944,0
DA:1951,0
DA:1955,0
DA:1956,0
DA:1960,0
DA:1951,0
DA:1955,0
DA:1956,0
DA:1960,0
DA:2096,0
DA:2103,0
DA:2107,0
DA:2110,0
DA:2112,0
DA:2113,0
DA:2117,0
DA:2118,0
DA:2119,0
DA:2096,0
DA:2103,0
DA:2107,0
DA:2110,0
DA:2112,0
DA:2113,0
DA:2117,0
DA:2118,0
DA:2119,0
DA:2096,0
DA:2103,0
DA:2107,0
DA:2110,0
DA:2112,0
DA:2113,0
DA:2117,0
DA:2118,0
DA:2119,0
DA:2096,0
DA:2103,0
DA:2107,0
DA:2110,0
DA:2112,0
DA:2113,0
DA:2117,0
DA:2118,0
DA:2119,0
DA:2198,0
DA:2206,0
DA:2209,0
DA:2210,0
DA:2212,0
DA:2214,0
DA:2218,0
DA:2219,0
DA:2220,0
DA:2222,0
DA:2223,0
DA:2225,0
DA:2228,0
DA:2230,0
DA:2234,0
DA:2235,0
DA:2236,0
DA:2238,0
DA:2239,0
DA:2241,0
DA:2244,0
DA:2248,0
DA:2198,0
DA:2206,0
DA:2209,0
DA:2210,0
DA:2212,0
DA:2214,0
DA:2218,0
DA:2219,0
DA:2220,0
DA:2222,0
DA:2223,0
DA:2225,0
DA:2228,0
DA:2230,0
DA:2234,0
DA:2235,0
DA:2236,0
DA:2238,0
DA:2239,0
DA:2241,0
DA:2244,0
DA:2248,0
DA:2198,0
DA:2206,0
DA:2209,0
DA:2210,0
DA:2212,0
DA:2214,0
DA:2218,0
DA:2219,0
DA:2220,0
DA:2222,0
DA:2223,0
DA:2225,0
DA:2228,0
DA:2230,0
DA:2234,0
DA:2235,0
DA:2236,0
DA:2238,0
DA:2239,0
DA:2241,0
DA:2244,0
DA:2248,0
DA:2198,0
DA:2206,0
DA:2209,0
DA:2210,0
DA:2212,0
DA:2214,0
DA:2218,0
DA:2219,0
DA:2220,0
DA:2222,0
DA:2223,0
DA:2225,0
DA:2228,0
DA:2230,0
DA:2234,0
DA:2235,0
DA:2236,0
DA:2238,0
DA:2239,0
DA:2241,0
DA:2244,0
DA:2248,0
DA:2259,34
DA:2269,34
DA:2271,34
DA:2272,34
DA:2275,0
DA:2365,0
DA:2368,0
DA:2369,0
DA:2372,0
DA:2373,0
DA:2374,0
DA:2375,0
DA:2365,0
DA:2368,0
DA:2369,0
DA:2372,0
DA:2373,0
DA:2374,0
DA:2375,0
DA:2365,0
DA:2368,0
DA:2369,0
DA:2372,0
DA:2373,0
DA:2374,0
DA:2375,0
DA:2463,0
DA:2466,0
DA:2470,0
DA:2472,0
DA:2473,0
DA:2475,0
DA:2476,0
DA:2463,0
DA:2466,0
DA:2470,0
DA:2472,0
DA:2473,0
DA:2475,0
DA:2476,0
DA:2463,0
DA:2466,0
DA:2470,0
DA:2472,0
DA:2473,0
DA:2475,0
DA:2476,0
DA:2568,0
DA:2571,0
DA:2573,0
DA:2574,0
DA:2568,0
DA:2571,0
DA:2573,0
DA:2574,0
LF:336
LH:41
end_of_record
SF:/usr/share/miniconda3/envs/moose/x86_64-conda-linux-gnu/include/c++/10.4.0/bits/stl_pair.h
DA:211,0
LF:1
LH:0
end_of_record
SF:/usr/share/miniconda3/envs/moose/libmesh/include/libmesh/reference_counter.h
DA:152,0
LF:1
LH:0
end_of_record
SF:/home/runner/work/beaver/beaver/moose/framework/build/header_symlinks/AppFactory.h
FN:43,_ZN19AppFactoryBuildInfoI9BeaverAppE5buildERK15InputParameters
FNDA:0,_ZN19AppFactoryBuildInfoI9BeaverAppE5buildERK15InputParameters
FN:47,_ZN19AppFactoryBuildInfoI9BeaverAppE15buildParametersEv
FNDA:0,_ZN19AppFactoryBuildInfoI9BeaverAppE15buildParametersEv
FN:142,_ZN10AppFactory3regI9BeaverAppEEvRKNSt7__cxx1112basic_stringIcSt11char_traitsIcESaIcEEE
FNDA:0,_ZN10AppFactory3regI9BeaverAppEEvRKNSt7__cxx1112basic_stringIcSt11char_traitsIcESaIcEEE
FNF:3
FNH:0
DA:41,0
DA:43,0
DA:45,0
DA:47,0
DA:110,0
DA:142,0
DA:144,0
DA:147,0
LF:8
LH:0
end_of_record
SF:/usr/share/miniconda3/envs/moose/libmesh/include/libmesh/parameters.h
FN:85,_ZN7libMesh10ParametersD0Ev
FNDA:0,_ZN7libMesh10ParametersD0Ev
FN:85,_ZN7libMesh10ParametersD2Ev
FNDA:0,_ZN7libMesh10ParametersD2Ev
FN:138,_ZN7libMesh10Parameters14set_attributesERKNSt7__cxx1112basic_stringIcSt11char_traitsIcESaIcEEEb
FNDA:0,_ZN7libMesh10Parameters14set_attributesERKNSt7__cxx1112basic_stringIcSt11char_traitsIcESaIcEEEb
FN:295,_ZNK7libMesh10Parameters9ParameterIbE4typeB5cxx11Ev
FNDA:0,_ZNK7libMesh10Parameters9ParameterIbE4typeB5cxx11Ev
FN:303,_ZNK7libMesh10Parameters9ParameterIbE5printERSo
FNDA:0,_ZNK7libMesh10Parameters9ParameterIbE5printERSo
FN:311,_ZNK7libMesh10Parameters9ParameterIbE5cloneEv
FNDA:0,_ZNK7libMesh10Parameters9ParameterIbE5cloneEv
FN:324,_ZN7libMesh10Parameters5clearEv
FNDA:0,_ZN7libMesh10Parameters5clearEv
FN:332,_ZN7libMesh10ParametersaSERKS0_
FNDA:0,_ZN7libMesh10ParametersaSERKS0_
FN:341,_ZN7libMesh10ParameterspLERKS0_
FNDA:0,_ZN7libMesh10ParameterspLERKS0_
FN:395,_ZNK7libMesh10Parameters14have_parameterIbEEbSt17basic_string_viewIcSt11char_traitsIcEE
FNDA:0,_ZNK7libMesh10Parameters14have_parameterIbEEbSt17basic_string_viewIcSt11char_traitsIcEE
FN:469,_ZN7libMesh10Parameters3setIbEERT_RKNSt7__cxx1112basic_stringIcSt11char_traitsIcESaIcEEE
FNDA:0,_ZN7libMesh10Parameters3setIbEERT_RKNSt7__cxx1112basic_stringIcSt11char_traitsIcESaIcEEE
FNF:11
FNH:0
DA:85,0
DA:85,0
DA:85,0
DA:138,0
DA:206,0
DA:218,0
DA:295,0
DA:297,0
DA:303,0
DA:307,0
DA:311,0
DA:313,0
DA:315,0
DA:317,0
DA:324,0
DA:327,0
DA:332,0
DA:335,0
DA:337,0
DA:341,0
DA:344,0
DA:345,0
DA:347,0
DA:395,0
DA:399,0
DA:403,0
DA:404,0
DA:469,0
DA:471,0
DA:472,0
DA:474,0
DA:477,0
DA:480,0
DA:537,0
LF:34
LH:0
end_of_record
SF:/usr/share/miniconda3/envs/moose/x86_64-conda-linux-gnu/include/c++/10.4.0/bits/stl_iterator_base_funcs.h
DA:104,374
LF:1
LH:1
end_of_record
SF:/home/runner/work/beaver/beaver/src/base/BeaverApp.C
FN:8,_ZN9BeaverApp11validParamsEv
FNDA:17,_ZN9BeaverApp11validParamsEv
FN:18,_ZN9BeaverAppC2E15InputParameters
FNDA:0,_ZN9BeaverAppC2E15InputParameters
FN:23,_ZN9BeaverAppD0Ev
FNDA:0,_ZN9BeaverAppD0Ev
FN:23,_ZN9BeaverAppD2Ev
FNDA:0,_ZN9BeaverAppD2Ev
FN:26,_ZN9BeaverApp11registerAllER7FactoryR13ActionFactoryR6Syntax
FNDA:17,_ZN9BeaverApp11registerAllER7FactoryR13ActionFactoryR6Syntax
FN:40,_ZN9BeaverApp12registerAppsEv
FNDA:0,_ZN9BeaverApp12registerAppsEv
FN:49,BeaverApp__registerAll
FNDA:0,BeaverApp__registerAll
FN:54,BeaverApp__registerApps
FNDA:0,BeaverApp__registerApps
FNF:8
FNH:2
DA:8,17
DA:10,17
DA:13,17
DA:15,17
DA:18,0
DA:20,0
DA:21,0
DA:23,0
DA:23,0
DA:26,17
DA:29,51
DA:30,51
DA:33,34
DA:34,34
DA:35,34
DA:36,34
DA:37,17
DA:40,0
DA:42,0
DA:43,0
DA:49,0
DA:51,0
DA:52,0
DA:54,0
DA:56,0
DA:57,0
LF:26
LH:12
end_of_record
SF:/usr/share/miniconda3/envs/moose/x86_64-conda-linux-gnu/include/c++/10.4.0/bits/allocated_ptr.h
FN:70,_ZNSt15__allocated_ptrISaISt23_Sp_counted_ptr_inplaceI9BeaverAppSaIS1_ELN9__gnu_cxx12_Lock_policyE2EEEED2Ev
FNDA:0,_ZNSt15__allocated_ptrISaISt23_Sp_counted_ptr_inplaceI9BeaverAppSaIS1_ELN9__gnu_cxx12_Lock_policyE2EEEED2Ev
FNF:1
FNH:0
DA:52,0
DA:53,0
DA:70,0
DA:72,0
DA:74,0
DA:80,0
LF:6
LH:0
end_of_record
SF:/home/runner/work/beaver/beaver/moose/framework/build/header_symlinks/MooseApp.h
FN:110,_ZNK8MooseApp16getPrintableNameB5cxx11Ev
FNDA:0,_ZNK8MooseApp16getPrintableNameB5cxx11Ev
FN:112,_ZNK8MooseApp13appBinaryNameB5cxx11Ev
FNDA:0,_ZNK8MooseApp13appBinaryNameB5cxx11Ev
FN:732,_ZN8MooseApp9preBackupEv
FNDA:0,_ZN8MooseApp9preBackupEv
FN:766,_ZN8MooseApp11postRestoreEb
FNDA:0,_ZN8MooseApp11postRestoreEb
FN:1031,_ZNK8MooseApp34errorOnJacobianNonzeroReallocationEv
FNDA:0,_ZNK8MooseApp34errorOnJacobianNonzeroReallocationEv
FNF:5
FNH:0
DA:110,0
DA:112,0
DA:114,0
DA:115,0
DA:116,0
DA:117,0
DA:118,0
DA:732,0
DA:766,0
DA:1031,0
LF:10
LH:0
end_of_record
SF:/usr/share/miniconda3/envs/moose/x86_64-conda-linux-gnu/include/c++/10.4.0/bits/basic_string.tcc
FN:206,_ZNSt7__cxx1112basic_stringIcSt11char_traitsIcESaIcEE12_M_constructIPcEEvT_S7_St20forward_iterator_tag
FNDA:34,_ZNSt7__cxx1112basic_stringIcSt11char_traitsIcESaIcEE12_M_constructIPcEEvT_S7_St20forward_iterator_tag
FN:206,_ZNSt7__cxx1112basic_stringIcSt11char_traitsIcESaIcEE12_M_constructIPKcEEvT_S8_St20forward_iterator_tag
FNDA:340,_ZNSt7__cxx1112basic_stringIcSt11char_traitsIcESaIcEE12_M_constructIPKcEEvT_S8_St20forward_iterator_tag
FNF:2
FNH:2
DA:206,34
DA:211,34
DA:212,0
DA:215,34
DA:217,34
DA:219,0
DA:220,0
DA:232,34
DA:233,34
DA:206,340
DA:211,340
DA:212,0
DA:215,340
DA:217,340
DA:219,170
DA:220,170
DA:232,340
DA:233,340
LF:18
LH:14
end_of_record
SF:/usr/share/miniconda3/envs/moose/x86_64-conda-linux-gnu/include/c++/10.4.0/ostream
DA:175,0
LF:1
LH:0
end_of_record
SF:/usr/share/miniconda3/envs/moose/x86_64-conda-linux-gnu/include/c++/10.4.0/bits/unordered_map.h
DA:102,0
LF:1
LH:0
end_of_record
SF:/usr/share/miniconda3/envs/moose/x86_64-conda-linux-gnu/include/c++/10.4.0/initializer_list
DA:71,34
DA:79,34
LF:2
LH:2
end_of_record
SF:/usr/share/miniconda3/envs/moose/x86_64-conda-linux-gnu/include/c++/10.4.0/ext/aligned_buffer.h
DA:65,68
DA:69,0
DA:104,0
LF:3
LH:1
end_of_record
SF:/usr/share/miniconda3/envs/moose/x86_64-conda-linux-gnu/include/c++/10.4.0/bits/stl_function.h
FN:600,_ZNSt4lessIvE6_S_cmpIRKNSt7__cxx1112basic_stringIcSt11char_traitsIcESaIcEEERKSt17basic_string_viewIcS5_EEEDcOT_OT0_St17integral_constantIbLb0EE
FNDA:0,_ZNSt4lessIvE6_S_cmpIRKNSt7__cxx1112basic_stringIcSt11char_traitsIcESaIcEEERKSt17basic_string_viewIcS5_EEEDcOT_OT0_St17integral_constantIbLb0EE
FN:600,_ZNSt4lessIvE6_S_cmpIRKSt17basic_string_viewIcSt11char_traitsIcEERKNSt7__cxx1112basic_stringIcS4_SaIcEEEEEDcOT_OT0_St17integral_constantIbLb0EE
FNDA:0,_ZNSt4lessIvE6_S_cmpIRKSt17basic_string_viewIcSt11char_traitsIcEERKNSt7__cxx1112basic_stringIcS4_SaIcEEEEEDcOT_OT0_St17integral_constantIbLb0EE
FNF:2
FNH:0
DA:586,0
DA:600,0
DA:601,0
DA:600,0
DA:601,0
DA:1156,0
LF:6
LH:0
end_of_record
SF:/home/runner/work/beaver/beaver/moose/framework/build/header_symlinks/MooseError.h
FN:173,_ZN5moose8internal14mooseStreamAllINSt7__cxx1112basic_stringIcSt11char_traitsIcESaIcEEEJRA2_KcEEEvRNS2_19basic_ostringstreamIcS5_S6_EEOT_DpOT0_
FNDA:0,_ZN5moose8internal14mooseStreamAllINSt7__cxx1112basic_stringIcSt11char_traitsIcESaIcEEEJRA2_KcEEEvRNS2_19basic_ostringstreamIcS5_S6_EEOT_DpOT0_
FN:173,_ZN5moose8internal14mooseStreamAllINSt7__cxx1112basic_stringIcSt11char_traitsIcESaIcEEEJRA45_KcS7_RA2_S8_EEEvRNS2_19basic_ostringstreamIcS5_S6_EEOT_DpOT0_
FNDA:0,_ZN5moose8internal14mooseStreamAllINSt7__cxx1112basic_stringIcSt11char_traitsIcESaIcEEEJRA45_KcS7_RA2_S8_EEEvRNS2_19basic_ostringstreamIcS5_S6_EEOT_DpOT0_
FN:173,_ZN5moose8internal14mooseStreamAllIRKNSt7__cxx1112basic_stringIcSt11char_traitsIcESaIcEEEJRA14_KcS7_RA45_SA_S7_RA2_SA_EEEvRNS2_19basic_ostringstreamIcS5_S6_EEOT_DpOT0_
FNDA:0,_ZN5moose8internal14mooseStreamAllIRKNSt7__cxx1112basic_stringIcSt11char_traitsIcESaIcEEEJRA14_KcS7_RA45_SA_S7_RA2_SA_EEEvRNS2_19basic_ostringstreamIcS5_S6_EEOT_DpOT0_
FN:284,_Z10mooseErrorIJRA30_KcRKNSt7__cxx1112basic_stringIcSt11char_traitsIcESaIcEEERA14_S0_S8_RA45_S0_S8_RA2_S0_EEvDpOT_
FNDA:0,_Z10mooseErrorIJRA30_KcRKNSt7__cxx1112basic_stringIcSt11char_traitsIcESaIcEEERA14_S0_S8_RA45_S0_S8_RA2_S0_EEvDpOT_
FNF:4
FNH:0
DA:173,0
DA:175,0
DA:176,0
DA:177,0
DA:173,0
DA:175,0
DA:176,0
DA:177,0
DA:173,0
DA:175,0
DA:176,0
DA:177,0
DA:175,0
DA:176,0
DA:177,0
DA:284,0
DA:286,0
DA:288,0
LF:18
LH:0
end_of_record
SF:/usr/share/miniconda3/envs/moose/x86_64-conda-linux-gnu/include/c++/10.4.0/typeinfo
FN:120,_ZNKSt9type_infoeqERKS_
FNDA:0,_ZNKSt9type_infoeqERKS_
FNF:1
FNH:0
DA:100,0
DA:120,0
DA:122,0
DA:123,0
DA:124,0
LF:5
LH:0
end_of_record
SF:/usr/share/miniconda3/envs/moose/x86_64-conda-linux-gnu/include/c++/10.4.0/bits/unique_ptr.h
FN:165,_ZNSt15__uniq_ptr_implIN7libMesh10Parameters5ValueESt14default_deleteIS2_EEaSEOS5_
FNDA:0,_ZNSt15__uniq_ptr_implIN7libMesh10Parameters5ValueESt14default_deleteIS2_EEaSEOS5_
FN:355,_ZNSt10unique_ptrI23AppFactoryBuildInfoBaseSt14default_deleteIS0_EED2Ev
FNDA:0,_ZNSt10unique_ptrI23AppFactoryBuildInfoBaseSt14default_deleteIS0_EED2Ev
FN:355,_ZNSt10unique_ptrIN7libMesh10Parameters9ParameterIbEESt14default_deleteIS3_EED2Ev
FNDA:0,_ZNSt10unique_ptrIN7libMesh10Parameters9ParameterIbEESt14default_deleteIS3_EED2Ev
FN:355,_ZNSt10unique_ptrI19AppFactoryBuildInfoI9BeaverAppESt14default_deleteIS2_EED2Ev
FNDA:0,_ZNSt10unique_ptrI19AppFactoryBuildInfoI9BeaverAppESt14default_deleteIS2_EED2Ev
FN:355,_ZNSt10unique_ptrIN7libMesh10Parameters5ValueESt14default_deleteIS2_EED2Ev
FNDA:0,_ZNSt10unique_ptrIN7libMesh10Parameters5ValueESt14default_deleteIS2_EED2Ev
FN:386,_ZNSt10unique_ptrIN7libMesh10Parameters5ValueESt14default_deleteIS2_EEaSINS1_9ParameterIbEES3_IS8_EEENSt9enable_ifIXsrSt6__and_IJSB_IJSt14is_convertibleINS_IT_T0_E7pointerEPS2_ESt6__not_ISt8is_arrayISD_EEEESt13is_assignableIRS4_OSE_EEE5valueERS5_E4typeEOSF_
FNDA:0,_ZNSt10unique_ptrIN7libMesh10Parameters5ValueESt14default_deleteIS2_EEaSINS1_9ParameterIbEES3_IS8_EEENSt9enable_ifIXsrSt6__and_IJSB_IJSt14is_convertibleINS_IT_T0_E7pointerEPS2_ESt6__not_ISt8is_arrayISD_EEEESt13is_assignableIRS4_OSE_EEE5valueERS5_E4typeEOSF_
FN:386,_ZNSt10unique_ptrI23AppFactoryBuildInfoBaseSt14default_deleteIS0_EEaSI19AppFactoryBuildInfoI9BeaverAppES1_IS7_EEENSt9enable_ifIXsrSt6__and_IJSA_IJSt14is_convertibleINS_IT_T0_E7pointerEPS0_ESt6__not_ISt8is_arrayISC_EEEESt13is_assignableIRS2_OSD_EEE5valueERS3_E4typeEOSE_
FNDA:0,_ZNSt10unique_ptrI23AppFactoryBuildInfoBaseSt14default_deleteIS0_EEaSI19AppFactoryBuildInfoI9BeaverAppES1_IS7_EEENSt9enable_ifIXsrSt6__and_IJSA_IJSt14is_convertibleINS_IT_T0_E7pointerEPS0_ESt6__not_ISt8is_arrayISC_EEEESt13is_assignableIRS2_OSD_EEE5valueERS3_E4typeEOSE_
FN:961,_ZSt11make_uniqueIN7libMesh10Parameters9ParameterIbEEJEENSt9_MakeUniqIT_E15__single_objectEDpOT0_
FNDA:0,_ZSt11make_uniqueIN7libMesh10Parameters9ParameterIbEEJEENSt9_MakeUniqIT_E15__single_objectEDpOT0_
FN:961,_ZSt11make_uniqueI19AppFactoryBuildInfoI9BeaverAppEJEENSt9_MakeUniqIT_E15__single_objectEDpOT0_
FNDA:0,_ZSt11make_uniqueI19AppFactoryBuildInfoI9BeaverAppEJEENSt9_MakeUniqIT_E15__single_objectEDpOT0_
FNF:9
FNH:0
DA:85,0
DA:86,0
DA:155,0
DA:165,0
DA:169,0
DA:173,0
DA:179,0
DA:180,0
DA:181,0
DA:187,0
DA:188,0
DA:212,0
DA:355,0
DA:360,0
DA:363,0
DA:355,0
DA:360,0
DA:363,0
DA:355,0
DA:360,0
DA:363,0
DA:355,0
DA:360,0
DA:363,0
DA:386,0
DA:390,0
DA:386,0
DA:390,0
DA:961,0
DA:962,0
DA:961,0
DA:962,0
LF:32
LH:0
end_of_record
SF:/usr/share/miniconda3/envs/moose/x86_64-conda-linux-gnu/include/c++/10.4.0/bits/stl_multimap.h
DA:297,0
LF:1
LH:0
end_of_record
SF:/usr/share/miniconda3/envs/moose/x86_64-conda-linux-gnu/include/c++/10.4.0/bits/char_traits.h
DA:357,374
DA:374,0
DA:389,0
DA:399,340
LF:4
LH:2
end_of_record
SF:/usr/share/miniconda3/envs/moose/x86_64-conda-linux-gnu/include/c++/10.4.0/bits/std_function.h
FN:242,_ZNSt14_Function_baseD2Ev
FNDA:0,_ZNSt14_Function_baseD2Ev
FNF:1
FNH:0
DA:242,0
DA:243,0
DA:244,0
DA:245,0
DA:246,0
DA:303,0
LF:6
LH:0
end_of_record
SF:/home/runner/work/beaver/beaver/build/header_symlinks/BeaverApp.h
LF:0
LH:0
end_of_record
SF:/usr/share/miniconda3/envs/moose/x86_64-conda-linux-gnu/include/c++/10.4.0/bits/stl_set.h
FN:243,_ZNSt3setINSt7__cxx1112basic_stringIcSt11char_traitsIcESaIcEEESt4lessIS5_ESaIS5_EEC2ESt16initializer_listIS5_ERKS7_RKS8_
FNDA:34,_ZNSt3setINSt7__cxx1112basic_stringIcSt11char_traitsIcESaIcEEESt4lessIS5_ESaIS5_EEC2ESt16initializer_listIS5_ERKS7_RKS8_
FN:281,_ZNSt3setIsSt4lessIsESaIsEED2Ev
FNDA:0,_ZNSt3setIsSt4lessIsESaIsEED2Ev
FN:281,_ZNSt3setItSt4lessItESaItEED2Ev
FNDA:0,_ZNSt3setItSt4lessItESaItEED2Ev
FNF:3
FNH:1
DA:243,34
DA:246,34
DA:247,34
DA:281,0
DA:281,0
DA:281,34
LF:6
LH:4
end_of_record
SF:/usr/share/miniconda3/envs/moose/x86_64-conda-linux-gnu/include/c++/10.4.0/ext/new_allocator.h
FN:154,_ZN9__gnu_cxx13new_allocatorI9BeaverAppE9constructIS1_JRK15InputParametersEEEvPT_DpOT0_
FNDA:0,_ZN9__gnu_cxx13new_allocatorI9BeaverAppE9constructIS1_JRK15InputParametersEEEvPT_DpOT0_
FN:154,_ZN9__gnu_cxx13new_allocatorISt13_Rb_tree_nodeISt4pairIKNSt7__cxx1112basic_stringIcSt11char_traitsIcESaIcEEEN15InputParameters8MetadataEEEE9constructISC_JRKSt21piecewise_construct_tSt5tupleIJRS9_EESJ_IJEEEEEvPT_DpOT0_
FNDA:0,_ZN9__gnu_cxx13new_allocatorISt13_Rb_tree_nodeISt4pairIKNSt7__cxx1112basic_stringIcSt11char_traitsIcESaIcEEEN15InputParameters8MetadataEEEE9constructISC_JRKSt21piecewise_construct_tSt5tupleIJRS9_EESJ_IJEEEEEvPT_DpOT0_
FNF:2
FNH:0
DA:111,0
DA:112,0
DA:121,34
DA:139,34
DA:154,0
DA:156,0
DA:154,0
DA:156,0
DA:156,34
DA:162,0
LF:10
LH:3
end_of_record
SF:/usr/share/miniconda3/envs/moose/x86_64-conda-linux-gnu/include/c++/10.4.0/bits/stl_vector.h
FN:333,_ZNSt12_Vector_baseISt5tupleIJNSt7__cxx1112basic_stringIcSt11char_traitsIcESaIcEEEN5Moose23RelationshipManagerTypeESt8functionIFvRK15InputParametersRSA_EEEESaISG_EED2Ev
FNDA:0,_ZNSt12_Vector_baseISt5tupleIJNSt7__cxx1112basic_stringIcSt11char_traitsIcESaIcEEEN5Moose23RelationshipManagerTypeESt8functionIFvRK15InputParametersRSA_EEEESaISG_EED2Ev
FN:333,_ZNSt12_Vector_baseIdSaIdEED2Ev
FNDA:0,_ZNSt12_Vector_baseIdSaIdEED2Ev
FN:333,_ZNSt12_Vector_baseINSt7__cxx1112basic_stringIcSt11char_traitsIcESaIcEEESaIS5_EED2Ev
FNDA:0,_ZNSt12_Vector_baseINSt7__cxx1112basic_stringIcSt11char_traitsIcESaIcEEESaIS5_EED2Ev
FN:625,_ZNSt6vectorIdSaIdEEC2ESt16initializer_listIdERKS0_
FNDA:0,_ZNSt6vectorIdSaIdEEC2ESt16initializer_listIdERKS0_
FN:678,_ZNSt6vectorISt5tupleIJNSt7__cxx1112basic_stringIcSt11char_traitsIcESaIcEEEN5Moose23RelationshipManagerTypeESt8functionIFvRK15InputParametersRSA_EEEESaISG_EED2Ev
FNDA:0,_ZNSt6vectorISt5tupleIJNSt7__cxx1112basic_stringIcSt11char_traitsIcESaIcEEEN5Moose23RelationshipManagerTypeESt8functionIFvRK15InputParametersRSA_EEEESaISG_EED2Ev
FN:678,_ZNSt6vectorINSt7__cxx1112basic_stringIcSt11char_traitsIcESaIcEEESaIS5_EED2Ev
FNDA:0,_ZNSt6vectorINSt7__cxx1112basic_stringIcSt11char_traitsIcESaIcEEESaIS5_EED2Ev
FN:1577,_ZNSt6vectorIdSaIdEE19_M_range_initializeIPKdEEvT_S5_St20forward_iterator_tag
FNDA:0,_ZNSt6vectorIdSaIdEE19_M_range_initializeIPKdEEvT_S5_St20forward_iterator_tag
FNF:7
FNH:0
DA:97,0
DA:98,0
DA:277,0
DA:333,0
DA:336,0
DA:337,0
DA:333,0
DA:336,0
DA:337,0
DA:333,0
DA:336,0
DA:337,0
DA:346,0
DA:353,0
DA:625,0
DA:627,0
DA:629,0
DA:631,0
DA:678,0
DA:680,0
DA:683,0
DA:678,0
DA:680,0
DA:683,0
DA:1577,0
DA:1580,0
DA:1582,0
DA:1583,0
DA:1584,0
DA:1588,0
DA:1769,0
DA:1770,0
LF:32
LH:0
end_of_record
SF:/home/runner/work/beaver/beaver/moose/framework/build/header_symlinks/MooseTypes.h
LF:0
LH:0
end_of_record
SF:/usr/share/miniconda3/envs/moose/x86_64-conda-linux-gnu/include/c++/10.4.0/bits/stl_map.h
FN:492,_ZNSt3mapINSt7__cxx1112basic_stringIcSt11char_traitsIcESaIcEEESt10unique_ptrI23AppFactoryBuildInfoBaseSt14default_deleteIS7_EESt4lessIS5_ESaISt4pairIKS5_SA_EEEixERSE_
FNDA:0,_ZNSt3mapINSt7__cxx1112basic_stringIcSt11char_traitsIcESaIcEEESt10unique_ptrI23AppFactoryBuildInfoBaseSt14default_deleteIS7_EESt4lessIS5_ESaISt4pairIKS5_SA_EEEixERSE_
FN:492,_ZNSt3mapINSt7__cxx1112basic_stringIcSt11char_traitsIcESaIcEEEN15InputParameters8MetadataESt4lessIS5_ESaISt4pairIKS5_S7_EEEixERSB_
FNDA:0,_ZNSt3mapINSt7__cxx1112basic_stringIcSt11char_traitsIcESaIcEEEN15InputParameters8MetadataESt4lessIS5_ESaISt4pairIKS5_S7_EEEixERSB_
FN:492,_ZNSt3mapINSt7__cxx1112basic_stringIcSt11char_traitsIcESaIcEEESt10unique_ptrIN7libMesh10Parameters5ValueESt14default_deleteIS9_EESt4lessIvESaISt4pairIKS5_SC_EEEixERSG_
FNDA:0,_ZNSt3mapINSt7__cxx1112basic_stringIcSt11char_traitsIcESaIcEEESt10unique_ptrIN7libMesh10Parameters5ValueESt14default_deleteIS9_EESt4lessIvESaISt4pairIKS5_SC_EEEixERSG_
FN:1258,_ZNSt3mapINSt7__cxx1112basic_stringIcSt11char_traitsIcESaIcEEESt10unique_ptrI23AppFactoryBuildInfoBaseSt14default_deleteIS7_EESt4lessIS5_ESaISt4pairIKS5_SA_EEE11lower_boundERSE_
FNDA:0,_ZNSt3mapINSt7__cxx1112basic_stringIcSt11char_traitsIcESaIcEEESt10unique_ptrI23AppFactoryBuildInfoBaseSt14default_deleteIS7_EESt4lessIS5_ESaISt4pairIKS5_SA_EEE11lower_boundERSE_
FN:1258,_ZNSt3mapINSt7__cxx1112basic_stringIcSt11char_traitsIcESaIcEEEN15InputParameters8MetadataESt4lessIS5_ESaISt4pairIKS5_S7_EEE11lower_boundERSB_
FNDA:0,_ZNSt3mapINSt7__cxx1112basic_stringIcSt11char_traitsIcESaIcEEEN15InputParameters8MetadataESt4lessIS5_ESaISt4pairIKS5_S7_EEE11lower_boundERSB_
FN:1258,_ZNSt3mapINSt7__cxx1112basic_stringIcSt11char_traitsIcESaIcEEESt10unique_ptrIN7libMesh10Parameters5ValueESt14default_deleteIS9_EESt4lessIvESaISt4pairIKS5_SC_EEE11lower_boundERSG_
FNDA:0,_ZNSt3mapINSt7__cxx1112basic_stringIcSt11char_traitsIcESaIcEEESt10unique_ptrIN7libMesh10Parameters5ValueESt14default_deleteIS9_EESt4lessIvESaISt4pairIKS5_SC_EEE11lower_boundERSG_
FNF:6
FNH:0
DA:302,0
DA:492,0
DA:497,0
DA:499,0
DA:501,0
DA:502,0
DA:503,0
DA:507,0
DA:492,0
DA:497,0
DA:499,0
DA:501,0
DA:502,0
DA:503,0
DA:507,0
DA:492,0
DA:497,0
DA:499,0
DA:501,0
DA:502,0
DA:503,0
DA:507,0
DA:1134,0
DA:1195,0
DA:1201,0
DA:1216,0
DA:1258,0
DA:1259,0
DA:1258,0
DA:1259,0
DA:1258,0
DA:1259,0
LF:32
LH:0
end_of_record
TN:
SF:/home/runner/work/beaver/beaver/moose/framework/contrib/hit/parse.h
LF:0
LH:0
end_of_record
SF:/home/runner/work/beaver/beaver/src/main.C
FN:21,main
FNDA:17,main
FNF:1
FNH:1
DA:21,17
DA:24,17
DA:27,17
DA:30,34
DA:33,17
LF:5
LH:5
end_of_record
SF:/usr/share/miniconda3/envs/moose/libmesh/include/libmesh/threads_pthread.h
FN:146,_ZN7libMesh7Threads10spin_mutexD2Ev
FNDA:0,_ZN7libMesh7Threads10spin_mutexD2Ev
FNF:1
FNH:0
DA:146,0
LF:1
LH:0
end_of_record
SF:/usr/share/miniconda3/envs/moose/x86_64-conda-linux-gnu/include/c++/10.4.0/bits/stl_pair.h
DA:211,4674247
LF:1
LH:1
end_of_record
SF:/usr/share/miniconda3/envs/moose/x86_64-conda-linux-gnu/include/c++/10.4.0/bits/stl_tree.h
FN:613,_ZNSt8_Rb_treeINSt7__cxx1112basic_stringIcSt11char_traitsIcESaIcEEESt4pairIKS5_St10unique_ptrIN7libMesh10Parameters5ValueESt14default_deleteISB_EEESt10_Select1stISF_ESt4lessIvESaISF_EE17_M_construct_nodeIJRKSt21piecewise_construct_tSt5tupleIJRS7_EESQ_IJEEEEEvPSt13_Rb_tree_nodeISF_EDpOT_
FNDA:0,_ZNSt8_Rb_treeINSt7__cxx1112basic_stringIcSt11char_traitsIcESaIcEEESt4pairIKS5_St10unique_ptrIN7libMesh10Parameters5ValueESt14default_deleteISB_EEESt10_Select1stISF_ESt4lessIvESaISF_EE17_M_construct_nodeIJRKSt21piecewise_construct_tSt5tupleIJRS7_EESQ_IJEEEEEvPSt13_Rb_tree_nodeISF_EDpOT_
FN:632,_ZNSt8_Rb_treeINSt7__cxx1112basic_stringIcSt11char_traitsIcESaIcEEESt4pairIKS5_St10unique_ptrIN7libMesh10Parameters5ValueESt14default_deleteISB_EEESt10_Select1stISF_ESt4lessIvESaISF_EE14_M_create_nodeIJRKSt21piecewise_construct_tSt5tupleIJRS7_EESQ_IJEEEEEPSt13_Rb_tree_nodeISF_EDpOT_
FNDA:0,_ZNSt8_Rb_treeINSt7__cxx1112basic_stringIcSt11char_traitsIcESaIcEEESt4pairIKS5_St10unique_ptrIN7libMesh10Parameters5ValueESt14default_deleteISB_EEESt10_Select1stISF_ESt4lessIvESaISF_EE14_M_create_nodeIJRKSt21piecewise_construct_tSt5tupleIJRS7_EESQ_IJEEEEEPSt13_Rb_tree_nodeISF_EDpOT_
FN:652,_ZNSt8_Rb_treeINSt7__cxx1112basic_stringIcSt11char_traitsIcESaIcEEESt4pairIKS5_St10unique_ptrIN7libMesh10Parameters5ValueESt14default_deleteISB_EEESt10_Select1stISF_ESt4lessIvESaISF_EE12_M_drop_nodeEPSt13_Rb_tree_nodeISF_E
FNDA:4674247,_ZNSt8_Rb_treeINSt7__cxx1112basic_stringIcSt11char_traitsIcESaIcEEESt4pairIKS5_St10unique_ptrIN7libMesh10Parameters5ValueESt14default_deleteISB_EEESt10_Select1stISF_ESt4lessIvESaISF_EE12_M_drop_nodeEPSt13_Rb_tree_nodeISF_E
FN:1261,_ZNSt8_Rb_treeINSt7__cxx1112basic_stringIcSt11char_traitsIcESaIcEEESt4pairIKS5_St10unique_ptrIN7libMesh10Parameters5ValueESt14default_deleteISB_EEESt10_Select1stISF_ESt4lessIvESaISF_EE5clearEv
FNDA:0,_ZNSt8_Rb_treeINSt7__cxx1112basic_stringIcSt11char_traitsIcESaIcEEESt4pairIKS5_St10unique_ptrIN7libMesh10Parameters5ValueESt14default_deleteISB_EEESt10_Select1stISF_ESt4lessIvESaISF_EE5clearEv
FN:1918,_ZNSt8_Rb_treeIssSt9_IdentityIsESt4lessIsESaIsEE8_M_eraseEPSt13_Rb_tree_nodeIsE
FNDA:17,_ZNSt8_Rb_treeIssSt9_IdentityIsESt4lessIsESaIsEE8_M_eraseEPSt13_Rb_tree_nodeIsE
FN:1918,_ZNSt8_Rb_treeIttSt9_IdentityItESt4lessItESaItEE8_M_eraseEPSt13_Rb_tree_nodeItE
FNDA:17,_ZNSt8_Rb_treeIttSt9_IdentityItESt4lessItESaItEE8_M_eraseEPSt13_Rb_tree_nodeItE
FN:1918,_ZNSt8_Rb_treeINSt7__cxx1112basic_stringIcSt11char_traitsIcESaIcEEESt4pairIKS5_St10unique_ptrIN7libMesh10Parameters5ValueESt14default_deleteISB_EEESt10_Select1stISF_ESt4lessIvESaISF_EE8_M_eraseEPSt13_Rb_tree_nodeISF_E
FNDA:5323146,_ZNSt8_Rb_treeINSt7__cxx1112basic_stringIcSt11char_traitsIcESaIcEEESt4pairIKS5_St10unique_ptrIN7libMesh10Parameters5ValueESt14default_deleteISB_EEESt10_Select1stISF_ESt4lessIvESaISF_EE8_M_eraseEPSt13_Rb_tree_nodeISF_E
FN:1935,_ZNSt8_Rb_treeINSt7__cxx1112basic_stringIcSt11char_traitsIcESaIcEEESt4pairIKS5_St10unique_ptrIN7libMesh10Parameters5ValueESt14default_deleteISB_EEESt10_Select1stISF_ESt4lessIvESaISF_EE14_M_lower_boundEPSt13_Rb_tree_nodeISF_EPSt18_Rb_tree_node_baseRS7_
FNDA:0,_ZNSt8_Rb_treeINSt7__cxx1112basic_stringIcSt11char_traitsIcESaIcEEESt4pairIKS5_St10unique_ptrIN7libMesh10Parameters5ValueESt14default_deleteISB_EEESt10_Select1stISF_ESt4lessIvESaISF_EE14_M_lower_boundEPSt13_Rb_tree_nodeISF_EPSt18_Rb_tree_node_baseRS7_
FN:2096,_ZNSt8_Rb_treeINSt7__cxx1112basic_stringIcSt11char_traitsIcESaIcEEESt4pairIKS5_St10unique_ptrIN7libMesh10Parameters5ValueESt14default_deleteISB_EEESt10_Select1stISF_ESt4lessIvESaISF_EE24_M_get_insert_unique_posERS7_
FNDA:521587,_ZNSt8_Rb_treeINSt7__cxx1112basic_stringIcSt11char_traitsIcESaIcEEESt4pairIKS5_St10unique_ptrIN7libMesh10Parameters5ValueESt14default_deleteISB_EEESt10_Select1stISF_ESt4lessIvESaISF_EE24_M_get_insert_unique_posERS7_
FN:2198,_ZNSt8_Rb_treeINSt7__cxx1112basic_stringIcSt11char_traitsIcESaIcEEESt4pairIKS5_St10unique_ptrIN7libMesh10Parameters5ValueESt14default_deleteISB_EEESt10_Select1stISF_ESt4lessIvESaISF_EE29_M_get_insert_hint_unique_posESt23_Rb_tree_const_iteratorISF_ERS7_
FNDA:4678181,_ZNSt8_Rb_treeINSt7__cxx1112basic_stringIcSt11char_traitsIcESaIcEEESt4pairIKS5_St10unique_ptrIN7libMesh10Parameters5ValueESt14default_deleteISB_EEESt10_Select1stISF_ESt4lessIvESaISF_EE29_M_get_insert_hint_unique_posESt23_Rb_tree_const_iteratorISF_ERS7_
FN:2365,_ZNSt8_Rb_treeINSt7__cxx1112basic_stringIcSt11char_traitsIcESaIcEEESt4pairIKS5_St10unique_ptrIN7libMesh10Parameters5ValueESt14default_deleteISB_EEESt10_Select1stISF_ESt4lessIvESaISF_EE14_M_insert_nodeEPSt18_Rb_tree_node_baseSN_PSt13_Rb_tree_nodeISF_E
FNDA:0,_ZNSt8_Rb_treeINSt7__cxx1112basic_stringIcSt11char_traitsIcESaIcEEESt4pairIKS5_St10unique_ptrIN7libMesh10Parameters5ValueESt14default_deleteISB_EEESt10_Select1stISF_ESt4lessIvESaISF_EE14_M_insert_nodeEPSt18_Rb_tree_node_baseSN_PSt13_Rb_tree_nodeISF_E
FN:2463,_ZNSt8_Rb_treeINSt7__cxx1112basic_stringIcSt11char_traitsIcESaIcEEESt4pairIKS5_St10unique_ptrIN7libMesh10Parameters5ValueESt14default_deleteISB_EEESt10_Select1stISF_ESt4lessIvESaISF_EE22_M_emplace_hint_uniqueIJRKSt21piecewise_construct_tSt5tupleIJRS7_EESQ_IJEEEEESt17_Rb_tree_iteratorISF_ESt23_Rb_tree_const_iteratorISF_EDpOT_
FNDA:0,_ZNSt8_Rb_treeINSt7__cxx1112basic_stringIcSt11char_traitsIcESaIcEEESt4pairIKS5_St10unique_ptrIN7libMesh10Parameters5ValueESt14default_deleteISB_EEESt10_Select1stISF_ESt4lessIvESaISF_EE22_M_emplace_hint_uniqueIJRKSt21piecewise_construct_tSt5tupleIJRS7_EESQ_IJEEEEESt17_Rb_tree_iteratorISF_ESt23_Rb_tree_const_iteratorISF_EDpOT_
FNF:12
FNH:6
DA:208,0
DA:209,0
DA:210,0
DA:211,0
DA:287,0
DA:302,2753536
DA:303,1884
DA:350,0
DA:351,0
DA:355,4678181
DA:368,0
DA:369,0
DA:613,0
DA:622,0
DA:624,0
DA:626,0
DA:628,0
DA:632,0
DA:635,0
DA:636,0
DA:647,4674247
DA:652,4674247
DA:656,4674247
DA:751,521621
DA:762,5199768
DA:792,6436
DA:800,6176
DA:993,34
DA:1005,520543
DA:1009,0
DA:1013,0
DA:1017,0
DA:1041,1043232
DA:1261,0
DA:1263,0
DA:1265,0
DA:1279,0
DA:1918,17
DA:1922,17
DA:1924,0
DA:1929,17
DA:1918,17
DA:1922,17
DA:1924,0
DA:1929,17
DA:1918,5323146
DA:1922,9997393
DA:1924,4674247
DA:1926,4674247
DA:1929,5323146
DA:1935,0
DA:1939,0
DA:1940,0
DA:1944,0
DA:2096,521587
DA:2103,534199
DA:2107,12612
DA:2110,521587
DA:2112,520543
DA:2113,518659
DA:2117,2928
DA:2118,2204
DA:2119,724
DA:2198,4678181
DA:2206,4678181
DA:2209,1043232
DA:2210,524573
DA:2212,518659
DA:2214,3634949
DA:2218,3634949
DA:2219,881413
DA:2220,2753536
DA:2222,2753536
DA:2223,1739357
DA:2225,1014179
DA:2228,0
DA:2230,0
DA:2234,0
DA:2235,0
DA:2236,0
DA:2238,0
DA:2239,0
DA:2241,0
DA:2244,0
DA:2248,0
DA:2365,0
DA:2368,0
DA:2369,0
DA:2372,0
DA:2373,0
DA:2374,0
DA:2375,0
DA:2463,0
DA:2466,0
DA:2470,0
DA:2472,0
DA:2473,0
DA:2475,0
DA:2476,0
LF:99
LH:45
end_of_record
SF:/usr/share/miniconda3/envs/moose/x86_64-conda-linux-gnu/include/c++/10.4.0/ext/atomicity.h
DA:50,32
DA:68,0
DA:69,0
DA:83,32
DA:84,32
DA:86,0
LF:6
LH:3
end_of_record
SF:/usr/share/miniconda3/envs/moose/x86_64-conda-linux-gnu/include/c++/10.4.0/bits/basic_string.h
FN:533,_ZNSt7__cxx1112basic_stringIcSt11char_traitsIcESaIcEEC2IS3_EEPKcRKS3_
FNDA:51,_ZNSt7__cxx1112basic_stringIcSt11char_traitsIcESaIcEEC2IS3_EEPKcRKS3_
FNF:1
FNH:1
DA:164,51
DA:165,51
DA:187,0
DA:191,51
DA:195,102
DA:201,51
DA:219,0
DA:225,51
DA:401,0
DA:406,51
DA:533,51
DA:536,51
DA:539,51
DA:540,51
DA:671,4674264
DA:6292,6928598
LF:16
LH:13
end_of_record
SF:/usr/share/miniconda3/envs/moose/libmesh/include/timpi/message_tag.h
LF:0
LH:0
end_of_record
SF:/usr/share/miniconda3/envs/moose/x86_64-conda-linux-gnu/include/c++/10.4.0/bits/alloc_traits.h
DA:492,0
LF:1
LH:0
end_of_record
SF:/usr/share/miniconda3/envs/moose/x86_64-conda-linux-gnu/include/c++/10.4.0/bits/shared_ptr_base.h
FN:134,_ZNSt16_Sp_counted_baseILN9__gnu_cxx12_Lock_policyE2EE10_M_destroyEv
FNDA:0,_ZNSt16_Sp_counted_baseILN9__gnu_cxx12_Lock_policyE2EE10_M_destroyEv
FN:151,_ZNSt16_Sp_counted_baseILN9__gnu_cxx12_Lock_policyE2EE10_M_releaseEv
FNDA:16,_ZNSt16_Sp_counted_baseILN9__gnu_cxx12_Lock_policyE2EE10_M_releaseEv
FN:407,_ZNSt15_Sp_counted_ptrIDnLN9__gnu_cxx12_Lock_policyE2EE10_M_disposeEv
FNDA:0,_ZNSt15_Sp_counted_ptrIDnLN9__gnu_cxx12_Lock_policyE2EE10_M_disposeEv
FN:555,_ZNSt23_Sp_counted_ptr_inplaceISt5mutexSaIS0_ELN9__gnu_cxx12_Lock_policyE2EED0Ev
FNDA:0,_ZNSt23_Sp_counted_ptr_inplaceISt5mutexSaIS0_ELN9__gnu_cxx12_Lock_policyE2EED0Ev
FN:555,_ZNSt23_Sp_counted_ptr_inplaceISt5mutexSaIS0_ELN9__gnu_cxx12_Lock_policyE2EED2Ev
FNDA:0,_ZNSt23_Sp_counted_ptr_inplaceISt5mutexSaIS0_ELN9__gnu_cxx12_Lock_policyE2EED2Ev
FN:555,_ZNSt23_Sp_counted_ptr_inplaceINSt13__future_base13_State_baseV2ESaIS1_ELN9__gnu_cxx12_Lock_policyE2EED0Ev
FNDA:0,_ZNSt23_Sp_counted_ptr_inplaceINSt13__future_base13_State_baseV2ESaIS1_ELN9__gnu_cxx12_Lock_policyE2EED0Ev
FN:555,_ZNSt23_Sp_counted_ptr_inplaceINSt13__future_base13_State_baseV2ESaIS1_ELN9__gnu_cxx12_Lock_policyE2EED2Ev
FNDA:0,_ZNSt23_Sp_counted_ptr_inplaceINSt13__future_base13_State_baseV2ESaIS1_ELN9__gnu_cxx12_Lock_policyE2EED2Ev
FN:558,_ZNSt23_Sp_counted_ptr_inplaceISt5mutexSaIS0_ELN9__gnu_cxx12_Lock_policyE2EE10_M_disposeEv
FNDA:0,_ZNSt23_Sp_counted_ptr_inplaceISt5mutexSaIS0_ELN9__gnu_cxx12_Lock_policyE2EE10_M_disposeEv
FN:558,_ZNSt23_Sp_counted_ptr_inplaceINSt13__future_base13_State_baseV2ESaIS1_ELN9__gnu_cxx12_Lock_policyE2EE10_M_disposeEv
FNDA:0,_ZNSt23_Sp_counted_ptr_inplaceINSt13__future_base13_State_baseV2ESaIS1_ELN9__gnu_cxx12_Lock_policyE2EE10_M_disposeEv
FN:565,_ZNSt23_Sp_counted_ptr_inplaceISt5mutexSaIS0_ELN9__gnu_cxx12_Lock_policyE2EE10_M_destroyEv
FNDA:0,_ZNSt23_Sp_counted_ptr_inplaceISt5mutexSaIS0_ELN9__gnu_cxx12_Lock_policyE2EE10_M_destroyEv
FN:565,_ZNSt23_Sp_counted_ptr_inplaceINSt13__future_base13_State_baseV2ESaIS1_ELN9__gnu_cxx12_Lock_policyE2EE10_M_destroyEv
FNDA:0,_ZNSt23_Sp_counted_ptr_inplaceINSt13__future_base13_State_baseV2ESaIS1_ELN9__gnu_cxx12_Lock_policyE2EE10_M_destroyEv
FNF:11
FNH:1
DA:134,0
DA:135,0
DA:151,16
DA:155,32
DA:158,16
DA:170,32
DA:174,16
DA:177,16
DA:407,0
DA:555,0
DA:555,0
DA:555,0
DA:555,0
DA:555,0
DA:558,0
DA:561,0
DA:558,0
DA:561,0
DA:565,0
DA:568,0
DA:570,0
DA:565,0
DA:568,0
DA:570,0
DA:735,16
DA:736,16
DA:1330,17
LF:27
LH:9
end_of_record
SF:/usr/share/miniconda3/envs/moose/x86_64-conda-linux-gnu/include/c++/10.4.0/iostream
LF:0
LH:0
end_of_record
SF:/usr/share/miniconda3/envs/moose/x86_64-conda-linux-gnu/include/c++/10.4.0/tuple
DA:132,0
DA:133,0
DA:135,0
DA:136,0
DA:176,0
DA:1702,0
DA:1706,0
LF:7
LH:0
end_of_record
SF:/usr/share/miniconda3/envs/moose/x86_64-conda-linux-gnu/include/c++/10.4.0/utility
DA:189,0
LF:1
LH:0
end_of_record
SF:/usr/share/miniconda3/envs/moose/x86_64-conda-linux-gnu/include/c++/10.4.0/bits/shared_ptr.h
DA:121,16
LF:1
LH:1
end_of_record
SF:/home/runner/work/beaver/beaver/moose/framework/build/header_symlinks/MooseError.h
LF:0
LH:0
end_of_record
SF:/usr/share/miniconda3/envs/moose/x86_64-conda-linux-gnu/include/c++/10.4.0/bits/unique_ptr.h
FN:165,_ZNSt15__uniq_ptr_implIN7libMesh10Parameters5ValueESt14default_deleteIS2_EEaSEOS5_
FNDA:0,_ZNSt15__uniq_ptr_implIN7libMesh10Parameters5ValueESt14default_deleteIS2_EEaSEOS5_
FN:355,_ZNSt10unique_ptrINSt13__future_base12_Result_baseENS1_8_DeleterEED2Ev
FNDA:0,_ZNSt10unique_ptrINSt13__future_base12_Result_baseENS1_8_DeleterEED2Ev
FN:355,_ZNSt10unique_ptrIN7libMesh10Parameters5ValueESt14default_deleteIS2_EED2Ev
FNDA:4674247,_ZNSt10unique_ptrIN7libMesh10Parameters5ValueESt14default_deleteIS2_EED2Ev
FNF:3
FNH:1
DA:85,4674247
DA:86,4674247
DA:165,0
DA:169,0
DA:173,0
DA:179,0
DA:180,0
DA:181,0
DA:187,0
DA:188,0
DA:212,0
DA:355,0
DA:360,0
DA:363,0
DA:355,4674247
DA:360,4674247
DA:363,4674247
LF:17
LH:5
end_of_record
SF:/usr/share/miniconda3/envs/moose/x86_64-conda-linux-gnu/include/c++/10.4.0/bits/stl_set.h
FN:281,_ZNSt3setIsSt4lessIsESaIsEED2Ev
FNDA:17,_ZNSt3setIsSt4lessIsESaIsEED2Ev
FN:281,_ZNSt3setItSt4lessItESaItEED2Ev
FNDA:17,_ZNSt3setItSt4lessItESaItEED2Ev
FNF:2
FNH:2
DA:281,17
DA:281,17
LF:2
LH:2
end_of_record
SF:/usr/share/miniconda3/envs/moose/x86_64-conda-linux-gnu/include/c++/10.4.0/bits/char_traits.h
DA:357,51
DA:399,51
LF:2
LH:2
end_of_record
SF:/home/runner/work/beaver/beaver/moose/framework/build/header_symlinks/MooseInit.h
FN:27,_ZN9MooseInitD0Ev
FNDA:0,_ZN9MooseInitD0Ev
FN:27,_ZN9MooseInitD2Ev
FNDA:0,_ZN9MooseInitD2Ev
FNF:2
FNH:0
DA:27,0
DA:27,0
DA:27,16
LF:3
LH:1
end_of_record
SF:/usr/share/miniconda3/envs/moose/x86_64-conda-linux-gnu/include/c++/10.4.0/ext/new_allocator.h
DA:121,0
DA:139,4674247
DA:162,0
LF:3
LH:1
end_of_record
SF:/home/runner/work/beaver/beaver/moose/framework/build/header_symlinks/MooseTypes.h
LF:0
LH:0
end_of_record
SF:/usr/share/miniconda3/envs/moose/x86_64-conda-linux-gnu/include/c++/10.4.0/bits/stl_map.h
FN:492,_ZNSt3mapINSt7__cxx1112basic_stringIcSt11char_traitsIcESaIcEEESt10unique_ptrIN7libMesh10Parameters5ValueESt14default_deleteIS9_EESt4lessIvESaISt4pairIKS5_SC_EEEixERSG_
FNDA:0,_ZNSt3mapINSt7__cxx1112basic_stringIcSt11char_traitsIcESaIcEEESt10unique_ptrIN7libMesh10Parameters5ValueESt14default_deleteIS9_EESt4lessIvESaISt4pairIKS5_SC_EEEixERSG_
FN:1258,_ZNSt3mapINSt7__cxx1112basic_stringIcSt11char_traitsIcESaIcEEESt10unique_ptrIN7libMesh10Parameters5ValueESt14default_deleteIS9_EESt4lessIvESaISt4pairIKS5_SC_EEE11lower_boundERSG_
FNDA:0,_ZNSt3mapINSt7__cxx1112basic_stringIcSt11char_traitsIcESaIcEEESt10unique_ptrIN7libMesh10Parameters5ValueESt14default_deleteIS9_EESt4lessIvESaISt4pairIKS5_SC_EEE11lower_boundERSG_
FNF:2
FNH:0
DA:302,0
DA:492,0
DA:497,0
DA:499,0
DA:501,0
DA:502,0
DA:503,0
DA:507,0
DA:1134,0
DA:1258,0
DA:1259,0
LF:11
LH:0
end_of_record
SF:/usr/share/miniconda3/envs/moose/libmesh/include/libmesh/parameters.h
FN:85,_ZN7libMesh10ParametersD0Ev
FNDA:0,_ZN7libMesh10ParametersD0Ev
FN:85,_ZN7libMesh10ParametersD2Ev
FNDA:0,_ZN7libMesh10ParametersD2Ev
FN:138,_ZN7libMesh10Parameters14set_attributesERKNSt7__cxx1112basic_stringIcSt11char_traitsIcESaIcEEEb
FNDA:364,_ZN7libMesh10Parameters14set_attributesERKNSt7__cxx1112basic_stringIcSt11char_traitsIcESaIcEEEb
FN:324,_ZN7libMesh10Parameters5clearEv
FNDA:0,_ZN7libMesh10Parameters5clearEv
FN:332,_ZN7libMesh10ParametersaSERKS0_
FNDA:0,_ZN7libMesh10ParametersaSERKS0_
FN:341,_ZN7libMesh10ParameterspLERKS0_
FNDA:0,_ZN7libMesh10ParameterspLERKS0_
FNF:6
FNH:1
DA:85,0
DA:85,0
DA:138,364
DA:324,0
DA:327,0
DA:332,0
DA:335,0
DA:337,0
DA:341,0
DA:344,0
DA:345,0
DA:347,0
LF:12
LH:1
end_of_record
SF:/usr/share/miniconda3/envs/moose/x86_64-conda-linux-gnu/include/c++/10.4.0/bits/stl_iterator_base_funcs.h
DA:104,51
LF:1
LH:1
end_of_record
SF:/usr/share/miniconda3/envs/moose/x86_64-conda-linux-gnu/include/c++/10.4.0/bits/basic_string.tcc
FN:206,_ZNSt7__cxx1112basic_stringIcSt11char_traitsIcESaIcEE12_M_constructIPcEEvT_S7_St20forward_iterator_tag
FNDA:0,_ZNSt7__cxx1112basic_stringIcSt11char_traitsIcESaIcEE12_M_constructIPcEEvT_S7_St20forward_iterator_tag
FN:206,_ZNSt7__cxx1112basic_stringIcSt11char_traitsIcESaIcEE12_M_constructIPKcEEvT_S8_St20forward_iterator_tag
FNDA:51,_ZNSt7__cxx1112basic_stringIcSt11char_traitsIcESaIcEE12_M_constructIPKcEEvT_S8_St20forward_iterator_tag
FNF:2
FNH:1
DA:206,0
DA:211,0
DA:212,0
DA:215,0
DA:217,0
DA:219,0
DA:220,0
DA:232,0
DA:233,0
DA:206,51
DA:211,51
DA:212,0
DA:215,51
DA:217,51
DA:219,0
DA:220,0
DA:232,51
DA:233,51
LF:18
LH:6
end_of_record
SF:/usr/share/miniconda3/envs/moose/x86_64-conda-linux-gnu/include/c++/10.4.0/bits/allocated_ptr.h
FN:70,_ZNSt15__allocated_ptrISaISt23_Sp_counted_ptr_inplaceINSt13__future_base13_State_baseV2ESaIS2_ELN9__gnu_cxx12_Lock_policyE2EEEED2Ev
FNDA:0,_ZNSt15__allocated_ptrISaISt23_Sp_counted_ptr_inplaceINSt13__future_base13_State_baseV2ESaIS2_ELN9__gnu_cxx12_Lock_policyE2EEEED2Ev
FN:70,_ZNSt15__allocated_ptrISaISt23_Sp_counted_ptr_inplaceISt5mutexSaIS1_ELN9__gnu_cxx12_Lock_policyE2EEEED2Ev
FNDA:0,_ZNSt15__allocated_ptrISaISt23_Sp_counted_ptr_inplaceISt5mutexSaIS1_ELN9__gnu_cxx12_Lock_policyE2EEEED2Ev
FNF:2
FNH:0
DA:52,0
DA:53,0
DA:70,0
DA:72,0
DA:74,0
DA:70,0
DA:72,0
DA:74,0
LF:8
LH:0
end_of_record
SF:/usr/share/miniconda3/envs/moose/x86_64-conda-linux-gnu/include/c++/10.4.0/future
FN:328,_ZNSt13__future_base13_State_baseV2D0Ev
FNDA:0,_ZNSt13__future_base13_State_baseV2D0Ev
FN:328,_ZNSt13__future_base13_State_baseV2D2Ev
FNDA:0,_ZNSt13__future_base13_State_baseV2D2Ev
FN:581,_ZNSt13__future_base13_State_baseV217_M_complete_asyncEv
FNDA:0,_ZNSt13__future_base13_State_baseV217_M_complete_asyncEv
FN:584,_ZNKSt13__future_base13_State_baseV221_M_is_deferred_futureEv
FNDA:0,_ZNKSt13__future_base13_State_baseV221_M_is_deferred_futureEv
FN:663,_ZNSt13__future_base7_ResultIvE10_M_destroyEv
FNDA:0,_ZNSt13__future_base7_ResultIvE10_M_destroyEv
FNF:5
FNH:0
DA:213,0
DA:328,0
DA:328,0
DA:581,0
DA:584,0
DA:663,0
LF:6
LH:0
end_of_record
SF:/usr/share/miniconda3/envs/moose/x86_64-conda-linux-gnu/include/c++/10.4.0/bits/stl_function.h
DA:1156,6928598
LF:1
LH:1
end_of_record
SF:/usr/share/miniconda3/envs/moose/x86_64-conda-linux-gnu/include/c++/10.4.0/ext/aligned_buffer.h
DA:104,0
LF:1
LH:0
end_of_record
TN:
SF:/usr/share/miniconda3/envs/moose/x86_64-conda-linux-gnu/include/c++/10.4.0/bits/stl_construct.h
FN:149,_ZNSt12_Destroy_auxILb0EE9__destroyIPSt10shared_ptrI17RegistryEntryBaseEEEvT_S6_
FNDA:0,_ZNSt12_Destroy_auxILb0EE9__destroyIPSt10shared_ptrI17RegistryEntryBaseEEEvT_S6_
FN:149,_ZNSt12_Destroy_auxILb0EE9__destroyIPSt5tupleIJNSt7__cxx1112basic_stringIcSt11char_traitsIcESaIcEEEN5Moose23RelationshipManagerTypeESt8functionIFvRK15InputParametersRSC_EEEEEEvT_SK_
FNDA:0,_ZNSt12_Destroy_auxILb0EE9__destroyIPSt5tupleIJNSt7__cxx1112basic_stringIcSt11char_traitsIcESaIcEEEN5Moose23RelationshipManagerTypeESt8functionIFvRK15InputParametersRSC_EEEEEEvT_SK_
FN:149,_ZNSt12_Destroy_auxILb0EE9__destroyIPSt3setIP18MooseVariableFieldIdESt4lessIS5_ESaIS5_EEEEvT_SB_
FNDA:0,_ZNSt12_Destroy_auxILb0EE9__destroyIPSt3setIP18MooseVariableFieldIdESt4lessIS5_ESaIS5_EEEEvT_SB_
FNF:3
FNH:0
DA:140,0
DA:149,0
DA:151,0
DA:153,0
DA:149,0
DA:151,0
DA:153,0
DA:149,0
DA:151,0
DA:153,0
DA:151,40
DA:185,0
LF:12
LH:1
end_of_record
SF:/home/runner/work/beaver/beaver/moose/framework/build/header_symlinks/MooseEnumItem.h
DA:24,0
LF:1
LH:0
end_of_record
SF:/home/runner/work/beaver/beaver/build/header_symlinks/BVPressureBC.h
LF:0
LH:0
end_of_record
SF:/usr/share/miniconda3/envs/moose/libmesh/include/libmesh/threads_pthread.h
FN:146,_ZN7libMesh7Threads10spin_mutexD2Ev
FNDA:0,_ZN7libMesh7Threads10spin_mutexD2Ev
FN:504,_ZN7libMesh7Threads6atomicIjEppEv
FNDA:218239,_ZN7libMesh7Threads6atomicIjEppEv
FN:518,_ZN7libMesh7Threads6atomicIjEmmEv
FNDA:487663,_ZN7libMesh7Threads6atomicIjEmmEv
FNF:3
FNH:2
DA:146,0
DA:148,705902
DA:149,705902
DA:504,218239
DA:507,218239
DA:508,218239
DA:518,487663
DA:521,487663
DA:522,487663
LF:9
LH:8
end_of_record
SF:/home/runner/work/beaver/beaver/moose/framework/build/header_symlinks/Coupleable.h
FN:134,_ZNK10Coupleable15coupledCallbackERKNSt7__cxx1112basic_stringIcSt11char_traitsIcESaIcEEEb
FNDA:0,_ZNK10Coupleable15coupledCallbackERKNSt7__cxx1112basic_stringIcSt11char_traitsIcESaIcEEEb
FNF:1
FNH:0
DA:134,0
LF:1
LH:0
end_of_record
SF:/home/runner/work/beaver/beaver/moose/framework/contrib/hit/parse.h
LF:0
LH:0
end_of_record
SF:/home/runner/work/beaver/beaver/moose/framework/build/header_symlinks/MaterialPropertyInterface.h
LF:0
LH:0
end_of_record
SF:/usr/share/miniconda3/envs/moose/libmesh/include/libmesh/remote_elem.h
FN:119,_ZNK7libMesh10RemoteElem7n_nodesEv
FNDA:0,_ZNK7libMesh10RemoteElem7n_nodesEv
FN:137,_ZNK7libMesh10RemoteElem9is_vertexEj
FNDA:0,_ZNK7libMesh10RemoteElem9is_vertexEj
FN:204,_ZNK7libMesh10RemoteElem13default_orderEv
FNDA:0,_ZNK7libMesh10RemoteElem13default_orderEv
FNF:3
FNH:0
DA:119,0
DA:120,0
DA:137,0
DA:138,0
DA:204,0
DA:205,0
LF:6
LH:0
end_of_record
SF:/usr/share/miniconda3/envs/moose/libmesh/include/libmesh/reference_counter.h
DA:152,218239
LF:1
LH:1
end_of_record
SF:/usr/share/miniconda3/envs/moose/x86_64-conda-linux-gnu/include/c++/10.4.0/bits/stl_uninitialized.h
DA:1013,0
LF:1
LH:0
end_of_record
SF:/home/runner/work/beaver/beaver/moose/framework/build/header_symlinks/IntegratedBC.h
FN:25,_ZNK12IntegratedBC8variableEv
FNDA:70868,_ZNK12IntegratedBC8variableEv
FN:49,_ZN12IntegratedBC17computeQpJacobianEv
FNDA:2015232,_ZN12IntegratedBC17computeQpJacobianEv
FN:54,_ZN12IntegratedBC24computeQpOffDiagJacobianEj
FNDA:4030464,_ZN12IntegratedBC24computeQpOffDiagJacobianEj
FN:59,_ZN12IntegratedBC30computeQpOffDiagJacobianScalarEj
FNDA:0,_ZN12IntegratedBC30computeQpOffDiagJacobianScalarEj
FN:68,_ZN12IntegratedBC22precalculateQpResidualEv
FNDA:59136,_ZN12IntegratedBC22precalculateQpResidualEv
FN:74,_ZN12IntegratedBC22precalculateQpJacobianEv
FNDA:31488,_ZN12IntegratedBC22precalculateQpJacobianEv
FN:80,_ZN12IntegratedBC29precalculateQpOffDiagJacobianERK22MooseVariableFieldBase
FNDA:62976,_ZN12IntegratedBC29precalculateQpOffDiagJacobianERK22MooseVariableFieldBase
FNF:7
FNH:6
DA:25,70868
DA:49,2015232
DA:54,4030464
DA:59,0
DA:62,0
DA:68,59136
DA:74,31488
DA:80,62976
LF:8
LH:6
end_of_record
SF:/usr/share/miniconda3/envs/moose/x86_64-conda-linux-gnu/include/c++/10.4.0/ext/atomicity.h
DA:50,0
DA:55,34
DA:68,0
DA:69,0
DA:76,0
DA:83,0
DA:84,0
DA:86,0
DA:94,34
DA:97,34
LF:10
LH:3
end_of_record
SF:/home/runner/work/beaver/beaver/moose/framework/build/header_symlinks/MooseArray.h
DA:55,0
DA:278,0
LF:2
LH:0
end_of_record
SF:/usr/share/miniconda3/envs/moose/x86_64-conda-linux-gnu/include/c++/10.4.0/string_view
FN:288,_ZNKSt17basic_string_viewIcSt11char_traitsIcEE7compareES2_
FNDA:0,_ZNKSt17basic_string_viewIcSt11char_traitsIcEE7compareES2_
FNF:1
FNH:0
DA:288,0
DA:290,0
DA:291,0
DA:292,0
DA:294,0
DA:463,0
DA:464,0
DA:466,0
DA:468,0
DA:552,0
DA:558,0
DA:623,0
LF:12
LH:0
end_of_record
SF:/usr/share/miniconda3/envs/moose/x86_64-conda-linux-gnu/include/c++/10.4.0/bits/stl_tree.h
FN:613,_ZNSt8_Rb_treeINSt7__cxx1112basic_stringIcSt11char_traitsIcESaIcEEESt4pairIKS5_St10unique_ptrIN7libMesh10Parameters5ValueESt14default_deleteISB_EEESt10_Select1stISF_ESt4lessIvESaISF_EE17_M_construct_nodeIJRKSt21piecewise_construct_tSt5tupleIJRS7_EESQ_IJEEEEEvPSt13_Rb_tree_nodeISF_EDpOT_
FNDA:0,_ZNSt8_Rb_treeINSt7__cxx1112basic_stringIcSt11char_traitsIcESaIcEEESt4pairIKS5_St10unique_ptrIN7libMesh10Parameters5ValueESt14default_deleteISB_EEESt10_Select1stISF_ESt4lessIvESaISF_EE17_M_construct_nodeIJRKSt21piecewise_construct_tSt5tupleIJRS7_EESQ_IJEEEEEvPSt13_Rb_tree_nodeISF_EDpOT_
FN:613,_ZNSt8_Rb_treeINSt7__cxx1112basic_stringIcSt11char_traitsIcESaIcEEESt4pairIKS5_St6vectorISt10shared_ptrI17RegistryEntryBaseESaISB_EEESt10_Select1stISE_ESt4lessIS5_ESaISE_EE17_M_construct_nodeIJRKSt21piecewise_construct_tSt5tupleIJRS7_EESP_IJEEEEEvPSt13_Rb_tree_nodeISE_EDpOT_
FNDA:0,_ZNSt8_Rb_treeINSt7__cxx1112basic_stringIcSt11char_traitsIcESaIcEEESt4pairIKS5_St6vectorISt10shared_ptrI17RegistryEntryBaseESaISB_EEESt10_Select1stISE_ESt4lessIS5_ESaISE_EE17_M_construct_nodeIJRKSt21piecewise_construct_tSt5tupleIJRS7_EESP_IJEEEEEvPSt13_Rb_tree_nodeISE_EDpOT_
FN:613,_ZNSt8_Rb_treeINSt7__cxx1112basic_stringIcSt11char_traitsIcESaIcEEESt4pairIKS5_N15InputParameters8MetadataEESt10_Select1stISA_ESt4lessIS5_ESaISA_EE17_M_construct_nodeIJRKSt21piecewise_construct_tSt5tupleIJRS7_EESL_IJEEEEEvPSt13_Rb_tree_nodeISA_EDpOT_
FNDA:88666,_ZNSt8_Rb_treeINSt7__cxx1112basic_stringIcSt11char_traitsIcESaIcEEESt4pairIKS5_N15InputParameters8MetadataEESt10_Select1stISA_ESt4lessIS5_ESaISA_EE17_M_construct_nodeIJRKSt21piecewise_construct_tSt5tupleIJRS7_EESL_IJEEEEEvPSt13_Rb_tree_nodeISA_EDpOT_
FN:632,_ZNSt8_Rb_treeINSt7__cxx1112basic_stringIcSt11char_traitsIcESaIcEEESt4pairIKS5_N15InputParameters8MetadataEESt10_Select1stISA_ESt4lessIS5_ESaISA_EE14_M_create_nodeIJRKSt21piecewise_construct_tSt5tupleIJRS7_EESL_IJEEEEEPSt13_Rb_tree_nodeISA_EDpOT_
FNDA:88666,_ZNSt8_Rb_treeINSt7__cxx1112basic_stringIcSt11char_traitsIcESaIcEEESt4pairIKS5_N15InputParameters8MetadataEESt10_Select1stISA_ESt4lessIS5_ESaISA_EE14_M_create_nodeIJRKSt21piecewise_construct_tSt5tupleIJRS7_EESL_IJEEEEEPSt13_Rb_tree_nodeISA_EDpOT_
FN:632,_ZNSt8_Rb_treeINSt7__cxx1112basic_stringIcSt11char_traitsIcESaIcEEESt4pairIKS5_St10unique_ptrIN7libMesh10Parameters5ValueESt14default_deleteISB_EEESt10_Select1stISF_ESt4lessIvESaISF_EE14_M_create_nodeIJRKSt21piecewise_construct_tSt5tupleIJRS7_EESQ_IJEEEEEPSt13_Rb_tree_nodeISF_EDpOT_
FNDA:0,_ZNSt8_Rb_treeINSt7__cxx1112basic_stringIcSt11char_traitsIcESaIcEEESt4pairIKS5_St10unique_ptrIN7libMesh10Parameters5ValueESt14default_deleteISB_EEESt10_Select1stISF_ESt4lessIvESaISF_EE14_M_create_nodeIJRKSt21piecewise_construct_tSt5tupleIJRS7_EESQ_IJEEEEEPSt13_Rb_tree_nodeISF_EDpOT_
FN:632,_ZNSt8_Rb_treeINSt7__cxx1112basic_stringIcSt11char_traitsIcESaIcEEESt4pairIKS5_S5_ESt10_Select1stIS8_ESt4lessIS5_ESaIS8_EE14_M_create_nodeIJRKSt21piecewise_construct_tSt5tupleIJOS5_EESJ_IJEEEEEPSt13_Rb_tree_nodeIS8_EDpOT_
FNDA:0,_ZNSt8_Rb_treeINSt7__cxx1112basic_stringIcSt11char_traitsIcESaIcEEESt4pairIKS5_S5_ESt10_Select1stIS8_ESt4lessIS5_ESaIS8_EE14_M_create_nodeIJRKSt21piecewise_construct_tSt5tupleIJOS5_EESJ_IJEEEEEPSt13_Rb_tree_nodeIS8_EDpOT_
FN:632,_ZNSt8_Rb_treeINSt7__cxx1112basic_stringIcSt11char_traitsIcESaIcEEESt4pairIKS5_St6vectorISt10shared_ptrI17RegistryEntryBaseESaISB_EEESt10_Select1stISE_ESt4lessIS5_ESaISE_EE14_M_create_nodeIJRKSt21piecewise_construct_tSt5tupleIJRS7_EESP_IJEEEEEPSt13_Rb_tree_nodeISE_EDpOT_
FNDA:0,_ZNSt8_Rb_treeINSt7__cxx1112basic_stringIcSt11char_traitsIcESaIcEEESt4pairIKS5_St6vectorISt10shared_ptrI17RegistryEntryBaseESaISB_EEESt10_Select1stISE_ESt4lessIS5_ESaISE_EE14_M_create_nodeIJRKSt21piecewise_construct_tSt5tupleIJRS7_EESP_IJEEEEEPSt13_Rb_tree_nodeISE_EDpOT_
FN:652,_ZNSt8_Rb_treeINSt7__cxx1112basic_stringIcSt11char_traitsIcESaIcEEESt4pairIKS5_S5_ESt10_Select1stIS8_ESt4lessIS5_ESaIS8_EE12_M_drop_nodeEPSt13_Rb_tree_nodeIS8_E
FNDA:0,_ZNSt8_Rb_treeINSt7__cxx1112basic_stringIcSt11char_traitsIcESaIcEEESt4pairIKS5_S5_ESt10_Select1stIS8_ESt4lessIS5_ESaIS8_EE12_M_drop_nodeEPSt13_Rb_tree_nodeIS8_E
FN:652,_ZNSt8_Rb_treeINSt7__cxx1112basic_stringIcSt11char_traitsIcESaIcEEESt4pairIKS5_St6vectorISt10shared_ptrI17RegistryEntryBaseESaISB_EEESt10_Select1stISE_ESt4lessIS5_ESaISE_EE12_M_drop_nodeEPSt13_Rb_tree_nodeISE_E
FNDA:0,_ZNSt8_Rb_treeINSt7__cxx1112basic_stringIcSt11char_traitsIcESaIcEEESt4pairIKS5_St6vectorISt10shared_ptrI17RegistryEntryBaseESaISB_EEESt10_Select1stISE_ESt4lessIS5_ESaISE_EE12_M_drop_nodeEPSt13_Rb_tree_nodeISE_E
FN:652,_ZNSt8_Rb_treeI17PostprocessorNameSt4pairIKS0_St10unique_ptrIdSt14default_deleteIdEEESt10_Select1stIS7_ESt4lessIS0_ESaIS7_EE12_M_drop_nodeEPSt13_Rb_tree_nodeIS7_E
FNDA:0,_ZNSt8_Rb_treeI17PostprocessorNameSt4pairIKS0_St10unique_ptrIdSt14default_deleteIdEEESt10_Select1stIS7_ESt4lessIS0_ESaIS7_EE12_M_drop_nodeEPSt13_Rb_tree_nodeIS7_E
FN:652,_ZNSt8_Rb_treeINSt7__cxx1112basic_stringIcSt11char_traitsIcESaIcEEESt4pairIKS5_N15InputParameters8MetadataEESt10_Select1stISA_ESt4lessIS5_ESaISA_EE12_M_drop_nodeEPSt13_Rb_tree_nodeISA_E
FNDA:0,_ZNSt8_Rb_treeINSt7__cxx1112basic_stringIcSt11char_traitsIcESaIcEEESt4pairIKS5_N15InputParameters8MetadataEESt10_Select1stISA_ESt4lessIS5_ESaISA_EE12_M_drop_nodeEPSt13_Rb_tree_nodeISA_E
FN:652,_ZNSt8_Rb_treeINSt7__cxx1112basic_stringIcSt11char_traitsIcESaIcEEESt4pairIKS5_St10unique_ptrIN7libMesh10Parameters5ValueESt14default_deleteISB_EEESt10_Select1stISF_ESt4lessIvESaISF_EE12_M_drop_nodeEPSt13_Rb_tree_nodeISF_E
FNDA:0,_ZNSt8_Rb_treeINSt7__cxx1112basic_stringIcSt11char_traitsIcESaIcEEESt4pairIKS5_St10unique_ptrIN7libMesh10Parameters5ValueESt14default_deleteISB_EEESt10_Select1stISF_ESt4lessIvESaISF_EE12_M_drop_nodeEPSt13_Rb_tree_nodeISF_E
FN:652,_ZNSt8_Rb_treeI13MooseEnumItemS0_St9_IdentityIS0_ESt4lessIS0_ESaIS0_EE12_M_drop_nodeEPSt13_Rb_tree_nodeIS0_E
FNDA:0,_ZNSt8_Rb_treeI13MooseEnumItemS0_St9_IdentityIS0_ESt4lessIS0_ESaIS0_EE12_M_drop_nodeEPSt13_Rb_tree_nodeIS0_E
FN:1261,_ZNSt8_Rb_treeINSt7__cxx1112basic_stringIcSt11char_traitsIcESaIcEEESt4pairIKS5_St10unique_ptrIN7libMesh10Parameters5ValueESt14default_deleteISB_EEESt10_Select1stISF_ESt4lessIvESaISF_EE5clearEv
FNDA:0,_ZNSt8_Rb_treeINSt7__cxx1112basic_stringIcSt11char_traitsIcESaIcEEESt4pairIKS5_St10unique_ptrIN7libMesh10Parameters5ValueESt14default_deleteISB_EEESt10_Select1stISF_ESt4lessIvESaISF_EE5clearEv
FN:1312,_ZNKSt8_Rb_treeINSt7__cxx1112basic_stringIcSt11char_traitsIcESaIcEEESt4pairIKS5_St10unique_ptrIN7libMesh10Parameters5ValueESt14default_deleteISB_EEESt10_Select1stISF_ESt4lessIvESaISF_EE10_M_find_trISt17basic_string_viewIcS3_EvEESt23_Rb_tree_const_iteratorISF_ERKT_
FNDA:0,_ZNKSt8_Rb_treeINSt7__cxx1112basic_stringIcSt11char_traitsIcESaIcEEESt4pairIKS5_St10unique_ptrIN7libMesh10Parameters5ValueESt14default_deleteISB_EEESt10_Select1stISF_ESt4lessIvESaISF_EE10_M_find_trISt17basic_string_viewIcS3_EvEESt23_Rb_tree_const_iteratorISF_ERKT_
FN:1341,_ZNKSt8_Rb_treeINSt7__cxx1112basic_stringIcSt11char_traitsIcESaIcEEESt4pairIKS5_St10unique_ptrIN7libMesh10Parameters5ValueESt14default_deleteISB_EEESt10_Select1stISF_ESt4lessIvESaISF_EE17_M_lower_bound_trISt17basic_string_viewIcS3_EvEESt23_Rb_tree_const_iteratorISF_ERKT_
FNDA:0,_ZNKSt8_Rb_treeINSt7__cxx1112basic_stringIcSt11char_traitsIcESaIcEEESt4pairIKS5_St10unique_ptrIN7libMesh10Parameters5ValueESt14default_deleteISB_EEESt10_Select1stISF_ESt4lessIvESaISF_EE17_M_lower_bound_trISt17basic_string_viewIcS3_EvEESt23_Rb_tree_const_iteratorISF_ERKT_
FN:1918,_ZNSt8_Rb_treeIP22MooseVariableFieldBaseS1_St9_IdentityIS1_ESt4lessIS1_ESaIS1_EE8_M_eraseEPSt13_Rb_tree_nodeIS1_E
FNDA:40,_ZNSt8_Rb_treeIP22MooseVariableFieldBaseS1_St9_IdentityIS1_ESt4lessIS1_ESaIS1_EE8_M_eraseEPSt13_Rb_tree_nodeIS1_E
FN:1918,_ZNSt8_Rb_treeI17PostprocessorNameSt4pairIKS0_St10unique_ptrIdSt14default_deleteIdEEESt10_Select1stIS7_ESt4lessIS0_ESaIS7_EE8_M_eraseEPSt13_Rb_tree_nodeIS7_E
FNDA:0,_ZNSt8_Rb_treeI17PostprocessorNameSt4pairIKS0_St10unique_ptrIdSt14default_deleteIdEEESt10_Select1stIS7_ESt4lessIS0_ESaIS7_EE8_M_eraseEPSt13_Rb_tree_nodeIS7_E
FN:1918,_ZNSt8_Rb_treeIjjSt9_IdentityIjESt4lessIjESaIjEE8_M_eraseEPSt13_Rb_tree_nodeIjE
FNDA:0,_ZNSt8_Rb_treeIjjSt9_IdentityIjESt4lessIjESaIjEE8_M_eraseEPSt13_Rb_tree_nodeIjE
FN:1918,_ZNSt8_Rb_treeINSt7__cxx1112basic_stringIcSt11char_traitsIcESaIcEEESt4pairIKS5_S6_IS5_S5_EESt10_Select1stIS9_ESt4lessIS5_ESaIS9_EE8_M_eraseEPSt13_Rb_tree_nodeIS9_E
FNDA:0,_ZNSt8_Rb_treeINSt7__cxx1112basic_stringIcSt11char_traitsIcESaIcEEESt4pairIKS5_S6_IS5_S5_EESt10_Select1stIS9_ESt4lessIS5_ESaIS9_EE8_M_eraseEPSt13_Rb_tree_nodeIS9_E
FN:1918,_ZNSt8_Rb_treeINSt7__cxx1112basic_stringIcSt11char_traitsIcESaIcEEESt4pairIKS5_S5_ESt10_Select1stIS8_ESt4lessIS5_ESaIS8_EE8_M_eraseEPSt13_Rb_tree_nodeIS8_E
FNDA:0,_ZNSt8_Rb_treeINSt7__cxx1112basic_stringIcSt11char_traitsIcESaIcEEESt4pairIKS5_S5_ESt10_Select1stIS8_ESt4lessIS5_ESaIS8_EE8_M_eraseEPSt13_Rb_tree_nodeIS8_E
FN:1918,_ZNSt8_Rb_treeINSt7__cxx1112basic_stringIcSt11char_traitsIcESaIcEEES5_St9_IdentityIS5_ESt4lessIS5_ESaIS5_EE8_M_eraseEPSt13_Rb_tree_nodeIS5_E
FNDA:0,_ZNSt8_Rb_treeINSt7__cxx1112basic_stringIcSt11char_traitsIcESaIcEEES5_St9_IdentityIS5_ESt4lessIS5_ESaIS5_EE8_M_eraseEPSt13_Rb_tree_nodeIS5_E
FN:1918,_ZNSt8_Rb_treeIssSt9_IdentityIsESt4lessIsESaIsEE8_M_eraseEPSt13_Rb_tree_nodeIsE
FNDA:0,_ZNSt8_Rb_treeIssSt9_IdentityIsESt4lessIsESaIsEE8_M_eraseEPSt13_Rb_tree_nodeIsE
FN:1918,_ZNSt8_Rb_treeIttSt9_IdentityItESt4lessItESaItEE8_M_eraseEPSt13_Rb_tree_nodeItE
FNDA:0,_ZNSt8_Rb_treeIttSt9_IdentityItESt4lessItESaItEE8_M_eraseEPSt13_Rb_tree_nodeItE
FN:1918,_ZNSt8_Rb_treeINSt7__cxx1112basic_stringIcSt11char_traitsIcESaIcEEESt4pairIKS5_St10unique_ptrIN7libMesh10Parameters5ValueESt14default_deleteISB_EEESt10_Select1stISF_ESt4lessIvESaISF_EE8_M_eraseEPSt13_Rb_tree_nodeISF_E
FNDA:0,_ZNSt8_Rb_treeINSt7__cxx1112basic_stringIcSt11char_traitsIcESaIcEEESt4pairIKS5_St10unique_ptrIN7libMesh10Parameters5ValueESt14default_deleteISB_EEESt10_Select1stISF_ESt4lessIvESaISF_EE8_M_eraseEPSt13_Rb_tree_nodeISF_E
FN:1918,_ZNSt8_Rb_treeI13MooseEnumItemS0_St9_IdentityIS0_ESt4lessIS0_ESaIS0_EE8_M_eraseEPSt13_Rb_tree_nodeIS0_E
FNDA:0,_ZNSt8_Rb_treeI13MooseEnumItemS0_St9_IdentityIS0_ESt4lessIS0_ESaIS0_EE8_M_eraseEPSt13_Rb_tree_nodeIS0_E
FN:1918,_ZNSt8_Rb_treeIP18MooseVariableFieldIdES2_St9_IdentityIS2_ESt4lessIS2_ESaIS2_EE8_M_eraseEPSt13_Rb_tree_nodeIS2_E
FNDA:0,_ZNSt8_Rb_treeIP18MooseVariableFieldIdES2_St9_IdentityIS2_ESt4lessIS2_ESaIS2_EE8_M_eraseEPSt13_Rb_tree_nodeIS2_E
FN:1918,_ZNSt8_Rb_treeINSt7__cxx1112basic_stringIcSt11char_traitsIcESaIcEEESt4pairIKS5_N15InputParameters8MetadataEESt10_Select1stISA_ESt4lessIS5_ESaISA_EE8_M_eraseEPSt13_Rb_tree_nodeISA_E
FNDA:0,_ZNSt8_Rb_treeINSt7__cxx1112basic_stringIcSt11char_traitsIcESaIcEEESt4pairIKS5_N15InputParameters8MetadataEESt10_Select1stISA_ESt4lessIS5_ESaISA_EE8_M_eraseEPSt13_Rb_tree_nodeISA_E
FN:1935,_ZNSt8_Rb_treeINSt7__cxx1112basic_stringIcSt11char_traitsIcESaIcEEESt4pairIKS5_St10unique_ptrIN7libMesh10Parameters5ValueESt14default_deleteISB_EEESt10_Select1stISF_ESt4lessIvESaISF_EE14_M_lower_boundEPSt13_Rb_tree_nodeISF_EPSt18_Rb_tree_node_baseRS7_
FNDA:0,_ZNSt8_Rb_treeINSt7__cxx1112basic_stringIcSt11char_traitsIcESaIcEEESt4pairIKS5_St10unique_ptrIN7libMesh10Parameters5ValueESt14default_deleteISB_EEESt10_Select1stISF_ESt4lessIvESaISF_EE14_M_lower_boundEPSt13_Rb_tree_nodeISF_EPSt18_Rb_tree_node_baseRS7_
FN:1935,_ZNSt8_Rb_treeINSt7__cxx1112basic_stringIcSt11char_traitsIcESaIcEEESt4pairIKS5_S5_ESt10_Select1stIS8_ESt4lessIS5_ESaIS8_EE14_M_lower_boundEPSt13_Rb_tree_nodeIS8_EPSt18_Rb_tree_node_baseRS7_
FNDA:0,_ZNSt8_Rb_treeINSt7__cxx1112basic_stringIcSt11char_traitsIcESaIcEEESt4pairIKS5_S5_ESt10_Select1stIS8_ESt4lessIS5_ESaIS8_EE14_M_lower_boundEPSt13_Rb_tree_nodeIS8_EPSt18_Rb_tree_node_baseRS7_
FN:1935,_ZNSt8_Rb_treeINSt7__cxx1112basic_stringIcSt11char_traitsIcESaIcEEESt4pairIKS5_N15InputParameters8MetadataEESt10_Select1stISA_ESt4lessIS5_ESaISA_EE14_M_lower_boundEPSt13_Rb_tree_nodeISA_EPSt18_Rb_tree_node_baseRS7_
FNDA:439532,_ZNSt8_Rb_treeINSt7__cxx1112basic_stringIcSt11char_traitsIcESaIcEEESt4pairIKS5_N15InputParameters8MetadataEESt10_Select1stISA_ESt4lessIS5_ESaISA_EE14_M_lower_boundEPSt13_Rb_tree_nodeISA_EPSt18_Rb_tree_node_baseRS7_
FN:1935,_ZNSt8_Rb_treeINSt7__cxx1112basic_stringIcSt11char_traitsIcESaIcEEESt4pairIKS5_St6vectorISt10shared_ptrI17RegistryEntryBaseESaISB_EEESt10_Select1stISE_ESt4lessIS5_ESaISE_EE14_M_lower_boundEPSt13_Rb_tree_nodeISE_EPSt18_Rb_tree_node_baseRS7_
FNDA:0,_ZNSt8_Rb_treeINSt7__cxx1112basic_stringIcSt11char_traitsIcESaIcEEESt4pairIKS5_St6vectorISt10shared_ptrI17RegistryEntryBaseESaISB_EEESt10_Select1stISE_ESt4lessIS5_ESaISE_EE14_M_lower_boundEPSt13_Rb_tree_nodeISE_EPSt18_Rb_tree_node_baseRS7_
FN:1951,_ZNKSt8_Rb_treeINSt7__cxx1112basic_stringIcSt11char_traitsIcESaIcEEESt4pairIKS5_N15InputParameters8MetadataEESt10_Select1stISA_ESt4lessIS5_ESaISA_EE14_M_lower_boundEPKSt13_Rb_tree_nodeISA_EPKSt18_Rb_tree_node_baseRS7_
FNDA:2,_ZNKSt8_Rb_treeINSt7__cxx1112basic_stringIcSt11char_traitsIcESaIcEEESt4pairIKS5_N15InputParameters8MetadataEESt10_Select1stISA_ESt4lessIS5_ESaISA_EE14_M_lower_boundEPKSt13_Rb_tree_nodeISA_EPKSt18_Rb_tree_node_baseRS7_
FN:1951,_ZNKSt8_Rb_treeINSt7__cxx1112basic_stringIcSt11char_traitsIcESaIcEEESt4pairIKS5_St10unique_ptrIN7libMesh10Parameters5ValueESt14default_deleteISB_EEESt10_Select1stISF_ESt4lessIvESaISF_EE14_M_lower_boundEPKSt13_Rb_tree_nodeISF_EPKSt18_Rb_tree_node_baseRS7_
FNDA:0,_ZNKSt8_Rb_treeINSt7__cxx1112basic_stringIcSt11char_traitsIcESaIcEEESt4pairIKS5_St10unique_ptrIN7libMesh10Parameters5ValueESt14default_deleteISB_EEESt10_Select1stISF_ESt4lessIvESaISF_EE14_M_lower_boundEPKSt13_Rb_tree_nodeISF_EPKSt18_Rb_tree_node_baseRS7_
FN:2096,_ZNSt8_Rb_treeINSt7__cxx1112basic_stringIcSt11char_traitsIcESaIcEEESt4pairIKS5_S5_ESt10_Select1stIS8_ESt4lessIS5_ESaIS8_EE24_M_get_insert_unique_posERS7_
FNDA:0,_ZNSt8_Rb_treeINSt7__cxx1112basic_stringIcSt11char_traitsIcESaIcEEESt4pairIKS5_S5_ESt10_Select1stIS8_ESt4lessIS5_ESaIS8_EE24_M_get_insert_unique_posERS7_
FN:2096,_ZNSt8_Rb_treeINSt7__cxx1112basic_stringIcSt11char_traitsIcESaIcEEESt4pairIKS5_St6vectorISt10shared_ptrI17RegistryEntryBaseESaISB_EEESt10_Select1stISE_ESt4lessIS5_ESaISE_EE24_M_get_insert_unique_posERS7_
FNDA:0,_ZNSt8_Rb_treeINSt7__cxx1112basic_stringIcSt11char_traitsIcESaIcEEESt4pairIKS5_St6vectorISt10shared_ptrI17RegistryEntryBaseESaISB_EEESt10_Select1stISE_ESt4lessIS5_ESaISE_EE24_M_get_insert_unique_posERS7_
FN:2096,_ZNSt8_Rb_treeINSt7__cxx1112basic_stringIcSt11char_traitsIcESaIcEEESt4pairIKS5_St10unique_ptrIN7libMesh10Parameters5ValueESt14default_deleteISB_EEESt10_Select1stISF_ESt4lessIvESaISF_EE24_M_get_insert_unique_posERS7_
FNDA:0,_ZNSt8_Rb_treeINSt7__cxx1112basic_stringIcSt11char_traitsIcESaIcEEESt4pairIKS5_St10unique_ptrIN7libMesh10Parameters5ValueESt14default_deleteISB_EEESt10_Select1stISF_ESt4lessIvESaISF_EE24_M_get_insert_unique_posERS7_
FN:2096,_ZNSt8_Rb_treeINSt7__cxx1112basic_stringIcSt11char_traitsIcESaIcEEESt4pairIKS5_N15InputParameters8MetadataEESt10_Select1stISA_ESt4lessIS5_ESaISA_EE24_M_get_insert_unique_posERS7_
FNDA:0,_ZNSt8_Rb_treeINSt7__cxx1112basic_stringIcSt11char_traitsIcESaIcEEESt4pairIKS5_N15InputParameters8MetadataEESt10_Select1stISA_ESt4lessIS5_ESaISA_EE24_M_get_insert_unique_posERS7_
FN:2198,_ZNSt8_Rb_treeINSt7__cxx1112basic_stringIcSt11char_traitsIcESaIcEEESt4pairIKS5_St6vectorISt10shared_ptrI17RegistryEntryBaseESaISB_EEESt10_Select1stISE_ESt4lessIS5_ESaISE_EE29_M_get_insert_hint_unique_posESt23_Rb_tree_const_iteratorISE_ERS7_
FNDA:0,_ZNSt8_Rb_treeINSt7__cxx1112basic_stringIcSt11char_traitsIcESaIcEEESt4pairIKS5_St6vectorISt10shared_ptrI17RegistryEntryBaseESaISB_EEESt10_Select1stISE_ESt4lessIS5_ESaISE_EE29_M_get_insert_hint_unique_posESt23_Rb_tree_const_iteratorISE_ERS7_
FN:2198,_ZNSt8_Rb_treeINSt7__cxx1112basic_stringIcSt11char_traitsIcESaIcEEESt4pairIKS5_S5_ESt10_Select1stIS8_ESt4lessIS5_ESaIS8_EE29_M_get_insert_hint_unique_posESt23_Rb_tree_const_iteratorIS8_ERS7_
FNDA:0,_ZNSt8_Rb_treeINSt7__cxx1112basic_stringIcSt11char_traitsIcESaIcEEESt4pairIKS5_S5_ESt10_Select1stIS8_ESt4lessIS5_ESaIS8_EE29_M_get_insert_hint_unique_posESt23_Rb_tree_const_iteratorIS8_ERS7_
FN:2198,_ZNSt8_Rb_treeINSt7__cxx1112basic_stringIcSt11char_traitsIcESaIcEEESt4pairIKS5_St10unique_ptrIN7libMesh10Parameters5ValueESt14default_deleteISB_EEESt10_Select1stISF_ESt4lessIvESaISF_EE29_M_get_insert_hint_unique_posESt23_Rb_tree_const_iteratorISF_ERS7_
FNDA:0,_ZNSt8_Rb_treeINSt7__cxx1112basic_stringIcSt11char_traitsIcESaIcEEESt4pairIKS5_St10unique_ptrIN7libMesh10Parameters5ValueESt14default_deleteISB_EEESt10_Select1stISF_ESt4lessIvESaISF_EE29_M_get_insert_hint_unique_posESt23_Rb_tree_const_iteratorISF_ERS7_
FN:2198,_ZNSt8_Rb_treeINSt7__cxx1112basic_stringIcSt11char_traitsIcESaIcEEESt4pairIKS5_N15InputParameters8MetadataEESt10_Select1stISA_ESt4lessIS5_ESaISA_EE29_M_get_insert_hint_unique_posESt23_Rb_tree_const_iteratorISA_ERS7_
FNDA:0,_ZNSt8_Rb_treeINSt7__cxx1112basic_stringIcSt11char_traitsIcESaIcEEESt4pairIKS5_N15InputParameters8MetadataEESt10_Select1stISA_ESt4lessIS5_ESaISA_EE29_M_get_insert_hint_unique_posESt23_Rb_tree_const_iteratorISA_ERS7_
FN:2365,_ZNSt8_Rb_treeINSt7__cxx1112basic_stringIcSt11char_traitsIcESaIcEEESt4pairIKS5_St6vectorISt10shared_ptrI17RegistryEntryBaseESaISB_EEESt10_Select1stISE_ESt4lessIS5_ESaISE_EE14_M_insert_nodeEPSt18_Rb_tree_node_baseSM_PSt13_Rb_tree_nodeISE_E
FNDA:0,_ZNSt8_Rb_treeINSt7__cxx1112basic_stringIcSt11char_traitsIcESaIcEEESt4pairIKS5_St6vectorISt10shared_ptrI17RegistryEntryBaseESaISB_EEESt10_Select1stISE_ESt4lessIS5_ESaISE_EE14_M_insert_nodeEPSt18_Rb_tree_node_baseSM_PSt13_Rb_tree_nodeISE_E
FN:2365,_ZNSt8_Rb_treeINSt7__cxx1112basic_stringIcSt11char_traitsIcESaIcEEESt4pairIKS5_S5_ESt10_Select1stIS8_ESt4lessIS5_ESaIS8_EE14_M_insert_nodeEPSt18_Rb_tree_node_baseSG_PSt13_Rb_tree_nodeIS8_E
FNDA:0,_ZNSt8_Rb_treeINSt7__cxx1112basic_stringIcSt11char_traitsIcESaIcEEESt4pairIKS5_S5_ESt10_Select1stIS8_ESt4lessIS5_ESaIS8_EE14_M_insert_nodeEPSt18_Rb_tree_node_baseSG_PSt13_Rb_tree_nodeIS8_E
FN:2365,_ZNSt8_Rb_treeINSt7__cxx1112basic_stringIcSt11char_traitsIcESaIcEEESt4pairIKS5_St10unique_ptrIN7libMesh10Parameters5ValueESt14default_deleteISB_EEESt10_Select1stISF_ESt4lessIvESaISF_EE14_M_insert_nodeEPSt18_Rb_tree_node_baseSN_PSt13_Rb_tree_nodeISF_E
FNDA:0,_ZNSt8_Rb_treeINSt7__cxx1112basic_stringIcSt11char_traitsIcESaIcEEESt4pairIKS5_St10unique_ptrIN7libMesh10Parameters5ValueESt14default_deleteISB_EEESt10_Select1stISF_ESt4lessIvESaISF_EE14_M_insert_nodeEPSt18_Rb_tree_node_baseSN_PSt13_Rb_tree_nodeISF_E
FN:2365,_ZNSt8_Rb_treeINSt7__cxx1112basic_stringIcSt11char_traitsIcESaIcEEESt4pairIKS5_N15InputParameters8MetadataEESt10_Select1stISA_ESt4lessIS5_ESaISA_EE14_M_insert_nodeEPSt18_Rb_tree_node_baseSI_PSt13_Rb_tree_nodeISA_E
FNDA:88666,_ZNSt8_Rb_treeINSt7__cxx1112basic_stringIcSt11char_traitsIcESaIcEEESt4pairIKS5_N15InputParameters8MetadataEESt10_Select1stISA_ESt4lessIS5_ESaISA_EE14_M_insert_nodeEPSt18_Rb_tree_node_baseSI_PSt13_Rb_tree_nodeISA_E
FN:2463,_ZNSt8_Rb_treeINSt7__cxx1112basic_stringIcSt11char_traitsIcESaIcEEESt4pairIKS5_N15InputParameters8MetadataEESt10_Select1stISA_ESt4lessIS5_ESaISA_EE22_M_emplace_hint_uniqueIJRKSt21piecewise_construct_tSt5tupleIJRS7_EESL_IJEEEEESt17_Rb_tree_iteratorISA_ESt23_Rb_tree_const_iteratorISA_EDpOT_
FNDA:88666,_ZNSt8_Rb_treeINSt7__cxx1112basic_stringIcSt11char_traitsIcESaIcEEESt4pairIKS5_N15InputParameters8MetadataEESt10_Select1stISA_ESt4lessIS5_ESaISA_EE22_M_emplace_hint_uniqueIJRKSt21piecewise_construct_tSt5tupleIJRS7_EESL_IJEEEEESt17_Rb_tree_iteratorISA_ESt23_Rb_tree_const_iteratorISA_EDpOT_
FN:2463,_ZNSt8_Rb_treeINSt7__cxx1112basic_stringIcSt11char_traitsIcESaIcEEESt4pairIKS5_S5_ESt10_Select1stIS8_ESt4lessIS5_ESaIS8_EE22_M_emplace_hint_uniqueIJRKSt21piecewise_construct_tSt5tupleIJOS5_EESJ_IJEEEEESt17_Rb_tree_iteratorIS8_ESt23_Rb_tree_const_iteratorIS8_EDpOT_
FNDA:0,_ZNSt8_Rb_treeINSt7__cxx1112basic_stringIcSt11char_traitsIcESaIcEEESt4pairIKS5_S5_ESt10_Select1stIS8_ESt4lessIS5_ESaIS8_EE22_M_emplace_hint_uniqueIJRKSt21piecewise_construct_tSt5tupleIJOS5_EESJ_IJEEEEESt17_Rb_tree_iteratorIS8_ESt23_Rb_tree_const_iteratorIS8_EDpOT_
FN:2463,_ZNSt8_Rb_treeINSt7__cxx1112basic_stringIcSt11char_traitsIcESaIcEEESt4pairIKS5_St10unique_ptrIN7libMesh10Parameters5ValueESt14default_deleteISB_EEESt10_Select1stISF_ESt4lessIvESaISF_EE22_M_emplace_hint_uniqueIJRKSt21piecewise_construct_tSt5tupleIJRS7_EESQ_IJEEEEESt17_Rb_tree_iteratorISF_ESt23_Rb_tree_const_iteratorISF_EDpOT_
FNDA:0,_ZNSt8_Rb_treeINSt7__cxx1112basic_stringIcSt11char_traitsIcESaIcEEESt4pairIKS5_St10unique_ptrIN7libMesh10Parameters5ValueESt14default_deleteISB_EEESt10_Select1stISF_ESt4lessIvESaISF_EE22_M_emplace_hint_uniqueIJRKSt21piecewise_construct_tSt5tupleIJRS7_EESQ_IJEEEEESt17_Rb_tree_iteratorISF_ESt23_Rb_tree_const_iteratorISF_EDpOT_
FN:2463,_ZNSt8_Rb_treeINSt7__cxx1112basic_stringIcSt11char_traitsIcESaIcEEESt4pairIKS5_St6vectorISt10shared_ptrI17RegistryEntryBaseESaISB_EEESt10_Select1stISE_ESt4lessIS5_ESaISE_EE22_M_emplace_hint_uniqueIJRKSt21piecewise_construct_tSt5tupleIJRS7_EESP_IJEEEEESt17_Rb_tree_iteratorISE_ESt23_Rb_tree_const_iteratorISE_EDpOT_
FNDA:0,_ZNSt8_Rb_treeINSt7__cxx1112basic_stringIcSt11char_traitsIcESaIcEEESt4pairIKS5_St6vectorISt10shared_ptrI17RegistryEntryBaseESaISB_EEESt10_Select1stISE_ESt4lessIS5_ESaISE_EE22_M_emplace_hint_uniqueIJRKSt21piecewise_construct_tSt5tupleIJRS7_EESP_IJEEEEESt17_Rb_tree_iteratorISE_ESt23_Rb_tree_const_iteratorISE_EDpOT_
FN:2568,_ZNKSt8_Rb_treeINSt7__cxx1112basic_stringIcSt11char_traitsIcESaIcEEESt4pairIKS5_St10unique_ptrIN7libMesh10Parameters5ValueESt14default_deleteISB_EEESt10_Select1stISF_ESt4lessIvESaISF_EE4findERS7_
FNDA:0,_ZNKSt8_Rb_treeINSt7__cxx1112basic_stringIcSt11char_traitsIcESaIcEEESt4pairIKS5_St10unique_ptrIN7libMesh10Parameters5ValueESt14default_deleteISB_EEESt10_Select1stISF_ESt4lessIvESaISF_EE4findERS7_
FN:2568,_ZNKSt8_Rb_treeINSt7__cxx1112basic_stringIcSt11char_traitsIcESaIcEEESt4pairIKS5_N15InputParameters8MetadataEESt10_Select1stISA_ESt4lessIS5_ESaISA_EE4findERS7_
FNDA:1,_ZNKSt8_Rb_treeINSt7__cxx1112basic_stringIcSt11char_traitsIcESaIcEEESt4pairIKS5_N15InputParameters8MetadataEESt10_Select1stISA_ESt4lessIS5_ESaISA_EE4findERS7_
FNF:52
FNH:8
DA:208,0
DA:209,0
DA:210,0
DA:211,0
DA:287,0
DA:302,0
DA:303,0
DA:350,88666
DA:351,88666
DA:355,0
DA:368,0
DA:369,0
DA:397,1
DA:571,88666
DA:613,0
DA:622,0
DA:624,0
DA:626,0
DA:628,0
DA:613,88666
DA:622,0
DA:624,0
DA:626,0
DA:628,88666
DA:613,0
DA:622,0
DA:624,0
DA:626,0
DA:628,0
DA:632,0
DA:636,0
DA:632,0
DA:635,0
DA:636,0
DA:632,88666
DA:635,88666
DA:636,88666
DA:632,0
DA:635,0
DA:636,0
DA:647,0
DA:652,0
DA:656,0
DA:652,0
DA:656,0
DA:652,0
DA:656,0
DA:652,0
DA:656,0
DA:652,0
DA:656,0
DA:652,0
DA:656,0
DA:751,439532
DA:757,2
DA:762,493743
DA:766,2
DA:792,928454
DA:796,6
DA:800,1246428
DA:804,6
DA:993,0
DA:1005,0
DA:1009,0
DA:1013,439532
DA:1017,648547
DA:1041,0
DA:1261,0
DA:1263,0
DA:1265,0
DA:1279,439532
DA:1283,1
DA:1312,0
DA:1314,0
DA:1315,0
DA:1317,0
DA:1341,0
DA:1345,0
DA:1346,0
DA:1353,0
DA:1918,0
DA:1922,0
DA:1924,0
DA:1926,0
DA:1929,0
DA:1918,0
DA:1922,0
DA:1924,0
DA:1929,0
DA:1918,0
DA:1922,0
DA:1924,0
DA:1926,0
DA:1929,0
DA:1918,40
DA:1922,60
DA:1924,20
DA:1929,40
DA:1918,0
DA:1922,0
DA:1924,0
DA:1926,0
DA:1929,0
DA:1918,0
DA:1922,0
DA:1924,0
DA:1929,0
DA:1918,0
DA:1922,0
DA:1924,0
DA:1929,0
DA:1918,0
DA:1922,0
DA:1924,0
DA:1926,0
DA:1929,0
DA:1918,0
DA:1922,0
DA:1924,0
DA:1929,0
DA:1918,0
DA:1922,0
DA:1924,0
DA:1929,0
DA:1918,0
DA:1922,0
DA:1924,0
DA:1929,0
DA:1918,0
DA:1922,0
DA:1924,0
DA:1926,0
DA:1929,0
DA:1935,0
DA:1939,0
DA:1940,0
DA:1944,0
DA:1935,0
DA:1939,0
DA:1940,0
DA:1944,0
DA:1935,439532
DA:1939,2614394
DA:1940,2174862
DA:1944,439532
DA:1935,0
DA:1939,0
DA:1940,0
DA:1944,0
DA:1951,0
DA:1955,0
DA:1956,0
DA:1960,0
DA:1951,2
DA:1955,14
DA:1956,12
DA:1960,2
DA:2096,0
DA:2103,0
DA:2107,0
DA:2110,0
DA:2112,0
DA:2113,0
DA:2117,0
DA:2118,0
DA:2119,0
DA:2096,0
DA:2103,0
DA:2107,0
DA:2110,0
DA:2112,0
DA:2113,0
DA:2117,0
DA:2118,0
DA:2119,0
DA:2096,0
DA:2103,0
DA:2107,0
DA:2110,0
DA:2112,0
DA:2113,0
DA:2117,0
DA:2118,0
DA:2119,0
DA:2096,0
DA:2103,0
DA:2107,0
DA:2110,0
DA:2112,0
DA:2113,0
DA:2117,0
DA:2118,0
DA:2119,0
DA:2198,0
DA:2206,0
DA:2209,0
DA:2210,0
DA:2212,0
DA:2214,0
DA:2218,0
DA:2219,0
DA:2220,0
DA:2222,0
DA:2223,0
DA:2225,0
DA:2228,0
DA:2230,0
DA:2234,0
DA:2235,0
DA:2236,0
DA:2238,0
DA:2239,0
DA:2241,0
DA:2244,0
DA:2248,0
DA:2198,0
DA:2206,0
DA:2209,0
DA:2210,0
DA:2212,0
DA:2214,0
DA:2218,0
DA:2219,0
DA:2220,0
DA:2222,0
DA:2223,0
DA:2225,0
DA:2228,0
DA:2230,0
DA:2234,0
DA:2235,0
DA:2236,0
DA:2238,0
DA:2239,0
DA:2241,0
DA:2244,0
DA:2248,0
DA:2198,0
DA:2206,0
DA:2209,0
DA:2210,0
DA:2212,0
DA:2214,0
DA:2218,0
DA:2219,0
DA:2220,0
DA:2222,0
DA:2223,0
DA:2225,0
DA:2228,0
DA:2230,0
DA:2234,0
DA:2235,0
DA:2236,0
DA:2238,0
DA:2239,0
DA:2241,0
DA:2244,0
DA:2248,0
DA:2198,0
DA:2206,0
DA:2209,0
DA:2210,0
DA:2212,0
DA:2214,0
DA:2218,0
DA:2219,0
DA:2220,0
DA:2222,0
DA:2223,0
DA:2225,0
DA:2228,0
DA:2230,0
DA:2234,0
DA:2235,0
DA:2236,0
DA:2238,0
DA:2239,0
DA:2241,0
DA:2244,0
DA:2248,0
DA:2365,0
DA:2368,0
DA:2369,0
DA:2372,0
DA:2373,0
DA:2374,0
DA:2375,0
DA:2365,0
DA:2368,0
DA:2369,0
DA:2372,0
DA:2373,0
DA:2374,0
DA:2375,0
DA:2365,88666
DA:2368,54211
DA:2369,128558
DA:2372,88666
DA:2373,88666
DA:2374,88666
DA:2375,88666
DA:2365,0
DA:2368,0
DA:2369,0
DA:2372,0
DA:2373,0
DA:2374,0
DA:2375,0
DA:2463,0
DA:2466,0
DA:2470,0
DA:2472,0
DA:2473,0
DA:2475,0
DA:2476,0
DA:2463,0
DA:2466,0
DA:2470,0
DA:2472,0
DA:2473,0
DA:2475,0
DA:2476,0
DA:2463,88666
DA:2466,88666
DA:2470,88666
DA:2472,88666
DA:2473,88666
DA:2475,0
DA:2476,0
DA:2463,0
DA:2466,0
DA:2470,0
DA:2472,0
DA:2473,0
DA:2475,0
DA:2476,0
DA:2568,0
DA:2571,0
DA:2573,0
DA:2574,0
DA:2568,1
DA:2571,1
DA:2573,1
DA:2574,2
LF:345
LH:49
end_of_record
SF:/home/runner/work/beaver/beaver/moose/framework/build/header_symlinks/VectorPostprocessorInterface.h
FN:311,_ZNK28VectorPostprocessorInterface38addVectorPostprocessorDependencyHelperERK23VectorPostprocessorName
FNDA:0,_ZNK28VectorPostprocessorInterface38addVectorPostprocessorDependencyHelperERK23VectorPostprocessorName
FNF:1
FNH:0
DA:311,0
DA:313,0
LF:2
LH:0
end_of_record
SF:/usr/share/miniconda3/envs/moose/x86_64-conda-linux-gnu/include/c++/10.4.0/bits/stl_pair.h
DA:211,0
LF:1
LH:0
end_of_record
SF:/usr/share/miniconda3/envs/moose/libmesh/include/Eigen/src/Core/util/Memory.h
DA:203,0
LF:1
LH:0
end_of_record
SF:/home/runner/work/beaver/beaver/moose/framework/build/header_symlinks/InputParameters.h
FN:53,_ZN15InputParametersD0Ev
FNDA:0,_ZN15InputParametersD0Ev
FN:53,_ZN15InputParametersD2Ev
FNDA:0,_ZN15InputParametersD2Ev
FN:1074,_ZNK15InputParameters2atERKNSt7__cxx1112basic_stringIcSt11char_traitsIcESaIcEEE
FNDA:1,_ZNK15InputParameters2atERKNSt7__cxx1112basic_stringIcSt11char_traitsIcESaIcEEE
FN:1179,_ZN15InputParameters3setIdEERT_RKNSt7__cxx1112basic_stringIcSt11char_traitsIcESaIcEEEb
FNDA:85803,_ZN15InputParameters3setIdEERT_RKNSt7__cxx1112basic_stringIcSt11char_traitsIcESaIcEEEb
FN:1179,_ZN15InputParameters3setIbEERT_RKNSt7__cxx1112basic_stringIcSt11char_traitsIcESaIcEEEb
FNDA:0,_ZN15InputParameters3setIbEERT_RKNSt7__cxx1112basic_stringIcSt11char_traitsIcESaIcEEEb
FN:1379,_ZN15InputParameters16addRequiredParamIjEEvRKNSt7__cxx1112basic_stringIcSt11char_traitsIcESaIcEEES8_
FNDA:6420,_ZN15InputParameters16addRequiredParamIjEEvRKNSt7__cxx1112basic_stringIcSt11char_traitsIcESaIcEEES8_
FN:1401,_ZN15InputParameters8addParamIddEEvRKNSt7__cxx1112basic_stringIcSt11char_traitsIcESaIcEEERKT0_S8_
FNDA:67743,_ZN15InputParameters8addParamIddEEvRKNSt7__cxx1112basic_stringIcSt11char_traitsIcESaIcEEERKT0_S8_
FN:1420,_ZN15InputParameters8addParamI12FunctionNameEEvRKNSt7__cxx1112basic_stringIcSt11char_traitsIcESaIcEEES9_
FNDA:4663,_ZN15InputParameters8addParamI12FunctionNameEEvRKNSt7__cxx1112basic_stringIcSt11char_traitsIcESaIcEEES9_
FN:1569,_ZNK15InputParameters19checkConsistentTypeIbEEvRKNSt7__cxx1112basic_stringIcSt11char_traitsIcESaIcEEE
FNDA:0,_ZNK15InputParameters19checkConsistentTypeIbEEvRKNSt7__cxx1112basic_stringIcSt11char_traitsIcESaIcEEE
FN:1569,_ZNK15InputParameters19checkConsistentTypeI12FunctionNameEEvRKNSt7__cxx1112basic_stringIcSt11char_traitsIcESaIcEEE
FNDA:19755,_ZNK15InputParameters19checkConsistentTypeI12FunctionNameEEvRKNSt7__cxx1112basic_stringIcSt11char_traitsIcESaIcEEE
FN:1569,_ZNK15InputParameters19checkConsistentTypeIdEEvRKNSt7__cxx1112basic_stringIcSt11char_traitsIcESaIcEEE
FNDA:211556,_ZNK15InputParameters19checkConsistentTypeIdEEvRKNSt7__cxx1112basic_stringIcSt11char_traitsIcESaIcEEE
FN:1569,_ZNK15InputParameters19checkConsistentTypeIjEEvRKNSt7__cxx1112basic_stringIcSt11char_traitsIcESaIcEEE
FNDA:312140,_ZNK15InputParameters19checkConsistentTypeIjEEvRKNSt7__cxx1112basic_stringIcSt11char_traitsIcESaIcEEE
FN:1757,_ZN15InputParameters14getParamHelperIdEERKT_RKNSt7__cxx1112basic_stringIcSt11char_traitsIcESaIcEEERKS_PS2_PK11MooseObject
FNDA:20,_ZN15InputParameters14getParamHelperIdEERKT_RKNSt7__cxx1112basic_stringIcSt11char_traitsIcESaIcEEERKS_PS2_PK11MooseObject
FN:1757,_ZN15InputParameters14getParamHelperIjEERKT_RKNSt7__cxx1112basic_stringIcSt11char_traitsIcESaIcEEERKS_PS2_PK11MooseObject
FNDA:20,_ZN15InputParameters14getParamHelperIjEERKT_RKNSt7__cxx1112basic_stringIcSt11char_traitsIcESaIcEEERKS_PS2_PK11MooseObject
FN:1845,_ZNK15InputParameters3getIdEERKT_St17basic_string_viewIcSt11char_traitsIcEE
FNDA:955,_ZNK15InputParameters3getIdEERKT_St17basic_string_viewIcSt11char_traitsIcEE
FN:1845,_ZNK15InputParameters3getIjEERKT_St17basic_string_viewIcSt11char_traitsIcEE
FNDA:4765,_ZNK15InputParameters3getIjEERKT_St17basic_string_viewIcSt11char_traitsIcEE
FNF:16
FNH:12
DA:53,0
DA:53,0
DA:840,1
DA:1074,1
DA:1076,1
DA:1078,0
DA:1079,2
DA:1179,85803
DA:1181,85803
DA:1183,85803
DA:1184,85803
DA:1186,85803
DA:1188,85803
DA:1189,464
DA:1193,85803
DA:1179,0
DA:1181,0
DA:1183,0
DA:1184,0
DA:1186,0
DA:1188,0
DA:1189,0
DA:1193,0
DA:1379,6420
DA:1381,6420
DA:1382,6420
DA:1384,6420
DA:1385,6420
DA:1386,6420
DA:1387,6420
DA:1401,67743
DA:1403,67743
DA:1404,67743
DA:1406,67743
DA:1407,67743
DA:1415,135486
DA:1416,67743
DA:1420,4663
DA:1422,4663
DA:1423,4663
DA:1425,4663
DA:1426,4663
DA:1427,4663
DA:1433,67743
DA:1569,0
DA:1571,0
DA:1575,0
DA:1580,0
DA:1581,0
DA:1586,0
DA:1569,19755
DA:1571,19755
DA:1575,19755
DA:1580,0
DA:1581,0
DA:1586,0
DA:1569,211556
DA:1571,211556
DA:1575,211556
DA:1580,832
DA:1581,0
DA:1586,0
DA:1569,312140
DA:1571,312140
DA:1575,312140
DA:1580,1656
DA:1581,0
DA:1586,0
DA:1757,20
DA:1762,20
DA:1764,20
DA:1766,0
DA:1767,0
DA:1768,0
DA:1769,0
DA:1771,0
DA:1774,40
DA:1757,20
DA:1762,20
DA:1764,20
DA:1766,0
DA:1767,0
DA:1768,0
DA:1769,0
DA:1771,0
DA:1774,40
DA:1845,955
DA:1847,955
DA:1849,1910
DA:1845,4765
DA:1847,4765
DA:1849,9530
LF:92
LH:58
end_of_record
SF:/usr/share/miniconda3/envs/moose/x86_64-conda-linux-gnu/include/c++/10.4.0/bits/hashtable.h
FN:425,_ZNSt10_HashtableINSt7__cxx1112basic_stringIcSt11char_traitsIcESaIcEEESt4pairIKS5_S5_ESaIS8_ENSt8__detail10_Select1stESt8equal_toIS5_ESt4hashIS5_ENSA_18_Mod_range_hashingENSA_20_Default_ranged_hashENSA_20_Prime_rehash_policyENSA_17_Hashtable_traitsILb1ELb0ELb1EEEE21_M_deallocate_bucketsEv
FNDA:0,_ZNSt10_HashtableINSt7__cxx1112basic_stringIcSt11char_traitsIcESaIcEEESt4pairIKS5_S5_ESaIS8_ENSt8__detail10_Select1stESt8equal_toIS5_ESt4hashIS5_ENSA_18_Mod_range_hashingENSA_20_Default_ranged_hashENSA_20_Prime_rehash_policyENSA_17_Hashtable_traitsILb1ELb0ELb1EEEE21_M_deallocate_bucketsEv
FN:425,_ZNSt10_HashtableINSt7__cxx1112basic_stringIcSt11char_traitsIcESaIcEEESt4pairIKS5_St10unique_ptrI10MooseArrayIdESt14default_deleteISA_EEESaISE_ENSt8__detail10_Select1stESt8equal_toIS5_ESt4hashIS5_ENSG_18_Mod_range_hashingENSG_20_Default_ranged_hashENSG_20_Prime_rehash_policyENSG_17_Hashtable_traitsILb1ELb0ELb1EEEE21_M_deallocate_bucketsEv
FNDA:0,_ZNSt10_HashtableINSt7__cxx1112basic_stringIcSt11char_traitsIcESaIcEEESt4pairIKS5_St10unique_ptrI10MooseArrayIdESt14default_deleteISA_EEESaISE_ENSt8__detail10_Select1stESt8equal_toIS5_ESt4hashIS5_ENSG_18_Mod_range_hashingENSG_20_Default_ranged_hashENSG_20_Prime_rehash_policyENSG_17_Hashtable_traitsILb1ELb0ELb1EEEE21_M_deallocate_bucketsEv
FN:425,_ZNSt10_HashtableINSt7__cxx1112basic_stringIcSt11char_traitsIcESaIcEEESt4pairIKS5_St6vectorIP22MooseVariableFieldBaseSaISA_EEESaISD_ENSt8__detail10_Select1stESt8equal_toIS5_ESt4hashIS5_ENSF_18_Mod_range_hashingENSF_20_Default_ranged_hashENSF_20_Prime_rehash_policyENSF_17_Hashtable_traitsILb1ELb0ELb1EEEE21_M_deallocate_bucketsEv
FNDA:0,_ZNSt10_HashtableINSt7__cxx1112basic_stringIcSt11char_traitsIcESaIcEEESt4pairIKS5_St6vectorIP22MooseVariableFieldBaseSaISA_EEESaISD_ENSt8__detail10_Select1stESt8equal_toIS5_ESt4hashIS5_ENSF_18_Mod_range_hashingENSF_20_Default_ranged_hashENSF_20_Prime_rehash_policyENSF_17_Hashtable_traitsILb1ELb0ELb1EEEE21_M_deallocate_bucketsEv
FN:425,_ZNSt10_HashtableINSt7__cxx1112basic_stringIcSt11char_traitsIcESaIcEEESt4pairIKS5_St6vectorIP19MooseVariableScalarSaISA_EEESaISD_ENSt8__detail10_Select1stESt8equal_toIS5_ESt4hashIS5_ENSF_18_Mod_range_hashingENSF_20_Default_ranged_hashENSF_20_Prime_rehash_policyENSF_17_Hashtable_traitsILb1ELb0ELb1EEEE21_M_deallocate_bucketsEv
FNDA:0,_ZNSt10_HashtableINSt7__cxx1112basic_stringIcSt11char_traitsIcESaIcEEESt4pairIKS5_St6vectorIP19MooseVariableScalarSaISA_EEESaISD_ENSt8__detail10_Select1stESt8equal_toIS5_ESt4hashIS5_ENSF_18_Mod_range_hashingENSF_20_Default_ranged_hashENSF_20_Prime_rehash_policyENSF_17_Hashtable_traitsILb1ELb0ELb1EEEE21_M_deallocate_bucketsEv
FN:425,_ZNSt10_HashtableINSt7__cxx1112basic_stringIcSt11char_traitsIcESaIcEEESt4pairIKS5_St6vectorIjSaIjEEESaISB_ENSt8__detail10_Select1stESt8equal_toIS5_ESt4hashIS5_ENSD_18_Mod_range_hashingENSD_20_Default_ranged_hashENSD_20_Prime_rehash_policyENSD_17_Hashtable_traitsILb1ELb0ELb1EEEE21_M_deallocate_bucketsEv
FNDA:0,_ZNSt10_HashtableINSt7__cxx1112basic_stringIcSt11char_traitsIcESaIcEEESt4pairIKS5_St6vectorIjSaIjEEESaISB_ENSt8__detail10_Select1stESt8equal_toIS5_ESt4hashIS5_ENSD_18_Mod_range_hashingENSD_20_Default_ranged_hashENSD_20_Prime_rehash_policyENSD_17_Hashtable_traitsILb1ELb0ELb1EEEE21_M_deallocate_bucketsEv
FN:425,_ZNSt10_HashtableINSt7__cxx1112basic_stringIcSt11char_traitsIcESaIcEEESt4pairIKS5_St6vectorISt10unique_ptrI10MooseArrayIdESt14default_deleteISB_EESaISE_EEESaISH_ENSt8__detail10_Select1stESt8equal_toIS5_ESt4hashIS5_ENSJ_18_Mod_range_hashingENSJ_20_Default_ranged_hashENSJ_20_Prime_rehash_policyENSJ_17_Hashtable_traitsILb1ELb0ELb1EEEE21_M_deallocate_bucketsEv
FNDA:0,_ZNSt10_HashtableINSt7__cxx1112basic_stringIcSt11char_traitsIcESaIcEEESt4pairIKS5_St6vectorISt10unique_ptrI10MooseArrayIdESt14default_deleteISB_EESaISE_EEESaISH_ENSt8__detail10_Select1stESt8equal_toIS5_ESt4hashIS5_ENSJ_18_Mod_range_hashingENSJ_20_Default_ranged_hashENSJ_20_Prime_rehash_policyENSJ_17_Hashtable_traitsILb1ELb0ELb1EEEE21_M_deallocate_bucketsEv
FN:425,_ZNSt10_HashtableINSt7__cxx1112basic_stringIcSt11char_traitsIcESaIcEEESt4pairIKS5_St10unique_ptrI10MooseArrayIN7libMesh11VectorValueIN11MetaPhysicL10DualNumberIdNSC_28SemiDynamicSparseNumberArrayIdmNSC_8NWrapperILm64EEEEELb1EEEEEESt14default_deleteISK_EEESaISO_ENSt8__detail10_Select1stESt8equal_toIS5_ESt4hashIS5_ENSQ_18_Mod_range_hashingENSQ_20_Default_ranged_hashENSQ_20_Prime_rehash_policyENSQ_17_Hashtable_traitsILb1ELb0ELb1EEEE21_M_deallocate_bucketsEv
FNDA:0,_ZNSt10_HashtableINSt7__cxx1112basic_stringIcSt11char_traitsIcESaIcEEESt4pairIKS5_St10unique_ptrI10MooseArrayIN7libMesh11VectorValueIN11MetaPhysicL10DualNumberIdNSC_28SemiDynamicSparseNumberArrayIdmNSC_8NWrapperILm64EEEEELb1EEEEEESt14default_deleteISK_EEESaISO_ENSt8__detail10_Select1stESt8equal_toIS5_ESt4hashIS5_ENSQ_18_Mod_range_hashingENSQ_20_Default_ranged_hashENSQ_20_Prime_rehash_policyENSQ_17_Hashtable_traitsILb1ELb0ELb1EEEE21_M_deallocate_bucketsEv
FN:425,_ZNSt10_HashtableINSt7__cxx1112basic_stringIcSt11char_traitsIcESaIcEEESt4pairIKS5_St10unique_ptrI10MooseArrayIN5Eigen6MatrixIdLin1ELi1ELi0ELin1ELi1EEEESt14default_deleteISD_EEESaISH_ENSt8__detail10_Select1stESt8equal_toIS5_ESt4hashIS5_ENSJ_18_Mod_range_hashingENSJ_20_Default_ranged_hashENSJ_20_Prime_rehash_policyENSJ_17_Hashtable_traitsILb1ELb0ELb1EEEE21_M_deallocate_bucketsEv
FNDA:0,_ZNSt10_HashtableINSt7__cxx1112basic_stringIcSt11char_traitsIcESaIcEEESt4pairIKS5_St10unique_ptrI10MooseArrayIN5Eigen6MatrixIdLin1ELi1ELi0ELin1ELi1EEEESt14default_deleteISD_EEESaISH_ENSt8__detail10_Select1stESt8equal_toIS5_ESt4hashIS5_ENSJ_18_Mod_range_hashingENSJ_20_Default_ranged_hashENSJ_20_Prime_rehash_policyENSJ_17_Hashtable_traitsILb1ELb0ELb1EEEE21_M_deallocate_bucketsEv
FN:425,_ZNSt10_HashtableINSt7__cxx1112basic_stringIcSt11char_traitsIcESaIcEEESt4pairIKS5_St10unique_ptrI10MooseArrayIN11MetaPhysicL10DualNumberIdNSA_28SemiDynamicSparseNumberArrayIdmNSA_8NWrapperILm64EEEEELb1EEEESt14default_deleteISH_EEESaISL_ENSt8__detail10_Select1stESt8equal_toIS5_ESt4hashIS5_ENSN_18_Mod_range_hashingENSN_20_Default_ranged_hashENSN_20_Prime_rehash_policyENSN_17_Hashtable_traitsILb1ELb0ELb1EEEE21_M_deallocate_bucketsEv
FNDA:0,_ZNSt10_HashtableINSt7__cxx1112basic_stringIcSt11char_traitsIcESaIcEEESt4pairIKS5_St10unique_ptrI10MooseArrayIN11MetaPhysicL10DualNumberIdNSA_28SemiDynamicSparseNumberArrayIdmNSA_8NWrapperILm64EEEEELb1EEEESt14default_deleteISH_EEESaISL_ENSt8__detail10_Select1stESt8equal_toIS5_ESt4hashIS5_ENSN_18_Mod_range_hashingENSN_20_Default_ranged_hashENSN_20_Prime_rehash_policyENSN_17_Hashtable_traitsILb1ELb0ELb1EEEE21_M_deallocate_bucketsEv
FN:425,_ZNSt10_HashtableINSt7__cxx1112basic_stringIcSt11char_traitsIcESaIcEEESt4pairIKS5_St10unique_ptrI10MooseArrayIN7libMesh11VectorValueIdEEESt14default_deleteISD_EEESaISH_ENSt8__detail10_Select1stESt8equal_toIS5_ESt4hashIS5_ENSJ_18_Mod_range_hashingENSJ_20_Default_ranged_hashENSJ_20_Prime_rehash_policyENSJ_17_Hashtable_traitsILb1ELb0ELb1EEEE21_M_deallocate_bucketsEv
FNDA:0,_ZNSt10_HashtableINSt7__cxx1112basic_stringIcSt11char_traitsIcESaIcEEESt4pairIKS5_St10unique_ptrI10MooseArrayIN7libMesh11VectorValueIdEEESt14default_deleteISD_EEESaISH_ENSt8__detail10_Select1stESt8equal_toIS5_ESt4hashIS5_ENSJ_18_Mod_range_hashingENSJ_20_Default_ranged_hashENSJ_20_Prime_rehash_policyENSJ_17_Hashtable_traitsILb1ELb0ELb1EEEE21_M_deallocate_bucketsEv
FN:2081,_ZNSt10_HashtableINSt7__cxx1112basic_stringIcSt11char_traitsIcESaIcEEESt4pairIKS5_St6vectorIP22MooseVariableFieldBaseSaISA_EEESaISD_ENSt8__detail10_Select1stESt8equal_toIS5_ESt4hashIS5_ENSF_18_Mod_range_hashingENSF_20_Default_ranged_hashENSF_20_Prime_rehash_policyENSF_17_Hashtable_traitsILb1ELb0ELb1EEEE5clearEv
FNDA:0,_ZNSt10_HashtableINSt7__cxx1112basic_stringIcSt11char_traitsIcESaIcEEESt4pairIKS5_St6vectorIP22MooseVariableFieldBaseSaISA_EEESaISD_ENSt8__detail10_Select1stESt8equal_toIS5_ESt4hashIS5_ENSF_18_Mod_range_hashingENSF_20_Default_ranged_hashENSF_20_Prime_rehash_policyENSF_17_Hashtable_traitsILb1ELb0ELb1EEEE5clearEv
FN:2081,_ZNSt10_HashtableINSt7__cxx1112basic_stringIcSt11char_traitsIcESaIcEEESt4pairIKS5_St6vectorISt10unique_ptrI10MooseArrayIdESt14default_deleteISB_EESaISE_EEESaISH_ENSt8__detail10_Select1stESt8equal_toIS5_ESt4hashIS5_ENSJ_18_Mod_range_hashingENSJ_20_Default_ranged_hashENSJ_20_Prime_rehash_policyENSJ_17_Hashtable_traitsILb1ELb0ELb1EEEE5clearEv
FNDA:0,_ZNSt10_HashtableINSt7__cxx1112basic_stringIcSt11char_traitsIcESaIcEEESt4pairIKS5_St6vectorISt10unique_ptrI10MooseArrayIdESt14default_deleteISB_EESaISE_EEESaISH_ENSt8__detail10_Select1stESt8equal_toIS5_ESt4hashIS5_ENSJ_18_Mod_range_hashingENSJ_20_Default_ranged_hashENSJ_20_Prime_rehash_policyENSJ_17_Hashtable_traitsILb1ELb0ELb1EEEE5clearEv
FN:2081,_ZNSt10_HashtableINSt7__cxx1112basic_stringIcSt11char_traitsIcESaIcEEESt4pairIKS5_St10unique_ptrI10MooseArrayIN11MetaPhysicL10DualNumberIdNSA_28SemiDynamicSparseNumberArrayIdmNSA_8NWrapperILm64EEEEELb1EEEESt14default_deleteISH_EEESaISL_ENSt8__detail10_Select1stESt8equal_toIS5_ESt4hashIS5_ENSN_18_Mod_range_hashingENSN_20_Default_ranged_hashENSN_20_Prime_rehash_policyENSN_17_Hashtable_traitsILb1ELb0ELb1EEEE5clearEv
FNDA:0,_ZNSt10_HashtableINSt7__cxx1112basic_stringIcSt11char_traitsIcESaIcEEESt4pairIKS5_St10unique_ptrI10MooseArrayIN11MetaPhysicL10DualNumberIdNSA_28SemiDynamicSparseNumberArrayIdmNSA_8NWrapperILm64EEEEELb1EEEESt14default_deleteISH_EEESaISL_ENSt8__detail10_Select1stESt8equal_toIS5_ESt4hashIS5_ENSN_18_Mod_range_hashingENSN_20_Default_ranged_hashENSN_20_Prime_rehash_policyENSN_17_Hashtable_traitsILb1ELb0ELb1EEEE5clearEv
FN:2081,_ZNSt10_HashtableINSt7__cxx1112basic_stringIcSt11char_traitsIcESaIcEEESt4pairIKS5_St10unique_ptrI10MooseArrayIN7libMesh11VectorValueIdEEESt14default_deleteISD_EEESaISH_ENSt8__detail10_Select1stESt8equal_toIS5_ESt4hashIS5_ENSJ_18_Mod_range_hashingENSJ_20_Default_ranged_hashENSJ_20_Prime_rehash_policyENSJ_17_Hashtable_traitsILb1ELb0ELb1EEEE5clearEv
FNDA:0,_ZNSt10_HashtableINSt7__cxx1112basic_stringIcSt11char_traitsIcESaIcEEESt4pairIKS5_St10unique_ptrI10MooseArrayIN7libMesh11VectorValueIdEEESt14default_deleteISD_EEESaISH_ENSt8__detail10_Select1stESt8equal_toIS5_ESt4hashIS5_ENSJ_18_Mod_range_hashingENSJ_20_Default_ranged_hashENSJ_20_Prime_rehash_policyENSJ_17_Hashtable_traitsILb1ELb0ELb1EEEE5clearEv
FN:2081,_ZNSt10_HashtableINSt7__cxx1112basic_stringIcSt11char_traitsIcESaIcEEESt4pairIKS5_St10unique_ptrI10MooseArrayIN5Eigen6MatrixIdLin1ELi1ELi0ELin1ELi1EEEESt14default_deleteISD_EEESaISH_ENSt8__detail10_Select1stESt8equal_toIS5_ESt4hashIS5_ENSJ_18_Mod_range_hashingENSJ_20_Default_ranged_hashENSJ_20_Prime_rehash_policyENSJ_17_Hashtable_traitsILb1ELb0ELb1EEEE5clearEv
FNDA:0,_ZNSt10_HashtableINSt7__cxx1112basic_stringIcSt11char_traitsIcESaIcEEESt4pairIKS5_St10unique_ptrI10MooseArrayIN5Eigen6MatrixIdLin1ELi1ELi0ELin1ELi1EEEESt14default_deleteISD_EEESaISH_ENSt8__detail10_Select1stESt8equal_toIS5_ESt4hashIS5_ENSJ_18_Mod_range_hashingENSJ_20_Default_ranged_hashENSJ_20_Prime_rehash_policyENSJ_17_Hashtable_traitsILb1ELb0ELb1EEEE5clearEv
FN:2081,_ZNSt10_HashtableINSt7__cxx1112basic_stringIcSt11char_traitsIcESaIcEEESt4pairIKS5_St10unique_ptrI10MooseArrayIN7libMesh11VectorValueIN11MetaPhysicL10DualNumberIdNSC_28SemiDynamicSparseNumberArrayIdmNSC_8NWrapperILm64EEEEELb1EEEEEESt14default_deleteISK_EEESaISO_ENSt8__detail10_Select1stESt8equal_toIS5_ESt4hashIS5_ENSQ_18_Mod_range_hashingENSQ_20_Default_ranged_hashENSQ_20_Prime_rehash_policyENSQ_17_Hashtable_traitsILb1ELb0ELb1EEEE5clearEv
FNDA:0,_ZNSt10_HashtableINSt7__cxx1112basic_stringIcSt11char_traitsIcESaIcEEESt4pairIKS5_St10unique_ptrI10MooseArrayIN7libMesh11VectorValueIN11MetaPhysicL10DualNumberIdNSC_28SemiDynamicSparseNumberArrayIdmNSC_8NWrapperILm64EEEEELb1EEEEEESt14default_deleteISK_EEESaISO_ENSt8__detail10_Select1stESt8equal_toIS5_ESt4hashIS5_ENSQ_18_Mod_range_hashingENSQ_20_Default_ranged_hashENSQ_20_Prime_rehash_policyENSQ_17_Hashtable_traitsILb1ELb0ELb1EEEE5clearEv
FN:2081,_ZNSt10_HashtableINSt7__cxx1112basic_stringIcSt11char_traitsIcESaIcEEESt4pairIKS5_St6vectorIjSaIjEEESaISB_ENSt8__detail10_Select1stESt8equal_toIS5_ESt4hashIS5_ENSD_18_Mod_range_hashingENSD_20_Default_ranged_hashENSD_20_Prime_rehash_policyENSD_17_Hashtable_traitsILb1ELb0ELb1EEEE5clearEv
FNDA:0,_ZNSt10_HashtableINSt7__cxx1112basic_stringIcSt11char_traitsIcESaIcEEESt4pairIKS5_St6vectorIjSaIjEEESaISB_ENSt8__detail10_Select1stESt8equal_toIS5_ESt4hashIS5_ENSD_18_Mod_range_hashingENSD_20_Default_ranged_hashENSD_20_Prime_rehash_policyENSD_17_Hashtable_traitsILb1ELb0ELb1EEEE5clearEv
FN:2081,_ZNSt10_HashtableINSt7__cxx1112basic_stringIcSt11char_traitsIcESaIcEEESt4pairIKS5_St6vectorIP19MooseVariableScalarSaISA_EEESaISD_ENSt8__detail10_Select1stESt8equal_toIS5_ESt4hashIS5_ENSF_18_Mod_range_hashingENSF_20_Default_ranged_hashENSF_20_Prime_rehash_policyENSF_17_Hashtable_traitsILb1ELb0ELb1EEEE5clearEv
FNDA:0,_ZNSt10_HashtableINSt7__cxx1112basic_stringIcSt11char_traitsIcESaIcEEESt4pairIKS5_St6vectorIP19MooseVariableScalarSaISA_EEESaISD_ENSt8__detail10_Select1stESt8equal_toIS5_ESt4hashIS5_ENSF_18_Mod_range_hashingENSF_20_Default_ranged_hashENSF_20_Prime_rehash_policyENSF_17_Hashtable_traitsILb1ELb0ELb1EEEE5clearEv
FN:2081,_ZNSt10_HashtableINSt7__cxx1112basic_stringIcSt11char_traitsIcESaIcEEESt4pairIKS5_St10unique_ptrI10MooseArrayIdESt14default_deleteISA_EEESaISE_ENSt8__detail10_Select1stESt8equal_toIS5_ESt4hashIS5_ENSG_18_Mod_range_hashingENSG_20_Default_ranged_hashENSG_20_Prime_rehash_policyENSG_17_Hashtable_traitsILb1ELb0ELb1EEEE5clearEv
FNDA:0,_ZNSt10_HashtableINSt7__cxx1112basic_stringIcSt11char_traitsIcESaIcEEESt4pairIKS5_St10unique_ptrI10MooseArrayIdESt14default_deleteISA_EEESaISE_ENSt8__detail10_Select1stESt8equal_toIS5_ESt4hashIS5_ENSG_18_Mod_range_hashingENSG_20_Default_ranged_hashENSG_20_Prime_rehash_policyENSG_17_Hashtable_traitsILb1ELb0ELb1EEEE5clearEv
FN:2081,_ZNSt10_HashtableINSt7__cxx1112basic_stringIcSt11char_traitsIcESaIcEEESt4pairIKS5_S5_ESaIS8_ENSt8__detail10_Select1stESt8equal_toIS5_ESt4hashIS5_ENSA_18_Mod_range_hashingENSA_20_Default_ranged_hashENSA_20_Prime_rehash_policyENSA_17_Hashtable_traitsILb1ELb0ELb1EEEE5clearEv
FNDA:0,_ZNSt10_HashtableINSt7__cxx1112basic_stringIcSt11char_traitsIcESaIcEEESt4pairIKS5_S5_ESaIS8_ENSt8__detail10_Select1stESt8equal_toIS5_ESt4hashIS5_ENSA_18_Mod_range_hashingENSA_20_Default_ranged_hashENSA_20_Prime_rehash_policyENSA_17_Hashtable_traitsILb1ELb0ELb1EEEE5clearEv
FNF:20
FNH:0
DA:394,0
DA:418,0
DA:425,0
DA:426,0
DA:425,0
DA:426,0
DA:425,0
DA:426,0
DA:425,0
DA:426,0
DA:425,0
DA:426,0
DA:425,0
DA:426,0
DA:425,0
DA:426,0
DA:425,0
DA:426,0
DA:425,0
DA:426,0
DA:425,0
DA:426,0
DA:435,0
DA:1442,0
DA:1443,0
DA:2081,0
DA:2086,0
DA:2087,0
DA:2088,0
DA:2089,0
DA:2081,0
DA:2086,0
DA:2087,0
DA:2088,0
DA:2089,0
DA:2081,0
DA:2086,0
DA:2087,0
DA:2088,0
DA:2089,0
DA:2081,0
DA:2086,0
DA:2087,0
DA:2088,0
DA:2089,0
DA:2081,0
DA:2086,0
DA:2087,0
DA:2088,0
DA:2089,0
DA:2081,0
DA:2086,0
DA:2087,0
DA:2088,0
DA:2089,0
DA:2081,0
DA:2086,0
DA:2087,0
DA:2088,0
DA:2089,0
DA:2081,0
DA:2086,0
DA:2087,0
DA:2088,0
DA:2089,0
DA:2081,0
DA:2086,0
DA:2087,0
DA:2088,0
DA:2089,0
DA:2081,0
DA:2086,0
DA:2087,0
DA:2088,0
DA:2089,0
LF:75
LH:0
end_of_record
SF:/usr/share/miniconda3/envs/moose/x86_64-conda-linux-gnu/include/c++/10.4.0/bits/shared_ptr_base.h
FN:134,_ZNSt16_Sp_counted_baseILN9__gnu_cxx12_Lock_policyE2EE10_M_destroyEv
FNDA:0,_ZNSt16_Sp_counted_baseILN9__gnu_cxx12_Lock_policyE2EE10_M_destroyEv
FN:141,_ZNSt16_Sp_counted_baseILN9__gnu_cxx12_Lock_policyE2EE15_M_add_ref_copyEv
FNDA:34,_ZNSt16_Sp_counted_baseILN9__gnu_cxx12_Lock_policyE2EE15_M_add_ref_copyEv
FN:151,_ZNSt16_Sp_counted_baseILN9__gnu_cxx12_Lock_policyE2EE10_M_releaseEv
FNDA:0,_ZNSt16_Sp_counted_baseILN9__gnu_cxx12_Lock_policyE2EE10_M_releaseEv
FN:407,_ZNSt15_Sp_counted_ptrIDnLN9__gnu_cxx12_Lock_policyE2EE10_M_disposeEv
FNDA:0,_ZNSt15_Sp_counted_ptrIDnLN9__gnu_cxx12_Lock_policyE2EE10_M_disposeEv
FN:555,_ZNSt23_Sp_counted_ptr_inplaceINSt13__future_base13_State_baseV2ESaIS1_ELN9__gnu_cxx12_Lock_policyE2EED0Ev
FNDA:0,_ZNSt23_Sp_counted_ptr_inplaceINSt13__future_base13_State_baseV2ESaIS1_ELN9__gnu_cxx12_Lock_policyE2EED0Ev
FN:555,_ZNSt23_Sp_counted_ptr_inplaceI13RegistryEntryI17BVShearTractionBCESaIS2_ELN9__gnu_cxx12_Lock_policyE2EED2Ev
FNDA:0,_ZNSt23_Sp_counted_ptr_inplaceI13RegistryEntryI17BVShearTractionBCESaIS2_ELN9__gnu_cxx12_Lock_policyE2EED2Ev
FN:555,_ZNSt23_Sp_counted_ptr_inplaceI13RegistryEntryI17BVShearTractionBCESaIS2_ELN9__gnu_cxx12_Lock_policyE2EED0Ev
FNDA:0,_ZNSt23_Sp_counted_ptr_inplaceI13RegistryEntryI17BVShearTractionBCESaIS2_ELN9__gnu_cxx12_Lock_policyE2EED0Ev
FN:555,_ZNSt23_Sp_counted_ptr_inplaceI13RegistryEntryI12BVPressureBCESaIS2_ELN9__gnu_cxx12_Lock_policyE2EED2Ev
FNDA:0,_ZNSt23_Sp_counted_ptr_inplaceI13RegistryEntryI12BVPressureBCESaIS2_ELN9__gnu_cxx12_Lock_policyE2EED2Ev
FN:555,_ZNSt23_Sp_counted_ptr_inplaceI13RegistryEntryI12BVPressureBCESaIS2_ELN9__gnu_cxx12_Lock_policyE2EED0Ev
FNDA:0,_ZNSt23_Sp_counted_ptr_inplaceI13RegistryEntryI12BVPressureBCESaIS2_ELN9__gnu_cxx12_Lock_policyE2EED0Ev
FN:555,_ZNSt23_Sp_counted_ptr_inplaceINSt13__future_base13_State_baseV2ESaIS1_ELN9__gnu_cxx12_Lock_policyE2EED2Ev
FNDA:0,_ZNSt23_Sp_counted_ptr_inplaceINSt13__future_base13_State_baseV2ESaIS1_ELN9__gnu_cxx12_Lock_policyE2EED2Ev
FN:555,_ZNSt23_Sp_counted_ptr_inplaceISt5mutexSaIS0_ELN9__gnu_cxx12_Lock_policyE2EED2Ev
FNDA:0,_ZNSt23_Sp_counted_ptr_inplaceISt5mutexSaIS0_ELN9__gnu_cxx12_Lock_policyE2EED2Ev
FN:555,_ZNSt23_Sp_counted_ptr_inplaceISt5mutexSaIS0_ELN9__gnu_cxx12_Lock_policyE2EED0Ev
FNDA:0,_ZNSt23_Sp_counted_ptr_inplaceISt5mutexSaIS0_ELN9__gnu_cxx12_Lock_policyE2EED0Ev
FN:555,_ZNSt23_Sp_counted_ptr_inplaceI17BVShearTractionBCSaIS0_ELN9__gnu_cxx12_Lock_policyE2EED0Ev
FNDA:0,_ZNSt23_Sp_counted_ptr_inplaceI17BVShearTractionBCSaIS0_ELN9__gnu_cxx12_Lock_policyE2EED0Ev
FN:555,_ZNSt23_Sp_counted_ptr_inplaceI17BVShearTractionBCSaIS0_ELN9__gnu_cxx12_Lock_policyE2EED2Ev
FNDA:0,_ZNSt23_Sp_counted_ptr_inplaceI17BVShearTractionBCSaIS0_ELN9__gnu_cxx12_Lock_policyE2EED2Ev
FN:555,_ZNSt23_Sp_counted_ptr_inplaceI12BVPressureBCSaIS0_ELN9__gnu_cxx12_Lock_policyE2EED0Ev
FNDA:0,_ZNSt23_Sp_counted_ptr_inplaceI12BVPressureBCSaIS0_ELN9__gnu_cxx12_Lock_policyE2EED0Ev
FN:555,_ZNSt23_Sp_counted_ptr_inplaceI12BVPressureBCSaIS0_ELN9__gnu_cxx12_Lock_policyE2EED2Ev
FNDA:0,_ZNSt23_Sp_counted_ptr_inplaceI12BVPressureBCSaIS0_ELN9__gnu_cxx12_Lock_policyE2EED2Ev
FN:558,_ZNSt23_Sp_counted_ptr_inplaceISt5mutexSaIS0_ELN9__gnu_cxx12_Lock_policyE2EE10_M_disposeEv
FNDA:0,_ZNSt23_Sp_counted_ptr_inplaceISt5mutexSaIS0_ELN9__gnu_cxx12_Lock_policyE2EE10_M_disposeEv
FN:558,_ZNSt23_Sp_counted_ptr_inplaceI17BVShearTractionBCSaIS0_ELN9__gnu_cxx12_Lock_policyE2EE10_M_disposeEv
FNDA:0,_ZNSt23_Sp_counted_ptr_inplaceI17BVShearTractionBCSaIS0_ELN9__gnu_cxx12_Lock_policyE2EE10_M_disposeEv
FN:558,_ZNSt23_Sp_counted_ptr_inplaceI13RegistryEntryI17BVShearTractionBCESaIS2_ELN9__gnu_cxx12_Lock_policyE2EE10_M_disposeEv
FNDA:0,_ZNSt23_Sp_counted_ptr_inplaceI13RegistryEntryI17BVShearTractionBCESaIS2_ELN9__gnu_cxx12_Lock_policyE2EE10_M_disposeEv
FN:558,_ZNSt23_Sp_counted_ptr_inplaceI12BVPressureBCSaIS0_ELN9__gnu_cxx12_Lock_policyE2EE10_M_disposeEv
FNDA:20,_ZNSt23_Sp_counted_ptr_inplaceI12BVPressureBCSaIS0_ELN9__gnu_cxx12_Lock_policyE2EE10_M_disposeEv
FN:558,_ZNSt23_Sp_counted_ptr_inplaceI13RegistryEntryI12BVPressureBCESaIS2_ELN9__gnu_cxx12_Lock_policyE2EE10_M_disposeEv
FNDA:0,_ZNSt23_Sp_counted_ptr_inplaceI13RegistryEntryI12BVPressureBCESaIS2_ELN9__gnu_cxx12_Lock_policyE2EE10_M_disposeEv
FN:558,_ZNSt23_Sp_counted_ptr_inplaceINSt13__future_base13_State_baseV2ESaIS1_ELN9__gnu_cxx12_Lock_policyE2EE10_M_disposeEv
FNDA:0,_ZNSt23_Sp_counted_ptr_inplaceINSt13__future_base13_State_baseV2ESaIS1_ELN9__gnu_cxx12_Lock_policyE2EE10_M_disposeEv
FN:565,_ZNSt23_Sp_counted_ptr_inplaceI13RegistryEntryI12BVPressureBCESaIS2_ELN9__gnu_cxx12_Lock_policyE2EE10_M_destroyEv
FNDA:0,_ZNSt23_Sp_counted_ptr_inplaceI13RegistryEntryI12BVPressureBCESaIS2_ELN9__gnu_cxx12_Lock_policyE2EE10_M_destroyEv
FN:565,_ZNSt23_Sp_counted_ptr_inplaceI13RegistryEntryI17BVShearTractionBCESaIS2_ELN9__gnu_cxx12_Lock_policyE2EE10_M_destroyEv
FNDA:0,_ZNSt23_Sp_counted_ptr_inplaceI13RegistryEntryI17BVShearTractionBCESaIS2_ELN9__gnu_cxx12_Lock_policyE2EE10_M_destroyEv
FN:565,_ZNSt23_Sp_counted_ptr_inplaceINSt13__future_base13_State_baseV2ESaIS1_ELN9__gnu_cxx12_Lock_policyE2EE10_M_destroyEv
FNDA:0,_ZNSt23_Sp_counted_ptr_inplaceINSt13__future_base13_State_baseV2ESaIS1_ELN9__gnu_cxx12_Lock_policyE2EE10_M_destroyEv
FN:565,_ZNSt23_Sp_counted_ptr_inplaceI12BVPressureBCSaIS0_ELN9__gnu_cxx12_Lock_policyE2EE10_M_destroyEv
FNDA:20,_ZNSt23_Sp_counted_ptr_inplaceI12BVPressureBCSaIS0_ELN9__gnu_cxx12_Lock_policyE2EE10_M_destroyEv
FN:565,_ZNSt23_Sp_counted_ptr_inplaceISt5mutexSaIS0_ELN9__gnu_cxx12_Lock_policyE2EE10_M_destroyEv
FNDA:0,_ZNSt23_Sp_counted_ptr_inplaceISt5mutexSaIS0_ELN9__gnu_cxx12_Lock_policyE2EE10_M_destroyEv
FN:565,_ZNSt23_Sp_counted_ptr_inplaceI17BVShearTractionBCSaIS0_ELN9__gnu_cxx12_Lock_policyE2EE10_M_destroyEv
FNDA:0,_ZNSt23_Sp_counted_ptr_inplaceI17BVShearTractionBCSaIS0_ELN9__gnu_cxx12_Lock_policyE2EE10_M_destroyEv
FN:578,_ZNSt23_Sp_counted_ptr_inplaceI13RegistryEntryI12BVPressureBCESaIS2_ELN9__gnu_cxx12_Lock_policyE2EE14_M_get_deleterERKSt9type_info
FNDA:0,_ZNSt23_Sp_counted_ptr_inplaceI13RegistryEntryI12BVPressureBCESaIS2_ELN9__gnu_cxx12_Lock_policyE2EE14_M_get_deleterERKSt9type_info
FN:578,_ZNSt23_Sp_counted_ptr_inplaceI17BVShearTractionBCSaIS0_ELN9__gnu_cxx12_Lock_policyE2EE14_M_get_deleterERKSt9type_info
FNDA:0,_ZNSt23_Sp_counted_ptr_inplaceI17BVShearTractionBCSaIS0_ELN9__gnu_cxx12_Lock_policyE2EE14_M_get_deleterERKSt9type_info
FN:578,_ZNSt23_Sp_counted_ptr_inplaceI13RegistryEntryI17BVShearTractionBCESaIS2_ELN9__gnu_cxx12_Lock_policyE2EE14_M_get_deleterERKSt9type_info
FNDA:0,_ZNSt23_Sp_counted_ptr_inplaceI13RegistryEntryI17BVShearTractionBCESaIS2_ELN9__gnu_cxx12_Lock_policyE2EE14_M_get_deleterERKSt9type_info
FN:578,_ZNSt23_Sp_counted_ptr_inplaceI12BVPressureBCSaIS0_ELN9__gnu_cxx12_Lock_policyE2EE14_M_get_deleterERKSt9type_info
FNDA:0,_ZNSt23_Sp_counted_ptr_inplaceI12BVPressureBCSaIS0_ELN9__gnu_cxx12_Lock_policyE2EE14_M_get_deleterERKSt9type_info
FN:675,_ZNSt14__shared_countILN9__gnu_cxx12_Lock_policyE2EEC2I13RegistryEntryI17BVShearTractionBCESaIS6_EJRK17RegistryEntryDataEEERPT_St20_Sp_alloc_shared_tagIT0_EDpOT1_
FNDA:17,_ZNSt14__shared_countILN9__gnu_cxx12_Lock_policyE2EEC2I13RegistryEntryI17BVShearTractionBCESaIS6_EJRK17RegistryEntryDataEEERPT_St20_Sp_alloc_shared_tagIT0_EDpOT1_
FN:675,_ZNSt14__shared_countILN9__gnu_cxx12_Lock_policyE2EEC2I13RegistryEntryI12BVPressureBCESaIS6_EJRK17RegistryEntryDataEEERPT_St20_Sp_alloc_shared_tagIT0_EDpOT1_
FNDA:17,_ZNSt14__shared_countILN9__gnu_cxx12_Lock_policyE2EEC2I13RegistryEntryI12BVPressureBCESaIS6_EJRK17RegistryEntryDataEEERPT_St20_Sp_alloc_shared_tagIT0_EDpOT1_
FN:675,_ZNSt14__shared_countILN9__gnu_cxx12_Lock_policyE2EEC2I12BVPressureBCSaIS4_EJRK15InputParametersEEERPT_St20_Sp_alloc_shared_tagIT0_EDpOT1_
FNDA:20,_ZNSt14__shared_countILN9__gnu_cxx12_Lock_policyE2EEC2I12BVPressureBCSaIS4_EJRK15InputParametersEEERPT_St20_Sp_alloc_shared_tagIT0_EDpOT1_
FN:675,_ZNSt14__shared_countILN9__gnu_cxx12_Lock_policyE2EEC2I17BVShearTractionBCSaIS4_EJRK15InputParametersEEERPT_St20_Sp_alloc_shared_tagIT0_EDpOT1_
FNDA:0,_ZNSt14__shared_countILN9__gnu_cxx12_Lock_policyE2EEC2I17BVShearTractionBCSaIS4_EJRK15InputParametersEEERPT_St20_Sp_alloc_shared_tagIT0_EDpOT1_
FNF:36
FNH:6
DA:120,54
DA:121,54
DA:134,0
DA:135,0
DA:141,34
DA:142,34
DA:151,0
DA:155,0
DA:158,0
DA:170,0
DA:174,0
DA:177,0
DA:407,0
DA:534,20
DA:546,54
DA:547,54
DA:553,20
DA:555,0
DA:555,0
DA:555,0
DA:555,0
DA:555,0
DA:555,0
DA:555,0
DA:555,0
DA:555,0
DA:555,0
DA:555,0
DA:555,0
DA:555,20
DA:558,0
DA:561,0
DA:558,20
DA:561,20
DA:558,0
DA:561,0
DA:558,0
DA:561,0
DA:558,0
DA:561,0
DA:558,0
DA:561,0
DA:565,0
DA:568,0
DA:570,0
DA:565,20
DA:568,20
DA:570,20
DA:565,0
DA:568,0
DA:570,0
DA:565,0
DA:568,0
DA:570,0
DA:565,0
DA:568,0
DA:570,0
DA:565,0
DA:568,0
DA:570,0
DA:578,0
DA:586,0
DA:588,0
DA:593,0
DA:578,0
DA:586,0
DA:588,0
DA:593,0
DA:578,0
DA:586,0
DA:588,0
DA:593,0
DA:578,0
DA:586,0
DA:588,0
DA:593,0
DA:619,17
DA:675,20
DA:680,0
DA:685,20
DA:686,20
DA:687,20
DA:675,0
DA:680,0
DA:685,0
DA:686,0
DA:687,0
DA:675,17
DA:680,0
DA:685,17
DA:686,17
DA:687,17
DA:675,17
DA:680,0
DA:685,17
DA:686,17
DA:687,17
DA:735,68
DA:736,34
DA:739,34
DA:740,34
DA:742,34
DA:743,34
DA:764,37
DA:765,17
DA:766,37
DA:1192,34
DA:1195,17
DA:1196,0
DA:1199,17
DA:1204,20
DA:1330,68
DA:1375,54
DA:1376,54
LF:114
LH:43
end_of_record
SF:/home/runner/work/beaver/beaver/moose/framework/build/header_symlinks/MooseMesh.h
LF:0
LH:0
end_of_record
SF:/usr/share/miniconda3/envs/moose/x86_64-conda-linux-gnu/include/c++/10.4.0/bits/alloc_traits.h
FN:459,_ZNSt16allocator_traitsISaISt10shared_ptrI17RegistryEntryBaseEEE8allocateERS3_m
FNDA:0,_ZNSt16allocator_traitsISaISt10shared_ptrI17RegistryEntryBaseEEE8allocateERS3_m
FN:459,_ZNSt16allocator_traitsISaIdEE8allocateERS0_m
FNDA:0,_ZNSt16allocator_traitsISaIdEE8allocateERS0_m
FNF:2
FNH:0
DA:459,0
DA:460,0
DA:459,0
DA:460,0
DA:492,40
DA:512,88666
DA:516,88666
LF:7
LH:3
end_of_record
SF:/usr/share/miniconda3/envs/moose/libmesh/include/timpi/message_tag.h
LF:0
LH:0
end_of_record
SF:/usr/share/miniconda3/envs/moose/x86_64-conda-linux-gnu/include/c++/10.4.0/bits/hashtable_policy.h
FN:2052,_ZNSt8__detail16_Hashtable_allocISaINS_10_Hash_nodeISt4pairIKNSt7__cxx1112basic_stringIcSt11char_traitsIcESaIcEEES8_ELb1EEEEE18_M_deallocate_nodeEPSB_
FNDA:0,_ZNSt8__detail16_Hashtable_allocISaINS_10_Hash_nodeISt4pairIKNSt7__cxx1112basic_stringIcSt11char_traitsIcESaIcEEES8_ELb1EEEEE18_M_deallocate_nodeEPSB_
FN:2052,_ZNSt8__detail16_Hashtable_allocISaINS_10_Hash_nodeISt4pairIKNSt7__cxx1112basic_stringIcSt11char_traitsIcESaIcEEESt10unique_ptrI10MooseArrayIdESt14default_deleteISC_EEELb1EEEEE18_M_deallocate_nodeEPSH_
FNDA:0,_ZNSt8__detail16_Hashtable_allocISaINS_10_Hash_nodeISt4pairIKNSt7__cxx1112basic_stringIcSt11char_traitsIcESaIcEEESt10unique_ptrI10MooseArrayIdESt14default_deleteISC_EEELb1EEEEE18_M_deallocate_nodeEPSH_
FN:2052,_ZNSt8__detail16_Hashtable_allocISaINS_10_Hash_nodeISt4pairIKNSt7__cxx1112basic_stringIcSt11char_traitsIcESaIcEEESt6vectorIP19MooseVariableScalarSaISC_EEELb1EEEEE18_M_deallocate_nodeEPSG_
FNDA:0,_ZNSt8__detail16_Hashtable_allocISaINS_10_Hash_nodeISt4pairIKNSt7__cxx1112basic_stringIcSt11char_traitsIcESaIcEEESt6vectorIP19MooseVariableScalarSaISC_EEELb1EEEEE18_M_deallocate_nodeEPSG_
FN:2052,_ZNSt8__detail16_Hashtable_allocISaINS_10_Hash_nodeISt4pairIKNSt7__cxx1112basic_stringIcSt11char_traitsIcESaIcEEESt6vectorIjSaIjEEELb1EEEEE18_M_deallocate_nodeEPSE_
FNDA:0,_ZNSt8__detail16_Hashtable_allocISaINS_10_Hash_nodeISt4pairIKNSt7__cxx1112basic_stringIcSt11char_traitsIcESaIcEEESt6vectorIjSaIjEEELb1EEEEE18_M_deallocate_nodeEPSE_
FN:2052,_ZNSt8__detail16_Hashtable_allocISaINS_10_Hash_nodeISt4pairIKNSt7__cxx1112basic_stringIcSt11char_traitsIcESaIcEEESt10unique_ptrI10MooseArrayIN7libMesh11VectorValueIN11MetaPhysicL10DualNumberIdNSE_28SemiDynamicSparseNumberArrayIdmNSE_8NWrapperILm64EEEEELb1EEEEEESt14default_deleteISM_EEELb1EEEEE18_M_deallocate_nodeEPSR_
FNDA:0,_ZNSt8__detail16_Hashtable_allocISaINS_10_Hash_nodeISt4pairIKNSt7__cxx1112basic_stringIcSt11char_traitsIcESaIcEEESt10unique_ptrI10MooseArrayIN7libMesh11VectorValueIN11MetaPhysicL10DualNumberIdNSE_28SemiDynamicSparseNumberArrayIdmNSE_8NWrapperILm64EEEEELb1EEEEEESt14default_deleteISM_EEELb1EEEEE18_M_deallocate_nodeEPSR_
FN:2052,_ZNSt8__detail16_Hashtable_allocISaINS_10_Hash_nodeISt4pairIKNSt7__cxx1112basic_stringIcSt11char_traitsIcESaIcEEESt10unique_ptrI10MooseArrayIN5Eigen6MatrixIdLin1ELi1ELi0ELin1ELi1EEEESt14default_deleteISF_EEELb1EEEEE18_M_deallocate_nodeEPSK_
FNDA:0,_ZNSt8__detail16_Hashtable_allocISaINS_10_Hash_nodeISt4pairIKNSt7__cxx1112basic_stringIcSt11char_traitsIcESaIcEEESt10unique_ptrI10MooseArrayIN5Eigen6MatrixIdLin1ELi1ELi0ELin1ELi1EEEESt14default_deleteISF_EEELb1EEEEE18_M_deallocate_nodeEPSK_
FN:2052,_ZNSt8__detail16_Hashtable_allocISaINS_10_Hash_nodeISt4pairIKNSt7__cxx1112basic_stringIcSt11char_traitsIcESaIcEEESt10unique_ptrI10MooseArrayIN7libMesh11VectorValueIdEEESt14default_deleteISF_EEELb1EEEEE18_M_deallocate_nodeEPSK_
FNDA:0,_ZNSt8__detail16_Hashtable_allocISaINS_10_Hash_nodeISt4pairIKNSt7__cxx1112basic_stringIcSt11char_traitsIcESaIcEEESt10unique_ptrI10MooseArrayIN7libMesh11VectorValueIdEEESt14default_deleteISF_EEELb1EEEEE18_M_deallocate_nodeEPSK_
FN:2052,_ZNSt8__detail16_Hashtable_allocISaINS_10_Hash_nodeISt4pairIKNSt7__cxx1112basic_stringIcSt11char_traitsIcESaIcEEESt10unique_ptrI10MooseArrayIN11MetaPhysicL10DualNumberIdNSC_28SemiDynamicSparseNumberArrayIdmNSC_8NWrapperILm64EEEEELb1EEEESt14default_deleteISJ_EEELb1EEEEE18_M_deallocate_nodeEPSO_
FNDA:0,_ZNSt8__detail16_Hashtable_allocISaINS_10_Hash_nodeISt4pairIKNSt7__cxx1112basic_stringIcSt11char_traitsIcESaIcEEESt10unique_ptrI10MooseArrayIN11MetaPhysicL10DualNumberIdNSC_28SemiDynamicSparseNumberArrayIdmNSC_8NWrapperILm64EEEEELb1EEEESt14default_deleteISJ_EEELb1EEEEE18_M_deallocate_nodeEPSO_
FN:2052,_ZNSt8__detail16_Hashtable_allocISaINS_10_Hash_nodeISt4pairIKNSt7__cxx1112basic_stringIcSt11char_traitsIcESaIcEEESt6vectorISt10unique_ptrI10MooseArrayIdESt14default_deleteISD_EESaISG_EEELb1EEEEE18_M_deallocate_nodeEPSK_
FNDA:0,_ZNSt8__detail16_Hashtable_allocISaINS_10_Hash_nodeISt4pairIKNSt7__cxx1112basic_stringIcSt11char_traitsIcESaIcEEESt6vectorISt10unique_ptrI10MooseArrayIdESt14default_deleteISD_EESaISG_EEELb1EEEEE18_M_deallocate_nodeEPSK_
FN:2052,_ZNSt8__detail16_Hashtable_allocISaINS_10_Hash_nodeISt4pairIKNSt7__cxx1112basic_stringIcSt11char_traitsIcESaIcEEESt6vectorIP22MooseVariableFieldBaseSaISC_EEELb1EEEEE18_M_deallocate_nodeEPSG_
FNDA:0,_ZNSt8__detail16_Hashtable_allocISaINS_10_Hash_nodeISt4pairIKNSt7__cxx1112basic_stringIcSt11char_traitsIcESaIcEEESt6vectorIP22MooseVariableFieldBaseSaISC_EEELb1EEEEE18_M_deallocate_nodeEPSG_
FNF:10
FNH:0
DA:270,0
DA:2052,0
DA:2056,0
DA:2052,0
DA:2056,0
DA:2052,0
DA:2056,0
DA:2052,0
DA:2056,0
DA:2052,0
DA:2056,0
DA:2052,0
DA:2056,0
DA:2052,0
DA:2056,0
DA:2052,0
DA:2056,0
DA:2052,0
DA:2056,0
DA:2052,0
DA:2056,0
DA:2064,0
DA:2072,0
DA:2076,0
DA:2101,0
LF:25
LH:0
end_of_record
SF:/usr/share/miniconda3/envs/moose/libmesh/include/Eigen/src/Core/Matrix.h
DA:178,0
LF:1
LH:0
end_of_record
SF:/home/runner/work/beaver/beaver/src/bcs/BVPressureBC.C
FN:20,_ZN12BVPressureBC11validParamsEv
FNDA:156,_ZN12BVPressureBC11validParamsEv
FN:31,_ZN12BVPressureBCC2ERK15InputParameters
FNDA:20,_ZN12BVPressureBCC2ERK15InputParameters
FN:42,_ZN12BVPressureBC17computeQpResidualEv
FNDA:473088,_ZN12BVPressureBC17computeQpResidualEv
FNF:3
FNH:3
DA:20,156
DA:22,156
DA:23,156
DA:24,312
DA:25,312
DA:26,312
DA:27,156
DA:28,156
DA:31,20
DA:33,60
DA:34,20
DA:35,80
DA:37,20
DA:38,0
DA:39,20
DA:42,473088
DA:44,473088
DA:46,473088
DA:47,0
DA:49,473088
LF:20
LH:18
end_of_record
SF:/usr/share/miniconda3/envs/moose/libmesh/include/libmesh/elem.h
FN:569,_ZNK7libMesh4Elem9is_remoteEv
FNDA:0,_ZNK7libMesh4Elem9is_remoteEv
FN:627,_ZNK7libMesh4Elem16n_nodes_in_childEj
FNDA:0,_ZNK7libMesh4Elem16n_nodes_in_childEj
FN:713,_ZNK7libMesh4Elem18is_vertex_on_childEjj
FNDA:0,_ZNK7libMesh4Elem18is_vertex_on_childEjj
FN:911,_ZNK7libMesh4Elem18default_side_orderEv
FNDA:0,_ZNK7libMesh4Elem18default_side_orderEv
FN:955,_ZNK7libMesh4Elem17quasicircumcenterEv
FNDA:0,_ZNK7libMesh4Elem17quasicircumcenterEv
FN:999,_ZNK7libMesh4Elem11qual_boundsENS_11ElemQualityE
FNDA:0,_ZNK7libMesh4Elem11qual_boundsENS_11ElemQualityE
FN:1039,_ZNK7libMesh4Elem14has_affine_mapEv
FNDA:0,_ZNK7libMesh4Elem14has_affine_mapEv
FN:1055,_ZNK7libMesh4Elem9is_linearEv
FNDA:0,_ZNK7libMesh4Elem9is_linearEv
FN:1660,_ZNK7libMesh4Elem19local_singular_nodeERKNS_5PointEd
FNDA:0,_ZNK7libMesh4Elem19local_singular_nodeERKNS_5PointEd
FN:1667,_ZNK7libMesh4Elem16is_singular_nodeEj
FNDA:0,_ZNK7libMesh4Elem16is_singular_nodeEj
FN:1868,_ZNK7libMesh4Elem24embedding_matrix_versionEv
FNDA:0,_ZNK7libMesh4Elem24embedding_matrix_versionEv
FN:2027,_ZNK7libMesh4Elem26_get_bracketing_node_cacheEv
FNDA:0,_ZNK7libMesh4Elem26_get_bracketing_node_cacheEv
FN:2041,_ZNK7libMesh4Elem25_get_parent_indices_cacheEv
FNDA:0,_ZNK7libMesh4Elem25_get_parent_indices_cacheEv
FN:2357,_ZN7libMesh4Elem8set_nodeEj
FNDA:0,_ZN7libMesh4Elem8set_nodeEj
FNF:14
FNH:0
DA:569,0
DA:570,0
DA:627,0
DA:628,0
DA:713,0
DA:715,0
DA:911,0
DA:955,0
DA:956,0
DA:999,0
DA:1000,0
DA:1039,0
DA:1055,0
DA:1660,0
DA:1661,0
DA:1667,0
DA:1868,0
DA:2027,0
DA:2029,0
DA:2030,0
DA:2041,0
DA:2043,0
DA:2044,0
DA:2357,0
DA:2361,0
LF:25
LH:0
end_of_record
SF:/usr/share/miniconda3/envs/moose/x86_64-conda-linux-gnu/include/c++/10.4.0/bits/basic_string.h
FN:533,_ZNSt7__cxx1112basic_stringIcSt11char_traitsIcESaIcEEC2IS3_EEPKcRKS3_
FNDA:2545,_ZNSt7__cxx1112basic_stringIcSt11char_traitsIcESaIcEEC2IS3_EEPKcRKS3_
FN:663,_ZNSt7__cxx1112basic_stringIcSt11char_traitsIcESaIcEEC2ISt17basic_string_viewIcS2_EvEERKT_RKS3_
FNDA:5720,_ZNSt7__cxx1112basic_stringIcSt11char_traitsIcESaIcEEC2ISt17basic_string_viewIcS2_EvEERKT_RKS3_
FN:1483,_ZNSt7__cxx1112basic_stringIcSt11char_traitsIcESaIcEE6assignIPcvEERS4_T_S8_
FNDA:0,_ZNSt7__cxx1112basic_stringIcSt11char_traitsIcESaIcEE6assignIPcvEERS4_T_S8_
FN:6044,_ZStplIcSt11char_traitsIcESaIcEENSt7__cxx1112basic_stringIT_T0_T1_EERKS8_SA_
FNDA:1008165,_ZStplIcSt11char_traitsIcESaIcEENSt7__cxx1112basic_stringIT_T0_T1_EERKS8_SA_
FN:6109,_ZStplIcSt11char_traitsIcESaIcEENSt7__cxx1112basic_stringIT_T0_T1_EEOS8_RKS8_
FNDA:0,_ZStplIcSt11char_traitsIcESaIcEENSt7__cxx1112basic_stringIT_T0_T1_EEOS8_RKS8_
FN:6121,_ZStplIcSt11char_traitsIcESaIcEENSt7__cxx1112basic_stringIT_T0_T1_EEOS8_S9_
FNDA:21,_ZStplIcSt11char_traitsIcESaIcEENSt7__cxx1112basic_stringIT_T0_T1_EEOS8_S9_
FN:6155,_ZStplIcSt11char_traitsIcESaIcEENSt7__cxx1112basic_stringIT_T0_T1_EEOS8_PKS5_
FNDA:1,_ZStplIcSt11char_traitsIcESaIcEENSt7__cxx1112basic_stringIT_T0_T1_EEOS8_PKS5_
FNF:7
FNH:5
DA:164,8265
DA:165,8265
DA:167,4766
DA:168,4788
DA:187,29176
DA:191,1109919
DA:195,3323733
DA:201,0
DA:211,44
DA:219,29176
DA:225,1105131
DA:255,5720
DA:401,1096866
DA:406,8265
DA:439,4766
DA:518,5720
DA:521,5720
DA:533,2545
DA:536,2545
DA:539,2545
DA:540,2545
DA:565,0
DA:568,22
DA:576,22
DA:585,21
DA:663,5720
DA:664,5720
DA:671,636471
DA:680,68
DA:827,0
DA:915,105204
DA:921,21
DA:979,22
DA:1054,1
DA:1162,0
DA:1206,1008186
DA:1379,78997
DA:1483,0
DA:1484,0
DA:1653,0
DA:6044,1008165
DA:6047,1008165
DA:6049,1008165
DA:6109,0
DA:6111,0
DA:6121,21
DA:6134,21
DA:6135,22
DA:6155,1
DA:6157,1
DA:6292,2635115
DA:6485,106
LF:52
LH:43
end_of_record
SF:/home/runner/work/beaver/beaver/moose/framework/build/header_symlinks/IntegratedBCBase.h
LF:0
LH:0
end_of_record
SF:/home/runner/work/beaver/beaver/moose/framework/build/header_symlinks/MooseBase.h
FN:47,_ZNK9MooseBase4nameB5cxx11Ev
FNDA:0,_ZNK9MooseBase4nameB5cxx11Ev
FNF:1
FNH:0
DA:35,1
DA:47,0
LF:2
LH:1
end_of_record
SF:/home/runner/work/beaver/beaver/moose/framework/build/header_symlinks/MooseVariableDependencyInterface.h
LF:0
LH:0
end_of_record
SF:/usr/share/miniconda3/envs/moose/libmesh/include/libmesh/libmesh_exceptions.h
FN:51,_ZN7libMesh14NotImplementedC2ENSt7__cxx1112basic_stringIcSt11char_traitsIcESaIcEEE
FNDA:0,_ZN7libMesh14NotImplementedC2ENSt7__cxx1112basic_stringIcSt11char_traitsIcESaIcEEE
FNF:1
FNH:0
DA:39,0
DA:51,0
LF:2
LH:0
end_of_record
SF:/usr/share/miniconda3/envs/moose/x86_64-conda-linux-gnu/include/c++/10.4.0/bits/shared_ptr.h
FN:407,_ZNSt10shared_ptrI12BVPressureBCEC2ISaIS0_EJRK15InputParametersEEESt20_Sp_alloc_shared_tagIT_EDpOT0_
FNDA:20,_ZNSt10shared_ptrI12BVPressureBCEC2ISaIS0_EJRK15InputParametersEEESt20_Sp_alloc_shared_tagIT_EDpOT0_
FN:407,_ZNSt10shared_ptrI17BVShearTractionBCEC2ISaIS0_EJRK15InputParametersEEESt20_Sp_alloc_shared_tagIT_EDpOT0_
FNDA:0,_ZNSt10shared_ptrI17BVShearTractionBCEC2ISaIS0_EJRK15InputParametersEEESt20_Sp_alloc_shared_tagIT_EDpOT0_
FN:407,_ZNSt10shared_ptrI13RegistryEntryI17BVShearTractionBCEEC2ISaIS2_EJRK17RegistryEntryDataEEESt20_Sp_alloc_shared_tagIT_EDpOT0_
FNDA:17,_ZNSt10shared_ptrI13RegistryEntryI17BVShearTractionBCEEC2ISaIS2_EJRK17RegistryEntryDataEEESt20_Sp_alloc_shared_tagIT_EDpOT0_
FN:407,_ZNSt10shared_ptrI13RegistryEntryI12BVPressureBCEEC2ISaIS2_EJRK17RegistryEntryDataEEESt20_Sp_alloc_shared_tagIT_EDpOT0_
FNDA:17,_ZNSt10shared_ptrI13RegistryEntryI12BVPressureBCEEC2ISaIS2_EJRK17RegistryEntryDataEEESt20_Sp_alloc_shared_tagIT_EDpOT0_
FNF:4
FNH:3
DA:121,68
DA:407,20
DA:408,20
DA:409,20
DA:407,0
DA:408,0
DA:409,0
DA:407,17
DA:408,17
DA:409,17
DA:407,17
DA:408,17
DA:409,17
DA:862,54
DA:877,34
LF:15
LH:12
end_of_record
SF:/usr/share/miniconda3/envs/moose/x86_64-conda-linux-gnu/include/c++/10.4.0/utility
DA:189,0
LF:1
LH:0
end_of_record
SF:/usr/share/miniconda3/envs/moose/x86_64-conda-linux-gnu/include/c++/10.4.0/bits/stl_iterator.h
DA:996,34
DA:1001,0
DA:1005,0
DA:1069,34
DA:1239,0
LF:5
LH:2
end_of_record
SF:/usr/share/miniconda3/envs/moose/x86_64-conda-linux-gnu/include/c++/10.4.0/sstream
DA:678,1
DA:832,0
LF:2
LH:1
end_of_record
SF:/usr/share/miniconda3/envs/moose/libmesh/include/libmesh/type_vector.h
DA:468,0
DA:472,0
DA:475,0
DA:482,0
LF:4
LH:0
end_of_record
SF:/usr/share/miniconda3/envs/moose/x86_64-conda-linux-gnu/include/c++/10.4.0/tuple
FN:1702,_ZNSt4pairIKNSt7__cxx1112basic_stringIcSt11char_traitsIcESaIcEEES5_EC2IJOS5_EJLm0EEJEJEEERSt5tupleIJDpT_EERSA_IJDpT1_EESt12_Index_tupleIJXspT0_EEESJ_IJXspT2_EEE
FNDA:0,_ZNSt4pairIKNSt7__cxx1112basic_stringIcSt11char_traitsIcESaIcEEES5_EC2IJOS5_EJLm0EEJEJEEERSt5tupleIJDpT_EERSA_IJDpT1_EESt12_Index_tupleIJXspT0_EEESJ_IJXspT2_EEE
FN:1702,_ZNSt4pairIKNSt7__cxx1112basic_stringIcSt11char_traitsIcESaIcEEEN15InputParameters8MetadataEEC2IJRS6_EJLm0EEJEJEEERSt5tupleIJDpT_EERSC_IJDpT1_EESt12_Index_tupleIJXspT0_EEESL_IJXspT2_EEE
FNDA:88666,_ZNSt4pairIKNSt7__cxx1112basic_stringIcSt11char_traitsIcESaIcEEEN15InputParameters8MetadataEEC2IJRS6_EJLm0EEJEJEEERSt5tupleIJDpT_EERSC_IJDpT1_EESt12_Index_tupleIJXspT0_EEESL_IJXspT2_EEE
FNF:2
FNH:1
DA:130,0
DA:132,0
DA:133,0
DA:135,177332
DA:136,88666
DA:142,0
DA:143,122185
DA:176,177332
DA:532,0
DA:1690,88666
DA:1695,88666
DA:1702,0
DA:1707,0
DA:1702,88666
DA:1706,88666
DA:1707,88666
DA:1702,0
DA:1706,0
LF:18
LH:9
end_of_record
SF:/home/runner/work/beaver/beaver/moose/framework/build/header_symlinks/BoundaryRestrictableRequired.h
LF:0
LH:0
end_of_record
SF:/usr/share/miniconda3/envs/moose/x86_64-conda-linux-gnu/include/c++/10.4.0/iostream
LF:0
LH:0
end_of_record
SF:/usr/share/miniconda3/envs/moose/x86_64-conda-linux-gnu/include/c++/10.4.0/bits/stl_algobase.h
DA:235,0
DA:236,0
DA:259,0
DA:260,0
DA:425,0
DA:426,0
LF:6
LH:0
end_of_record
SF:/usr/share/miniconda3/envs/moose/x86_64-conda-linux-gnu/include/c++/10.4.0/streambuf
LF:0
LH:0
end_of_record
SF:/usr/share/miniconda3/envs/moose/x86_64-conda-linux-gnu/include/c++/10.4.0/bits/char_traits.h
DA:357,21
DA:374,0
DA:389,0
DA:399,2545
LF:4
LH:2
end_of_record
SF:/usr/share/miniconda3/envs/moose/x86_64-conda-linux-gnu/include/c++/10.4.0/bits/stl_multimap.h
DA:297,0
LF:1
LH:0
end_of_record
SF:/home/runner/work/beaver/beaver/moose/framework/build/header_symlinks/MooseBaseErrorInterface.h
FN:32,_ZN23MooseBaseErrorInterfaceD0Ev
FNDA:0,_ZN23MooseBaseErrorInterfaceD0Ev
FN:32,_ZN23MooseBaseErrorInterfaceD2Ev
FNDA:0,_ZN23MooseBaseErrorInterfaceD2Ev
FNF:2
FNH:0
DA:32,0
DA:32,0
DA:32,0
LF:3
LH:0
end_of_record
SF:/home/runner/work/beaver/beaver/build/header_symlinks/BVShearTractionBC.h
LF:0
LH:0
end_of_record
SF:/home/runner/work/beaver/beaver/moose/framework/build/header_symlinks/Registry.h
FN:121,_ZNK17RegistryEntryBase4nameB5cxx11Ev
FNDA:34,_ZNK17RegistryEntryBase4nameB5cxx11Ev
FN:162,_ZN8Registry3addI17BVShearTractionBCEEcRK17RegistryEntryData
FNDA:17,_ZN8Registry3addI17BVShearTractionBCEEcRK17RegistryEntryData
FN:162,_ZN8Registry3addI12BVPressureBCEEcRK17RegistryEntryData
FNDA:17,_ZN8Registry3addI12BVPressureBCEEcRK17RegistryEntryData
FN:264,_ZN13RegistryEntryI12BVPressureBCE5buildERK15InputParameters
FNDA:20,_ZN13RegistryEntryI12BVPressureBCE5buildERK15InputParameters
FN:264,_ZN13RegistryEntryI17BVShearTractionBCE5buildERK15InputParameters
FNDA:0,_ZN13RegistryEntryI17BVShearTractionBCE5buildERK15InputParameters
FN:274,_ZN13RegistryEntryI12BVPressureBCE11buildActionERK15InputParameters
FNDA:0,_ZN13RegistryEntryI12BVPressureBCE11buildActionERK15InputParameters
FN:274,_ZN13RegistryEntryI17BVShearTractionBCE11buildActionERK15InputParameters
FNDA:0,_ZN13RegistryEntryI17BVShearTractionBCE11buildActionERK15InputParameters
FN:284,_ZN13RegistryEntryI12BVPressureBCE15buildParametersEv
FNDA:156,_ZN13RegistryEntryI12BVPressureBCE15buildParametersEv
FN:284,_ZN13RegistryEntryI17BVShearTractionBCE15buildParametersEv
FNDA:116,_ZN13RegistryEntryI17BVShearTractionBCE15buildParametersEv
FNF:9
FNH:6
DA:114,34
DA:121,34
DA:123,34
DA:124,34
DA:125,34
DA:126,34
DA:127,34
DA:128,34
DA:135,34
DA:162,17
DA:165,34
DA:166,34
DA:167,17
DA:162,17
DA:165,34
DA:166,34
DA:167,17
DA:264,20
DA:269,20
DA:264,0
DA:269,0
DA:274,0
DA:277,0
DA:274,0
DA:277,0
DA:284,156
DA:286,156
DA:287,156
DA:284,116
DA:286,116
DA:287,116
LF:31
LH:25
end_of_record
SF:/usr/share/miniconda3/envs/moose/x86_64-conda-linux-gnu/include/c++/10.4.0/bits/stl_set.h
FN:281,_ZNSt3setIsSt4lessIsESaIsEED2Ev
FNDA:0,_ZNSt3setIsSt4lessIsESaIsEED2Ev
FN:281,_ZNSt3setItSt4lessItESaItEED2Ev
FNDA:0,_ZNSt3setItSt4lessItESaItEED2Ev
FNF:2
FNH:0
DA:281,0
DA:281,0
DA:281,0
LF:3
LH:0
end_of_record
SF:/usr/share/miniconda3/envs/moose/libmesh/include/libmesh/parallel_object.h
DA:91,0
LF:1
LH:0
end_of_record
SF:/usr/share/miniconda3/envs/moose/x86_64-conda-linux-gnu/include/c++/10.4.0/bits/std_function.h
FN:242,_ZNSt14_Function_baseD2Ev
FNDA:0,_ZNSt14_Function_baseD2Ev
FNF:1
FNH:0
DA:242,0
DA:243,0
DA:244,0
DA:245,0
DA:246,0
DA:303,0
LF:6
LH:0
end_of_record
SF:/usr/share/miniconda3/envs/moose/x86_64-conda-linux-gnu/include/c++/10.4.0/bits/vector.tcc
FN:109,_ZNSt6vectorISt10shared_ptrI17RegistryEntryBaseESaIS2_EE12emplace_backIJS2_EEERS2_DpOT_
FNDA:34,_ZNSt6vectorISt10shared_ptrI17RegistryEntryBaseESaIS2_EE12emplace_backIJS2_EEERS2_DpOT_
FN:426,_ZNSt6vectorISt10shared_ptrI17RegistryEntryBaseESaIS2_EE17_M_realloc_insertIJS2_EEEvN9__gnu_cxx17__normal_iteratorIPS2_S4_EEDpOT_
FNDA:0,_ZNSt6vectorISt10shared_ptrI17RegistryEntryBaseESaIS2_EE17_M_realloc_insertIJS2_EEEvN9__gnu_cxx17__normal_iteratorIPS2_S4_EEDpOT_
FNF:2
FNH:1
DA:109,34
DA:112,34
DA:117,17
DA:121,17
DA:123,34
DA:426,0
DA:436,0
DA:437,0
DA:438,0
DA:449,0
DA:450,0
DA:464,0
DA:501,0
DA:502,0
DA:503,0
DA:504,0
DA:505,0
LF:17
LH:5
end_of_record
SF:/home/runner/work/beaver/beaver/moose/framework/build/header_symlinks/MooseObject.h
FN:49,_ZN11MooseObjectD0Ev
FNDA:0,_ZN11MooseObjectD0Ev
FN:49,_ZN11MooseObjectD2Ev
FNDA:0,_ZN11MooseObjectD2Ev
FN:54,_ZNK11MooseObject7enabledEv
FNDA:0,_ZNK11MooseObject7enabledEv
FNF:3
FNH:0
DA:49,0
DA:49,0
DA:54,0
LF:3
LH:0
end_of_record
SF:/usr/share/miniconda3/envs/moose/x86_64-conda-linux-gnu/include/c++/10.4.0/bits/unique_ptr.h
FN:79,_ZNKSt14default_deleteI10MooseArrayIdEEclEPS1_
FNDA:0,_ZNKSt14default_deleteI10MooseArrayIdEEclEPS1_
FN:79,_ZNKSt14default_deleteI10MooseArrayIN7libMesh11VectorValueIN11MetaPhysicL10DualNumberIdNS3_28SemiDynamicSparseNumberArrayIdmNS3_8NWrapperILm64EEEEELb1EEEEEEEclEPSB_
FNDA:0,_ZNKSt14default_deleteI10MooseArrayIN7libMesh11VectorValueIN11MetaPhysicL10DualNumberIdNS3_28SemiDynamicSparseNumberArrayIdmNS3_8NWrapperILm64EEEEELb1EEEEEEEclEPSB_
FN:79,_ZNKSt14default_deleteI10MooseArrayIN5Eigen6MatrixIdLin1ELi1ELi0ELin1ELi1EEEEEclEPS4_
FNDA:0,_ZNKSt14default_deleteI10MooseArrayIN5Eigen6MatrixIdLin1ELi1ELi0ELin1ELi1EEEEEclEPS4_
FN:79,_ZNKSt14default_deleteI10MooseArrayIN7libMesh11VectorValueIdEEEEclEPS4_
FNDA:0,_ZNKSt14default_deleteI10MooseArrayIN7libMesh11VectorValueIdEEEEclEPS4_
FN:79,_ZNKSt14default_deleteI10MooseArrayIN11MetaPhysicL10DualNumberIdNS1_28SemiDynamicSparseNumberArrayIdmNS1_8NWrapperILm64EEEEELb1EEEEEclEPS8_
FNDA:0,_ZNKSt14default_deleteI10MooseArrayIN11MetaPhysicL10DualNumberIdNS1_28SemiDynamicSparseNumberArrayIdmNS1_8NWrapperILm64EEEEELb1EEEEEclEPS8_
FN:116,_ZNKSt14default_deleteIA_N7libMesh11VectorValueIN11MetaPhysicL10DualNumberIdNS2_28SemiDynamicSparseNumberArrayIdmNS2_8NWrapperILm64EEEEELb1EEEEEEclIS9_EENSt9enable_ifIXsrSt14is_convertibleIPA_T_PSA_E5valueEvE4typeEPSF_
FNDA:0,_ZNKSt14default_deleteIA_N7libMesh11VectorValueIN11MetaPhysicL10DualNumberIdNS2_28SemiDynamicSparseNumberArrayIdmNS2_8NWrapperILm64EEEEELb1EEEEEEclIS9_EENSt9enable_ifIXsrSt14is_convertibleIPA_T_PSA_E5valueEvE4typeEPSF_
FN:116,_ZNKSt14default_deleteIA_N5Eigen6MatrixIdLin1ELi3ELi0ELin1ELi3EEEEclIS2_EENSt9enable_ifIXsrSt14is_convertibleIPA_T_PS3_E5valueEvE4typeEPS8_
FNDA:0,_ZNKSt14default_deleteIA_N5Eigen6MatrixIdLin1ELi3ELi0ELin1ELi3EEEEclIS2_EENSt9enable_ifIXsrSt14is_convertibleIPA_T_PS3_E5valueEvE4typeEPS8_
FN:116,_ZNKSt14default_deleteIA_N5Eigen6MatrixIdLin1ELi1ELi0ELin1ELi1EEEEclIS2_EENSt9enable_ifIXsrSt14is_convertibleIPA_T_PS3_E5valueEvE4typeEPS8_
FNDA:0,_ZNKSt14default_deleteIA_N5Eigen6MatrixIdLin1ELi1ELi0ELin1ELi1EEEEclIS2_EENSt9enable_ifIXsrSt14is_convertibleIPA_T_PS3_E5valueEvE4typeEPS8_
FN:116,_ZNKSt14default_deleteIA_N7libMesh11TensorValueIdEEEclIS2_EENSt9enable_ifIXsrSt14is_convertibleIPA_T_PS3_E5valueEvE4typeEPS8_
FNDA:0,_ZNKSt14default_deleteIA_N7libMesh11TensorValueIdEEEclIS2_EENSt9enable_ifIXsrSt14is_convertibleIPA_T_PS3_E5valueEvE4typeEPS8_
FN:116,_ZNKSt14default_deleteIA_N11MetaPhysicL10DualNumberIdNS0_28SemiDynamicSparseNumberArrayIdmNS0_8NWrapperILm64EEEEELb1EEEEclIS6_EENSt9enable_ifIXsrSt14is_convertibleIPA_T_PS7_E5valueEvE4typeEPSC_
FNDA:0,_ZNKSt14default_deleteIA_N11MetaPhysicL10DualNumberIdNS0_28SemiDynamicSparseNumberArrayIdmNS0_8NWrapperILm64EEEEELb1EEEEclIS6_EENSt9enable_ifIXsrSt14is_convertibleIPA_T_PS7_E5valueEvE4typeEPSC_
FN:116,_ZNKSt14default_deleteIA_N7libMesh11TensorValueIN11MetaPhysicL10DualNumberIdNS2_28SemiDynamicSparseNumberArrayIdmNS2_8NWrapperILm64EEEEELb1EEEEEEclIS9_EENSt9enable_ifIXsrSt14is_convertibleIPA_T_PSA_E5valueEvE4typeEPSF_
FNDA:0,_ZNKSt14default_deleteIA_N7libMesh11TensorValueIN11MetaPhysicL10DualNumberIdNS2_28SemiDynamicSparseNumberArrayIdmNS2_8NWrapperILm64EEEEELb1EEEEEEclIS9_EENSt9enable_ifIXsrSt14is_convertibleIPA_T_PSA_E5valueEvE4typeEPSF_
FN:165,_ZNSt15__uniq_ptr_implIN7libMesh10Parameters5ValueESt14default_deleteIS2_EEaSEOS5_
FNDA:0,_ZNSt15__uniq_ptr_implIN7libMesh10Parameters5ValueESt14default_deleteIS2_EEaSEOS5_
FN:355,_ZNSt10unique_ptrIN7libMesh10Parameters9ParameterIjEESt14default_deleteIS3_EED2Ev
FNDA:97628,_ZNSt10unique_ptrIN7libMesh10Parameters9ParameterIjEESt14default_deleteIS3_EED2Ev
FN:355,_ZNSt10unique_ptrIN7libMesh10Parameters9ParameterIbEESt14default_deleteIS3_EED2Ev
FNDA:0,_ZNSt10unique_ptrIN7libMesh10Parameters9ParameterIbEESt14default_deleteIS3_EED2Ev
FN:355,_ZNSt10unique_ptrIN7libMesh10Parameters9ParameterI12FunctionNameEESt14default_deleteIS4_EED2Ev
FNDA:4766,_ZNSt10unique_ptrIN7libMesh10Parameters9ParameterI12FunctionNameEESt14default_deleteIS4_EED2Ev
FN:355,_ZNSt10unique_ptrI13PropertyValueSt14default_deleteIS0_EED2Ev
FNDA:0,_ZNSt10unique_ptrI13PropertyValueSt14default_deleteIS0_EED2Ev
FN:355,_ZNSt10unique_ptrIN7libMesh10Parameters9ParameterIP13FEProblemBaseEESt14default_deleteIS5_EED2Ev
FNDA:0,_ZNSt10unique_ptrIN7libMesh10Parameters9ParameterIP13FEProblemBaseEESt14default_deleteIS5_EED2Ev
FN:355,_ZNSt10unique_ptrINSt13__future_base12_Result_baseENS1_8_DeleterEED2Ev
FNDA:0,_ZNSt10unique_ptrINSt13__future_base12_Result_baseENS1_8_DeleterEED2Ev
FN:355,_ZNSt10unique_ptrIN7libMesh10Parameters9ParameterIdEESt14default_deleteIS3_EED2Ev
FNDA:115845,_ZNSt10unique_ptrIN7libMesh10Parameters9ParameterIdEESt14default_deleteIS3_EED2Ev
FN:355,_ZNSt10unique_ptrI33OptionalMaterialPropertyProxyBaseI25MaterialPropertyInterfaceESt14default_deleteIS2_EED2Ev
FNDA:0,_ZNSt10unique_ptrI33OptionalMaterialPropertyProxyBaseI25MaterialPropertyInterfaceESt14default_deleteIS2_EED2Ev
FN:355,_ZNSt10unique_ptrIdSt14default_deleteIdEED2Ev
FNDA:0,_ZNSt10unique_ptrIdSt14default_deleteIdEED2Ev
FN:355,_ZNSt10unique_ptrI10MooseArrayIN11MetaPhysicL10DualNumberIdNS1_28SemiDynamicSparseNumberArrayIdmNS1_8NWrapperILm64EEEEELb1EEEESt14default_deleteIS8_EED2Ev
FNDA:0,_ZNSt10unique_ptrI10MooseArrayIN11MetaPhysicL10DualNumberIdNS1_28SemiDynamicSparseNumberArrayIdmNS1_8NWrapperILm64EEEEELb1EEEESt14default_deleteIS8_EED2Ev
FN:355,_ZNSt10unique_ptrI10MooseArrayIN7libMesh11VectorValueIdEEESt14default_deleteIS4_EED2Ev
FNDA:0,_ZNSt10unique_ptrI10MooseArrayIN7libMesh11VectorValueIdEEESt14default_deleteIS4_EED2Ev
FN:355,_ZNSt10unique_ptrI10MooseArrayIN5Eigen6MatrixIdLin1ELi1ELi0ELin1ELi1EEEESt14default_deleteIS4_EED2Ev
FNDA:0,_ZNSt10unique_ptrI10MooseArrayIN5Eigen6MatrixIdLin1ELi1ELi0ELin1ELi1EEEESt14default_deleteIS4_EED2Ev
FN:355,_ZNSt10unique_ptrI10MooseArrayIN7libMesh11VectorValueIN11MetaPhysicL10DualNumberIdNS3_28SemiDynamicSparseNumberArrayIdmNS3_8NWrapperILm64EEEEELb1EEEEEESt14default_deleteISB_EED2Ev
FNDA:0,_ZNSt10unique_ptrI10MooseArrayIN7libMesh11VectorValueIN11MetaPhysicL10DualNumberIdNS3_28SemiDynamicSparseNumberArrayIdmNS3_8NWrapperILm64EEEEELb1EEEEEESt14default_deleteISB_EED2Ev
FN:355,_ZNSt10unique_ptrI10MooseArrayIdESt14default_deleteIS1_EED2Ev
FNDA:0,_ZNSt10unique_ptrI10MooseArrayIdESt14default_deleteIS1_EED2Ev
FN:355,_ZNSt10unique_ptrIN7libMesh10Parameters5ValueESt14default_deleteIS2_EED2Ev
FNDA:0,_ZNSt10unique_ptrIN7libMesh10Parameters5ValueESt14default_deleteIS2_EED2Ev
FN:386,_ZNSt10unique_ptrIN7libMesh10Parameters5ValueESt14default_deleteIS2_EEaSINS1_9ParameterI12FunctionNameEES3_IS9_EEENSt9enable_ifIXsrSt6__and_IJSC_IJSt14is_convertibleINS_IT_T0_E7pointerEPS2_ESt6__not_ISt8is_arrayISE_EEEESt13is_assignableIRS4_OSF_EEE5valueERS5_E4typeEOSG_
FNDA:4663,_ZNSt10unique_ptrIN7libMesh10Parameters5ValueESt14default_deleteIS2_EEaSINS1_9ParameterI12FunctionNameEES3_IS9_EEENSt9enable_ifIXsrSt6__and_IJSC_IJSt14is_convertibleINS_IT_T0_E7pointerEPS2_ESt6__not_ISt8is_arrayISE_EEEESt13is_assignableIRS4_OSF_EEE5valueERS5_E4typeEOSG_
FN:386,_ZNSt10unique_ptrIN7libMesh10Parameters5ValueESt14default_deleteIS2_EEaSINS1_9ParameterIjEES3_IS8_EEENSt9enable_ifIXsrSt6__and_IJSB_IJSt14is_convertibleINS_IT_T0_E7pointerEPS2_ESt6__not_ISt8is_arrayISD_EEEESt13is_assignableIRS4_OSE_EEE5valueERS5_E4typeEOSF_
FNDA:6420,_ZNSt10unique_ptrIN7libMesh10Parameters5ValueESt14default_deleteIS2_EEaSINS1_9ParameterIjEES3_IS8_EEENSt9enable_ifIXsrSt6__and_IJSB_IJSt14is_convertibleINS_IT_T0_E7pointerEPS2_ESt6__not_ISt8is_arrayISD_EEEESt13is_assignableIRS4_OSE_EEE5valueERS5_E4typeEOSF_
FN:386,_ZNSt10unique_ptrIN7libMesh10Parameters5ValueESt14default_deleteIS2_EEaSINS1_9ParameterIbEES3_IS8_EEENSt9enable_ifIXsrSt6__and_IJSB_IJSt14is_convertibleINS_IT_T0_E7pointerEPS2_ESt6__not_ISt8is_arrayISD_EEEESt13is_assignableIRS4_OSE_EEE5valueERS5_E4typeEOSF_
FNDA:0,_ZNSt10unique_ptrIN7libMesh10Parameters5ValueESt14default_deleteIS2_EEaSINS1_9ParameterIbEES3_IS8_EEENSt9enable_ifIXsrSt6__and_IJSB_IJSt14is_convertibleINS_IT_T0_E7pointerEPS2_ESt6__not_ISt8is_arrayISD_EEEESt13is_assignableIRS4_OSE_EEE5valueERS5_E4typeEOSF_
FN:386,_ZNSt10unique_ptrIN7libMesh10Parameters5ValueESt14default_deleteIS2_EEaSINS1_9ParameterIdEES3_IS8_EEENSt9enable_ifIXsrSt6__and_IJSB_IJSt14is_convertibleINS_IT_T0_E7pointerEPS2_ESt6__not_ISt8is_arrayISD_EEEESt13is_assignableIRS4_OSE_EEE5valueERS5_E4typeEOSF_
FNDA:84971,_ZNSt10unique_ptrIN7libMesh10Parameters5ValueESt14default_deleteIS2_EEaSINS1_9ParameterIdEES3_IS8_EEENSt9enable_ifIXsrSt6__and_IJSB_IJSt14is_convertibleINS_IT_T0_E7pointerEPS2_ESt6__not_ISt8is_arrayISD_EEEESt13is_assignableIRS4_OSE_EEE5valueERS5_E4typeEOSF_
FN:608,_ZNSt10unique_ptrIA_N5Eigen6MatrixIdLin1ELi3ELi0ELin1ELi3EEESt14default_deleteIS3_EED2Ev
FNDA:0,_ZNSt10unique_ptrIA_N5Eigen6MatrixIdLin1ELi3ELi0ELin1ELi3EEESt14default_deleteIS3_EED2Ev
FN:608,_ZNSt10unique_ptrIA_N5Eigen6MatrixIdLin1ELi1ELi0ELin1ELi1EEESt14default_deleteIS3_EED2Ev
FNDA:0,_ZNSt10unique_ptrIA_N5Eigen6MatrixIdLin1ELi1ELi0ELin1ELi1EEESt14default_deleteIS3_EED2Ev
FN:608,_ZNSt10unique_ptrIA_N7libMesh11TensorValueIdEESt14default_deleteIS3_EED2Ev
FNDA:0,_ZNSt10unique_ptrIA_N7libMesh11TensorValueIdEESt14default_deleteIS3_EED2Ev
FN:608,_ZNSt10unique_ptrIA_N7libMesh11TensorValueIN11MetaPhysicL10DualNumberIdNS2_28SemiDynamicSparseNumberArrayIdmNS2_8NWrapperILm64EEEEELb1EEEEESt14default_deleteISA_EED2Ev
FNDA:0,_ZNSt10unique_ptrIA_N7libMesh11TensorValueIN11MetaPhysicL10DualNumberIdNS2_28SemiDynamicSparseNumberArrayIdmNS2_8NWrapperILm64EEEEELb1EEEEESt14default_deleteISA_EED2Ev
FN:608,_ZNSt10unique_ptrIA_N7libMesh11VectorValueIN11MetaPhysicL10DualNumberIdNS2_28SemiDynamicSparseNumberArrayIdmNS2_8NWrapperILm64EEEEELb1EEEEESt14default_deleteISA_EED2Ev
FNDA:0,_ZNSt10unique_ptrIA_N7libMesh11VectorValueIN11MetaPhysicL10DualNumberIdNS2_28SemiDynamicSparseNumberArrayIdmNS2_8NWrapperILm64EEEEELb1EEEEESt14default_deleteISA_EED2Ev
FN:608,_ZNSt10unique_ptrIA_N11MetaPhysicL10DualNumberIdNS0_28SemiDynamicSparseNumberArrayIdmNS0_8NWrapperILm64EEEEELb1EEESt14default_deleteIS7_EED2Ev
FNDA:0,_ZNSt10unique_ptrIA_N11MetaPhysicL10DualNumberIdNS0_28SemiDynamicSparseNumberArrayIdmNS0_8NWrapperILm64EEEEELb1EEESt14default_deleteIS7_EED2Ev
FN:961,_ZSt11make_uniqueIN7libMesh10Parameters9ParameterIP13FEProblemBaseEEJEENSt9_MakeUniqIT_E15__single_objectEDpOT0_
FNDA:0,_ZSt11make_uniqueIN7libMesh10Parameters9ParameterIP13FEProblemBaseEEJEENSt9_MakeUniqIT_E15__single_objectEDpOT0_
FN:961,_ZSt11make_uniqueIN7libMesh10Parameters9ParameterIjEEJEENSt9_MakeUniqIT_E15__single_objectEDpOT0_
FNDA:97628,_ZSt11make_uniqueIN7libMesh10Parameters9ParameterIjEEJEENSt9_MakeUniqIT_E15__single_objectEDpOT0_
FN:961,_ZSt11make_uniqueIN7libMesh10Parameters9ParameterI12FunctionNameEEJEENSt9_MakeUniqIT_E15__single_objectEDpOT0_
FNDA:4766,_ZSt11make_uniqueIN7libMesh10Parameters9ParameterI12FunctionNameEEJEENSt9_MakeUniqIT_E15__single_objectEDpOT0_
FN:961,_ZSt11make_uniqueIN7libMesh10Parameters9ParameterIbEEJEENSt9_MakeUniqIT_E15__single_objectEDpOT0_
FNDA:0,_ZSt11make_uniqueIN7libMesh10Parameters9ParameterIbEEJEENSt9_MakeUniqIT_E15__single_objectEDpOT0_
FN:961,_ZSt11make_uniqueIN7libMesh10Parameters9ParameterIdEEJEENSt9_MakeUniqIT_E15__single_objectEDpOT0_
FNDA:115845,_ZSt11make_uniqueIN7libMesh10Parameters9ParameterIdEEJEENSt9_MakeUniqIT_E15__single_objectEDpOT0_
FNF:42
FNH:9
DA:79,0
DA:85,0
DA:86,0
DA:79,0
DA:85,0
DA:86,0
DA:79,0
DA:85,0
DA:86,0
DA:79,0
DA:85,0
DA:86,0
DA:79,0
DA:85,0
DA:86,0
DA:85,0
DA:86,0
DA:116,0
DA:120,0
DA:121,0
DA:116,0
DA:120,0
DA:121,0
DA:116,0
DA:120,0
DA:121,0
DA:116,0
DA:120,0
DA:121,0
DA:116,0
DA:120,0
DA:121,0
DA:116,0
DA:120,0
DA:121,0
DA:120,0
DA:121,0
DA:155,218239
DA:165,0
DA:169,0
DA:173,100666
DA:174,0
DA:179,96054
DA:180,96054
DA:181,96054
DA:187,96157
DA:188,122185
DA:212,0
DA:355,0
DA:360,0
DA:361,0
DA:363,0
DA:355,0
DA:360,0
DA:361,0
DA:363,0
DA:355,0
DA:360,0
DA:361,0
DA:363,0
DA:355,0
DA:360,0
DA:361,0
DA:363,0
DA:355,0
DA:360,0
DA:361,0
DA:363,0
DA:355,0
DA:360,0
DA:363,0
DA:355,0
DA:360,0
DA:363,0
DA:355,0
DA:360,0
DA:363,0
DA:355,115845
DA:360,115845
DA:363,115845
DA:355,0
DA:360,0
DA:363,0
DA:355,4766
DA:360,4766
DA:363,4766
DA:355,97628
DA:360,97628
DA:363,97628
DA:355,0
DA:360,0
DA:363,0
DA:355,0
DA:360,0
DA:363,0
DA:355,0
DA:360,0
DA:363,0
DA:386,84971
DA:390,84971
DA:386,0
DA:390,0
DA:386,4663
DA:390,4663
DA:386,6420
DA:390,6420
DA:608,0
DA:611,0
DA:612,0
DA:614,0
DA:608,0
DA:611,0
DA:612,0
DA:614,0
DA:608,0
DA:611,0
DA:612,0
DA:614,0
DA:608,0
DA:611,0
DA:612,0
DA:614,0
DA:608,0
DA:611,0
DA:612,0
DA:614,0
DA:608,0
DA:611,0
DA:612,0
DA:614,0
DA:611,0
DA:961,115845
DA:962,115845
DA:961,0
DA:962,0
DA:961,4766
DA:962,4766
DA:961,97628
DA:962,97628
DA:961,0
DA:962,0
LF:141
LH:28
end_of_record
SF:/home/runner/work/beaver/beaver/moose/framework/build/header_symlinks/MooseError.h
FN:173,_ZN5moose8internal14mooseStreamAllINSt7__cxx1112basic_stringIcSt11char_traitsIcESaIcEEEJRA2_KcEEEvRNS2_19basic_ostringstreamIcS5_S6_EEOT_DpOT0_
FNDA:0,_ZN5moose8internal14mooseStreamAllINSt7__cxx1112basic_stringIcSt11char_traitsIcESaIcEEEJRA2_KcEEEvRNS2_19basic_ostringstreamIcS5_S6_EEOT_DpOT0_
FN:173,_ZN5moose8internal14mooseStreamAllINSt7__cxx1112basic_stringIcSt11char_traitsIcESaIcEEEJRA45_KcS7_RA2_S8_EEEvRNS2_19basic_ostringstreamIcS5_S6_EEOT_DpOT0_
FNDA:0,_ZN5moose8internal14mooseStreamAllINSt7__cxx1112basic_stringIcSt11char_traitsIcESaIcEEEJRA45_KcS7_RA2_S8_EEEvRNS2_19basic_ostringstreamIcS5_S6_EEOT_DpOT0_
FN:173,_ZN5moose8internal14mooseStreamAllIRKNSt7__cxx1112basic_stringIcSt11char_traitsIcESaIcEEEJRA14_KcS7_RA45_SA_S7_RA2_SA_EEEvRNS2_19basic_ostringstreamIcS5_S6_EEOT_DpOT0_
FNDA:0,_ZN5moose8internal14mooseStreamAllIRKNSt7__cxx1112basic_stringIcSt11char_traitsIcESaIcEEEJRA14_KcS7_RA45_SA_S7_RA2_SA_EEEvRNS2_19basic_ostringstreamIcS5_S6_EEOT_DpOT0_
FN:173,_ZN5moose8internal14mooseStreamAllINSt7__cxx1112basic_stringIcSt11char_traitsIcESaIcEEEJEEEvRNS2_19basic_ostringstreamIcS5_S6_EEOT_DpOT0_
FNDA:0,_ZN5moose8internal14mooseStreamAllINSt7__cxx1112basic_stringIcSt11char_traitsIcESaIcEEEJEEEvRNS2_19basic_ostringstreamIcS5_S6_EEOT_DpOT0_
FN:173,_ZN5moose8internal14mooseStreamAllIPKcJEEEvRNSt7__cxx1119basic_ostringstreamIcSt11char_traitsIcESaIcEEEOT_DpOT0_
FNDA:1,_ZN5moose8internal14mooseStreamAllIPKcJEEEvRNSt7__cxx1119basic_ostringstreamIcSt11char_traitsIcESaIcEEEOT_DpOT0_
FN:173,_ZN5moose8internal14mooseStreamAllIRKNSt7__cxx1112basic_stringIcSt11char_traitsIcESaIcEEEJRA29_KcEEEvRNS2_19basic_ostringstreamIcS5_S6_EEOT_DpOT0_
FNDA:0,_ZN5moose8internal14mooseStreamAllIRKNSt7__cxx1112basic_stringIcSt11char_traitsIcESaIcEEEJRA29_KcEEEvRNS2_19basic_ostringstreamIcS5_S6_EEOT_DpOT0_
FN:284,_Z10mooseErrorIJRA51_KcEEvDpOT_
FNDA:0,_Z10mooseErrorIJRA51_KcEEvDpOT_
FN:284,_Z10mooseErrorIJNSt7__cxx1112basic_stringIcSt11char_traitsIcESaIcEEEEEvDpOT_
FNDA:0,_Z10mooseErrorIJNSt7__cxx1112basic_stringIcSt11char_traitsIcESaIcEEEEEvDpOT_
FN:284,_Z10mooseErrorIJRA30_KcRKNSt7__cxx1112basic_stringIcSt11char_traitsIcESaIcEEERA14_S0_S8_RA45_S0_S8_RA2_S0_EEvDpOT_
FNDA:0,_Z10mooseErrorIJRA30_KcRKNSt7__cxx1112basic_stringIcSt11char_traitsIcESaIcEEERA14_S0_S8_RA45_S0_S8_RA2_S0_EEvDpOT_
FN:284,_Z10mooseErrorIJRA8_KcRKNSt7__cxx1112basic_stringIcSt11char_traitsIcESaIcEEERA29_S0_EEvDpOT_
FNDA:0,_Z10mooseErrorIJRA8_KcRKNSt7__cxx1112basic_stringIcSt11char_traitsIcESaIcEEERA29_S0_EEvDpOT_
FNF:10
FNH:1
DA:173,0
DA:175,0
DA:176,0
DA:177,0
DA:173,0
DA:175,0
DA:176,0
DA:177,0
DA:173,0
DA:175,0
DA:176,0
DA:177,0
DA:173,0
DA:175,0
DA:176,0
DA:177,0
DA:173,1
DA:175,1
DA:176,1
DA:177,1
DA:173,0
DA:175,0
DA:176,0
DA:177,0
DA:175,0
DA:176,0
DA:177,0
DA:284,0
DA:286,0
DA:288,0
DA:284,0
DA:286,0
DA:287,0
DA:288,0
DA:284,0
DA:286,0
DA:288,0
DA:284,0
DA:286,0
DA:288,0
LF:40
LH:4
end_of_record
SF:/usr/share/miniconda3/envs/moose/x86_64-conda-linux-gnu/include/c++/10.4.0/typeinfo
FN:120,_ZNKSt9type_infoeqERKS_
FNDA:0,_ZNKSt9type_infoeqERKS_
FNF:1
FNH:0
DA:100,5774
DA:120,0
DA:122,0
DA:123,0
DA:124,0
LF:5
LH:1
end_of_record
SF:/home/runner/work/beaver/beaver/moose/framework/build/header_symlinks/BoundaryRestrictable.h
FN:179,_ZNK20BoundaryRestrictable30checkVariableBoundaryIntegrityEv
FNDA:576,_ZNK20BoundaryRestrictable30checkVariableBoundaryIntegrityEv
FNF:1
FNH:1
DA:179,576
LF:1
LH:1
end_of_record
SF:/usr/share/miniconda3/envs/moose/x86_64-conda-linux-gnu/include/c++/10.4.0/bits/stl_map.h
FN:492,_ZNSt3mapINSt7__cxx1112basic_stringIcSt11char_traitsIcESaIcEEESt6vectorISt10shared_ptrI17RegistryEntryBaseESaIS9_EESt4lessIS5_ESaISt4pairIKS5_SB_EEEixERSF_
FNDA:0,_ZNSt3mapINSt7__cxx1112basic_stringIcSt11char_traitsIcESaIcEEESt6vectorISt10shared_ptrI17RegistryEntryBaseESaIS9_EESt4lessIS5_ESaISt4pairIKS5_SB_EEEixERSF_
FN:492,_ZNSt3mapINSt7__cxx1112basic_stringIcSt11char_traitsIcESaIcEEEN15InputParameters8MetadataESt4lessIS5_ESaISt4pairIKS5_S7_EEEixERSB_
FNDA:439532,_ZNSt3mapINSt7__cxx1112basic_stringIcSt11char_traitsIcESaIcEEEN15InputParameters8MetadataESt4lessIS5_ESaISt4pairIKS5_S7_EEEixERSB_
FN:492,_ZNSt3mapINSt7__cxx1112basic_stringIcSt11char_traitsIcESaIcEEESt10unique_ptrIN7libMesh10Parameters5ValueESt14default_deleteIS9_EESt4lessIvESaISt4pairIKS5_SC_EEEixERSG_
FNDA:0,_ZNSt3mapINSt7__cxx1112basic_stringIcSt11char_traitsIcESaIcEEESt10unique_ptrIN7libMesh10Parameters5ValueESt14default_deleteIS9_EESt4lessIvESaISt4pairIKS5_SC_EEEixERSG_
FN:512,_ZNSt3mapINSt7__cxx1112basic_stringIcSt11char_traitsIcESaIcEEES5_St4lessIS5_ESaISt4pairIKS5_S5_EEEixEOS5_
FNDA:0,_ZNSt3mapINSt7__cxx1112basic_stringIcSt11char_traitsIcESaIcEEES5_St4lessIS5_ESaISt4pairIKS5_S5_EEEixEOS5_
FN:546,_ZNKSt3mapINSt7__cxx1112basic_stringIcSt11char_traitsIcESaIcEEEN15InputParameters8MetadataESt4lessIS5_ESaISt4pairIKS5_S7_EEE2atERSB_
FNDA:1,_ZNKSt3mapINSt7__cxx1112basic_stringIcSt11char_traitsIcESaIcEEEN15InputParameters8MetadataESt4lessIS5_ESaISt4pairIKS5_S7_EEE2atERSB_
FN:1258,_ZNSt3mapINSt7__cxx1112basic_stringIcSt11char_traitsIcESaIcEEES5_St4lessIS5_ESaISt4pairIKS5_S5_EEE11lower_boundERS9_
FNDA:0,_ZNSt3mapINSt7__cxx1112basic_stringIcSt11char_traitsIcESaIcEEES5_St4lessIS5_ESaISt4pairIKS5_S5_EEE11lower_boundERS9_
FN:1258,_ZNSt3mapINSt7__cxx1112basic_stringIcSt11char_traitsIcESaIcEEESt6vectorISt10shared_ptrI17RegistryEntryBaseESaIS9_EESt4lessIS5_ESaISt4pairIKS5_SB_EEE11lower_boundERSF_
FNDA:0,_ZNSt3mapINSt7__cxx1112basic_stringIcSt11char_traitsIcESaIcEEESt6vectorISt10shared_ptrI17RegistryEntryBaseESaIS9_EESt4lessIS5_ESaISt4pairIKS5_SB_EEE11lower_boundERSF_
FN:1258,_ZNSt3mapINSt7__cxx1112basic_stringIcSt11char_traitsIcESaIcEEEN15InputParameters8MetadataESt4lessIS5_ESaISt4pairIKS5_S7_EEE11lower_boundERSB_
FNDA:439532,_ZNSt3mapINSt7__cxx1112basic_stringIcSt11char_traitsIcESaIcEEEN15InputParameters8MetadataESt4lessIS5_ESaISt4pairIKS5_S7_EEE11lower_boundERSB_
FN:1258,_ZNSt3mapINSt7__cxx1112basic_stringIcSt11char_traitsIcESaIcEEESt10unique_ptrIN7libMesh10Parameters5ValueESt14default_deleteIS9_EESt4lessIvESaISt4pairIKS5_SC_EEE11lower_boundERSG_
FNDA:0,_ZNSt3mapINSt7__cxx1112basic_stringIcSt11char_traitsIcESaIcEEESt10unique_ptrIN7libMesh10Parameters5ValueESt14default_deleteIS9_EESt4lessIvESaISt4pairIKS5_SC_EEE11lower_boundERSG_
FN:1283,_ZNKSt3mapINSt7__cxx1112basic_stringIcSt11char_traitsIcESaIcEEEN15InputParameters8MetadataESt4lessIS5_ESaISt4pairIKS5_S7_EEE11lower_boundERSB_
FNDA:1,_ZNKSt3mapINSt7__cxx1112basic_stringIcSt11char_traitsIcESaIcEEEN15InputParameters8MetadataESt4lessIS5_ESaISt4pairIKS5_S7_EEE11lower_boundERSB_
FNF:10
FNH:4
DA:302,0
DA:492,0
DA:497,0
DA:499,0
DA:501,0
DA:502,0
DA:503,0
DA:507,0
DA:492,439532
DA:497,439532
DA:499,439532
DA:501,88666
DA:502,88666
DA:503,88666
DA:507,439532
DA:492,0
DA:497,0
DA:499,0
DA:501,0
DA:502,0
DA:503,0
DA:507,0
DA:512,0
DA:517,0
DA:519,0
DA:520,0
DA:522,0
DA:523,0
DA:546,1
DA:548,1
DA:549,1
DA:550,0
DA:551,1
DA:1134,0
DA:1195,543451
DA:1201,110814
DA:1216,1
DA:1258,0
DA:1259,0
DA:1258,0
DA:1259,0
DA:1258,439532
DA:1259,439532
DA:1258,0
DA:1259,0
DA:1283,1
DA:1284,1
LF:47
LH:18
end_of_record
SF:/home/runner/work/beaver/beaver/moose/framework/build/header_symlinks/MooseTypes.h
DA:952,0
DA:964,0
DA:973,103
LF:3
LH:1
end_of_record
SF:/usr/share/miniconda3/envs/moose/x86_64-conda-linux-gnu/include/c++/10.4.0/bits/stl_vector.h
FN:333,_ZNSt12_Vector_baseIP15MooseVariableFVIdESaIS2_EED2Ev
FNDA:0,_ZNSt12_Vector_baseIP15MooseVariableFVIdESaIS2_EED2Ev
FN:333,_ZNSt12_Vector_baseINSt7__cxx1112basic_stringIcSt11char_traitsIcESaIcEEESaIS5_EED2Ev
FNDA:0,_ZNSt12_Vector_baseINSt7__cxx1112basic_stringIcSt11char_traitsIcESaIcEEESaIS5_EED2Ev
FN:333,_ZNSt12_Vector_baseImSaImEED2Ev
FNDA:20,_ZNSt12_Vector_baseImSaImEED2Ev
FN:333,_ZNSt12_Vector_baseISt6vectorIS0_IS0_ISt4pairIhhESaIS2_EESaIS4_EESaIS6_EESaIS8_EED2Ev
FNDA:0,_ZNSt12_Vector_baseISt6vectorIS0_IS0_ISt4pairIhhESaIS2_EESaIS4_EESaIS6_EESaIS8_EED2Ev
FN:333,_ZNSt12_Vector_baseISt6vectorIS0_IaSaIaEESaIS2_EESaIS4_EED2Ev
FNDA:0,_ZNSt12_Vector_baseISt6vectorIS0_IaSaIaEESaIS2_EESaIS4_EED2Ev
FN:333,_ZNSt12_Vector_baseIjSaIjEED2Ev
FNDA:0,_ZNSt12_Vector_baseIjSaIjEED2Ev
FN:333,_ZNSt12_Vector_baseIdSaIdEED2Ev
FNDA:0,_ZNSt12_Vector_baseIdSaIdEED2Ev
FN:333,_ZNSt12_Vector_baseIP22MooseVariableFieldBaseSaIS1_EED2Ev
FNDA:40,_ZNSt12_Vector_baseIP22MooseVariableFieldBaseSaIS1_EED2Ev
FN:333,_ZNSt12_Vector_baseIP15MooseVariableFEIdESaIS2_EED2Ev
FNDA:0,_ZNSt12_Vector_baseIP15MooseVariableFEIdESaIS2_EED2Ev
FN:333,_ZNSt12_Vector_baseIP15MooseVariableFEIN7libMesh11VectorValueIdEEESaIS5_EED2Ev
FNDA:0,_ZNSt12_Vector_baseIP15MooseVariableFEIN7libMesh11VectorValueIdEEESaIS5_EED2Ev
FN:333,_ZNSt12_Vector_baseIP15MooseVariableFEIN5Eigen6MatrixIdLin1ELi1ELi0ELin1ELi1EEEESaIS5_EED2Ev
FNDA:0,_ZNSt12_Vector_baseIP15MooseVariableFEIN5Eigen6MatrixIdLin1ELi1ELi0ELin1ELi1EEEESaIS5_EED2Ev
FN:333,_ZNSt12_Vector_baseISt5tupleIJNSt7__cxx1112basic_stringIcSt11char_traitsIcESaIcEEEN5Moose23RelationshipManagerTypeESt8functionIFvRK15InputParametersRSA_EEEESaISG_EED2Ev
FNDA:0,_ZNSt12_Vector_baseISt5tupleIJNSt7__cxx1112basic_stringIcSt11char_traitsIcESaIcEEEN5Moose23RelationshipManagerTypeESt8functionIFvRK15InputParametersRSA_EEEESaISG_EED2Ev
FN:333,_ZNSt12_Vector_baseISt3setIP18MooseVariableFieldIdESt4lessIS3_ESaIS3_EESaIS7_EED2Ev
FNDA:0,_ZNSt12_Vector_baseISt3setIP18MooseVariableFieldIdESt4lessIS3_ESaIS3_EESaIS7_EED2Ev
FN:333,_ZNSt12_Vector_baseIP19MooseVariableScalarSaIS1_EED2Ev
FNDA:0,_ZNSt12_Vector_baseIP19MooseVariableScalarSaIS1_EED2Ev
FN:333,_ZNSt12_Vector_baseISt10unique_ptrI13PropertyValueSt14default_deleteIS1_EESaIS4_EED2Ev
FNDA:0,_ZNSt12_Vector_baseISt10unique_ptrI13PropertyValueSt14default_deleteIS1_EESaIS4_EED2Ev
FN:333,_ZNSt12_Vector_baseISt10unique_ptrI33OptionalMaterialPropertyProxyBaseI25MaterialPropertyInterfaceESt14default_deleteIS3_EESaIS6_EED2Ev
FNDA:0,_ZNSt12_Vector_baseISt10unique_ptrI33OptionalMaterialPropertyProxyBaseI25MaterialPropertyInterfaceESt14default_deleteIS3_EESaIS6_EED2Ev
FN:333,_ZNSt12_Vector_baseISt4pairIhhESaIS1_EED2Ev
FNDA:0,_ZNSt12_Vector_baseISt4pairIhhESaIS1_EED2Ev
FN:333,_ZNSt12_Vector_baseISt6vectorIS0_ISt4pairIhhESaIS2_EESaIS4_EESaIS6_EED2Ev
FNDA:0,_ZNSt12_Vector_baseISt6vectorIS0_ISt4pairIhhESaIS2_EESaIS4_EESaIS6_EED2Ev
FN:333,_ZNSt12_Vector_baseISt6vectorIaSaIaEESaIS2_EED2Ev
FNDA:0,_ZNSt12_Vector_baseISt6vectorIaSaIaEESaIS2_EED2Ev
FN:333,_ZNSt12_Vector_baseIaSaIaEED2Ev
FNDA:0,_ZNSt12_Vector_baseIaSaIaEED2Ev
FN:333,_ZNSt12_Vector_baseISt10shared_ptrI17RegistryEntryBaseESaIS2_EED2Ev
FNDA:0,_ZNSt12_Vector_baseISt10shared_ptrI17RegistryEntryBaseESaIS2_EED2Ev
FN:333,_ZNSt12_Vector_baseISt6vectorISt4pairIhhESaIS2_EESaIS4_EED2Ev
FNDA:0,_ZNSt12_Vector_baseISt6vectorISt4pairIhhESaIS2_EESaIS4_EED2Ev
FN:333,_ZNSt12_Vector_baseI15AuxVariableNameSaIS0_EED2Ev
FNDA:40,_ZNSt12_Vector_baseI15AuxVariableNameSaIS0_EED2Ev
FN:333,_ZNSt12_Vector_baseISt10unique_ptrI10MooseArrayIdESt14default_deleteIS2_EESaIS5_EED2Ev
FNDA:0,_ZNSt12_Vector_baseISt10unique_ptrI10MooseArrayIdESt14default_deleteIS2_EESaIS5_EED2Ev
FN:625,_ZNSt6vectorIdSaIdEEC2ESt16initializer_listIdERKS0_
FNDA:0,_ZNSt6vectorIdSaIdEEC2ESt16initializer_listIdERKS0_
FN:678,_ZNSt6vectorISt10unique_ptrI13PropertyValueSt14default_deleteIS1_EESaIS4_EED2Ev
FNDA:0,_ZNSt6vectorISt10unique_ptrI13PropertyValueSt14default_deleteIS1_EESaIS4_EED2Ev
FN:678,_ZNSt6vectorISt5tupleIJNSt7__cxx1112basic_stringIcSt11char_traitsIcESaIcEEEN5Moose23RelationshipManagerTypeESt8functionIFvRK15InputParametersRSA_EEEESaISG_EED2Ev
FNDA:0,_ZNSt6vectorISt5tupleIJNSt7__cxx1112basic_stringIcSt11char_traitsIcESaIcEEEN5Moose23RelationshipManagerTypeESt8functionIFvRK15InputParametersRSA_EEEESaISG_EED2Ev
FN:678,_ZNSt6vectorINSt7__cxx1112basic_stringIcSt11char_traitsIcESaIcEEESaIS5_EED2Ev
FNDA:0,_ZNSt6vectorINSt7__cxx1112basic_stringIcSt11char_traitsIcESaIcEEESaIS5_EED2Ev
FN:678,_ZNSt6vectorIS_IS_IS_ISt4pairIhhESaIS1_EESaIS3_EESaIS5_EESaIS7_EED2Ev
FNDA:0,_ZNSt6vectorIS_IS_IS_ISt4pairIhhESaIS1_EESaIS3_EESaIS5_EESaIS7_EED2Ev
FN:678,_ZNSt6vectorIS_IS_IaSaIaEESaIS1_EESaIS3_EED2Ev
FNDA:0,_ZNSt6vectorIS_IS_IaSaIaEESaIS1_EESaIS3_EED2Ev
FN:678,_ZNSt6vectorIS_ISt4pairIhhESaIS1_EESaIS3_EED2Ev
FNDA:0,_ZNSt6vectorIS_ISt4pairIhhESaIS1_EESaIS3_EED2Ev
FN:678,_ZNSt6vectorISt3setIP18MooseVariableFieldIdESt4lessIS3_ESaIS3_EESaIS7_EED2Ev
FNDA:0,_ZNSt6vectorISt3setIP18MooseVariableFieldIdESt4lessIS3_ESaIS3_EESaIS7_EED2Ev
FN:678,_ZNSt6vectorISt10unique_ptrI33OptionalMaterialPropertyProxyBaseI25MaterialPropertyInterfaceESt14default_deleteIS3_EESaIS6_EED2Ev
FNDA:0,_ZNSt6vectorISt10unique_ptrI33OptionalMaterialPropertyProxyBaseI25MaterialPropertyInterfaceESt14default_deleteIS3_EESaIS6_EED2Ev
FN:678,_ZNSt6vectorI15AuxVariableNameSaIS0_EED2Ev
FNDA:40,_ZNSt6vectorI15AuxVariableNameSaIS0_EED2Ev
FN:678,_ZNSt6vectorISt10unique_ptrI10MooseArrayIdESt14default_deleteIS2_EESaIS5_EED2Ev
FNDA:0,_ZNSt6vectorISt10unique_ptrI10MooseArrayIdESt14default_deleteIS2_EESaIS5_EED2Ev
FN:678,_ZNSt6vectorISt10shared_ptrI17RegistryEntryBaseESaIS2_EED2Ev
FNDA:0,_ZNSt6vectorISt10shared_ptrI17RegistryEntryBaseESaIS2_EED2Ev
FN:678,_ZNSt6vectorIS_IaSaIaEESaIS1_EED2Ev
FNDA:0,_ZNSt6vectorIS_IaSaIaEESaIS1_EED2Ev
FN:678,_ZNSt6vectorIS_IS_ISt4pairIhhESaIS1_EESaIS3_EESaIS5_EED2Ev
FNDA:0,_ZNSt6vectorIS_IS_ISt4pairIhhESaIS1_EESaIS3_EESaIS5_EED2Ev
FN:1577,_ZNSt6vectorIdSaIdEE19_M_range_initializeIPKdEEvT_S5_St20forward_iterator_tag
FNDA:0,_ZNSt6vectorIdSaIdEE19_M_range_initializeIPKdEEvT_S5_St20forward_iterator_tag
FN:1756,_ZNKSt6vectorISt10shared_ptrI17RegistryEntryBaseESaIS2_EE12_M_check_lenEmPKc
FNDA:0,_ZNKSt6vectorISt10shared_ptrI17RegistryEntryBaseESaIS2_EE12_M_check_lenEmPKc
FNF:40
FNH:4
DA:97,0
DA:98,0
DA:277,0
DA:333,0
DA:336,0
DA:337,0
DA:333,0
DA:336,0
DA:337,0
DA:333,20
DA:336,20
DA:337,20
DA:333,0
DA:336,0
DA:337,0
DA:333,0
DA:336,0
DA:337,0
DA:333,0
DA:336,0
DA:337,0
DA:333,0
DA:336,0
DA:337,0
DA:333,40
DA:336,40
DA:337,40
DA:333,0
DA:336,0
DA:337,0
DA:333,0
DA:336,0
DA:337,0
DA:333,0
DA:336,0
DA:337,0
DA:333,0
DA:336,0
DA:337,0
DA:333,0
DA:336,0
DA:337,0
DA:333,0
DA:336,0
DA:337,0
DA:333,0
DA:336,0
DA:337,0
DA:333,0
DA:336,0
DA:337,0
DA:333,40
DA:336,40
DA:337,40
DA:333,0
DA:336,0
DA:337,0
DA:333,0
DA:336,0
DA:337,0
DA:333,0
DA:336,0
DA:337,0
DA:333,0
DA:336,0
DA:337,0
DA:333,0
DA:336,0
DA:337,0
DA:333,0
DA:335,0
DA:336,0
DA:337,0
DA:333,0
DA:336,0
DA:337,0
DA:346,0
DA:353,100
DA:625,0
DA:627,0
DA:629,0
DA:631,0
DA:678,0
DA:680,0
DA:683,0
DA:678,0
DA:680,0
DA:683,0
DA:678,0
DA:680,0
DA:683,0
DA:678,0
DA:680,0
DA:683,0
DA:678,0
DA:680,0
DA:683,0
DA:678,0
DA:680,0
DA:683,0
DA:678,40
DA:680,40
DA:683,40
DA:678,0
DA:680,0
DA:683,0
DA:678,0
DA:680,0
DA:683,0
DA:678,0
DA:680,0
DA:683,0
DA:678,0
DA:680,0
DA:683,0
DA:678,0
DA:680,0
DA:683,0
DA:678,0
DA:680,0
DA:683,0
DA:683,0
DA:919,0
DA:1064,473088
DA:1204,34
DA:1577,0
DA:1580,0
DA:1582,0
DA:1583,0
DA:1584,0
DA:1588,0
DA:1756,0
DA:1758,0
DA:1759,0
DA:1761,0
DA:1762,0
DA:1769,0
DA:1770,0
LF:138
LH:15
end_of_record
SF:/usr/share/miniconda3/envs/moose/x86_64-conda-linux-gnu/include/c++/10.4.0/ext/new_allocator.h
FN:154,_ZN9__gnu_cxx13new_allocatorISt13_Rb_tree_nodeISt4pairIKNSt7__cxx1112basic_stringIcSt11char_traitsIcESaIcEEES8_EEE9constructISA_JRKSt21piecewise_construct_tSt5tupleIJOS8_EESH_IJEEEEEvPT_DpOT0_
FNDA:0,_ZN9__gnu_cxx13new_allocatorISt13_Rb_tree_nodeISt4pairIKNSt7__cxx1112basic_stringIcSt11char_traitsIcESaIcEEES8_EEE9constructISA_JRKSt21piecewise_construct_tSt5tupleIJOS8_EESH_IJEEEEEvPT_DpOT0_
FN:154,_ZN9__gnu_cxx13new_allocatorISt13_Rb_tree_nodeISt4pairIKNSt7__cxx1112basic_stringIcSt11char_traitsIcESaIcEEEN15InputParameters8MetadataEEEE9constructISC_JRKSt21piecewise_construct_tSt5tupleIJRS9_EESJ_IJEEEEEvPT_DpOT0_
FNDA:88666,_ZN9__gnu_cxx13new_allocatorISt13_Rb_tree_nodeISt4pairIKNSt7__cxx1112basic_stringIcSt11char_traitsIcESaIcEEEN15InputParameters8MetadataEEEE9constructISC_JRKSt21piecewise_construct_tSt5tupleIJRS9_EESJ_IJEEEEEvPT_DpOT0_
FNF:2
FNH:1
DA:111,0
DA:112,0
DA:121,88720
DA:139,60
DA:154,0
DA:156,0
DA:154,88666
DA:156,88666
DA:156,20
DA:162,20
LF:10
LH:6
end_of_record
SF:/home/runner/work/beaver/beaver/moose/framework/build/header_symlinks/Restartable.h
LF:0
LH:0
end_of_record
SF:/home/runner/work/beaver/beaver/moose/framework/build/header_symlinks/PostprocessorInterface.h
FN:141,_ZNK22PostprocessorInterface32addPostprocessorDependencyHelperERK17PostprocessorName
FNDA:0,_ZNK22PostprocessorInterface32addPostprocessorDependencyHelperERK17PostprocessorName
FNF:1
FNH:0
DA:141,0
LF:1
LH:0
end_of_record
SF:/home/runner/work/beaver/beaver/moose/framework/build/header_symlinks/SetupInterface.h
FN:61,_ZN14SetupInterface11customSetupERK13MooseEnumItem
FNDA:0,_ZN14SetupInterface11customSetupERK13MooseEnumItem
FNF:1
FNH:0
DA:61,0
LF:1
LH:0
end_of_record
SF:/usr/share/miniconda3/envs/moose/x86_64-conda-linux-gnu/include/c++/10.4.0/bits/stl_iterator_base_funcs.h
DA:104,1105131
LF:1
LH:1
end_of_record
SF:/home/runner/work/beaver/beaver/moose/framework/build/header_symlinks/ResidualObject.h
FN:76,_ZN14ResidualObject22computeOffDiagJacobianEj
FNDA:0,_ZN14ResidualObject22computeOffDiagJacobianEj
FN:82,_ZN14ResidualObject28computeOffDiagJacobianScalarEj
FNDA:0,_ZN14ResidualObject28computeOffDiagJacobianScalarEj
FN:88,_ZN14ResidualObject23computeNonlocalJacobianEv
FNDA:0,_ZN14ResidualObject23computeNonlocalJacobianEv
FN:93,_ZN14ResidualObject30computeNonlocalOffDiagJacobianEj
FNDA:0,_ZN14ResidualObject30computeNonlocalOffDiagJacobianEj
FN:112,_ZN14ResidualObject20precalculateResidualEv
FNDA:0,_ZN14ResidualObject20precalculateResidualEv
FN:113,_ZN14ResidualObject20precalculateJacobianEv
FNDA:0,_ZN14ResidualObject20precalculateJacobianEv
FN:114,_ZN14ResidualObject27precalculateOffDiagJacobianEj
FNDA:0,_ZN14ResidualObject27precalculateOffDiagJacobianEj
FNF:7
FNH:0
DA:76,0
DA:82,0
DA:88,0
DA:93,0
DA:112,0
DA:113,0
DA:114,0
LF:7
LH:0
end_of_record
SF:/home/runner/work/beaver/beaver/src/bcs/BVShearTractionBC.C
FN:20,_ZN17BVShearTractionBC11validParamsEv
FNDA:116,_ZN17BVShearTractionBC11validParamsEv
FN:31,_ZN17BVShearTractionBCC2ERK15InputParameters
FNDA:0,_ZN17BVShearTractionBCC2ERK15InputParameters
FN:42,_ZN17BVShearTractionBC17computeQpResidualEv
FNDA:0,_ZN17BVShearTractionBC17computeQpResidualEv
FNF:3
FNH:1
DA:20,116
DA:22,116
DA:23,116
DA:24,232
DA:25,232
DA:26,232
DA:27,116
DA:28,116
DA:31,0
DA:33,0
DA:34,0
DA:35,0
DA:37,0
DA:38,0
DA:39,0
DA:42,0
DA:45,0
DA:47,0
DA:49,0
DA:50,0
DA:52,0
LF:21
LH:8
end_of_record
SF:/usr/share/miniconda3/envs/moose/libmesh/include/libmesh/parameters.h
FN:85,_ZN7libMesh10ParametersD2Ev
FNDA:0,_ZN7libMesh10ParametersD2Ev
FN:85,_ZN7libMesh10ParametersD0Ev
FNDA:0,_ZN7libMesh10ParametersD0Ev
FN:138,_ZN7libMesh10Parameters14set_attributesERKNSt7__cxx1112basic_stringIcSt11char_traitsIcESaIcEEEb
FNDA:0,_ZN7libMesh10Parameters14set_attributesERKNSt7__cxx1112basic_stringIcSt11char_traitsIcESaIcEEEb
FN:295,_ZNK7libMesh10Parameters9ParameterIjE4typeB5cxx11Ev
FNDA:2697,_ZNK7libMesh10Parameters9ParameterIjE4typeB5cxx11Ev
FN:295,_ZNK7libMesh10Parameters9ParameterI12FunctionNameE4typeB5cxx11Ev
FNDA:490,_ZNK7libMesh10Parameters9ParameterI12FunctionNameE4typeB5cxx11Ev
FN:295,_ZNK7libMesh10Parameters9ParameterIbE4typeB5cxx11Ev
FNDA:0,_ZNK7libMesh10Parameters9ParameterIbE4typeB5cxx11Ev
FN:295,_ZNK7libMesh10Parameters9ParameterIP13FEProblemBaseE4typeB5cxx11Ev
FNDA:0,_ZNK7libMesh10Parameters9ParameterIP13FEProblemBaseE4typeB5cxx11Ev
FN:295,_ZNK7libMesh10Parameters9ParameterIdE4typeB5cxx11Ev
FNDA:3077,_ZNK7libMesh10Parameters9ParameterIdE4typeB5cxx11Ev
FN:303,_ZNK7libMesh10Parameters9ParameterIjE5printERSo
FNDA:2698,_ZNK7libMesh10Parameters9ParameterIjE5printERSo
FN:303,_ZNK7libMesh10Parameters9ParameterI12FunctionNameE5printERSo
FNDA:106,_ZNK7libMesh10Parameters9ParameterI12FunctionNameE5printERSo
FN:303,_ZNK7libMesh10Parameters9ParameterIP13FEProblemBaseE5printERSo
FNDA:0,_ZNK7libMesh10Parameters9ParameterIP13FEProblemBaseE5printERSo
FN:303,_ZNK7libMesh10Parameters9ParameterIbE5printERSo
FNDA:0,_ZNK7libMesh10Parameters9ParameterIbE5printERSo
FN:303,_ZNK7libMesh10Parameters9ParameterIdE5printERSo
FNDA:2658,_ZNK7libMesh10Parameters9ParameterIdE5printERSo
FN:311,_ZNK7libMesh10Parameters9ParameterIP13FEProblemBaseE5cloneEv
FNDA:0,_ZNK7libMesh10Parameters9ParameterIP13FEProblemBaseE5cloneEv
FN:311,_ZNK7libMesh10Parameters9ParameterIjE5cloneEv
FNDA:91208,_ZNK7libMesh10Parameters9ParameterIjE5cloneEv
FN:311,_ZNK7libMesh10Parameters9ParameterIbE5cloneEv
FNDA:0,_ZNK7libMesh10Parameters9ParameterIbE5cloneEv
FN:311,_ZNK7libMesh10Parameters9ParameterI12FunctionNameE5cloneEv
FNDA:103,_ZNK7libMesh10Parameters9ParameterI12FunctionNameE5cloneEv
FN:311,_ZNK7libMesh10Parameters9ParameterIdE5cloneEv
FNDA:30874,_ZNK7libMesh10Parameters9ParameterIdE5cloneEv
FN:324,_ZN7libMesh10Parameters5clearEv
FNDA:0,_ZN7libMesh10Parameters5clearEv
FN:332,_ZN7libMesh10ParametersaSERKS0_
FNDA:0,_ZN7libMesh10ParametersaSERKS0_
FN:341,_ZN7libMesh10ParameterspLERKS0_
FNDA:0,_ZN7libMesh10ParameterspLERKS0_
FN:360,_ZNK7libMesh10Parameters5printERSo
FNDA:0,_ZNK7libMesh10Parameters5printERSo
FN:395,_ZNK7libMesh10Parameters14have_parameterIbEEbSt17basic_string_viewIcSt11char_traitsIcEE
FNDA:0,_ZNK7libMesh10Parameters14have_parameterIbEEbSt17basic_string_viewIcSt11char_traitsIcEE
FN:395,_ZNK7libMesh10Parameters14have_parameterI12FunctionNameEEbSt17basic_string_viewIcSt11char_traitsIcEE
FNDA:4663,_ZNK7libMesh10Parameters14have_parameterI12FunctionNameEEbSt17basic_string_viewIcSt11char_traitsIcEE
FN:395,_ZNK7libMesh10Parameters14have_parameterIdEEbSt17basic_string_viewIcSt11char_traitsIcEE
FNDA:87590,_ZNK7libMesh10Parameters14have_parameterIdEEbSt17basic_string_viewIcSt11char_traitsIcEE
FN:395,_ZNK7libMesh10Parameters14have_parameterIjEEbSt17basic_string_viewIcSt11char_traitsIcEE
FNDA:12841,_ZNK7libMesh10Parameters14have_parameterIjEEbSt17basic_string_viewIcSt11char_traitsIcEE
FN:426,_ZNK7libMesh10Parameters3getIdEERKT_St17basic_string_viewIcSt11char_traitsIcEE
FNDA:955,_ZNK7libMesh10Parameters3getIdEERKT_St17basic_string_viewIcSt11char_traitsIcEE
FN:426,_ZNK7libMesh10Parameters3getIjEERKT_St17basic_string_viewIcSt11char_traitsIcEE
FNDA:4765,_ZNK7libMesh10Parameters3getIjEERKT_St17basic_string_viewIcSt11char_traitsIcEE
FN:458,_ZN7libMesh10Parameters6insertI12FunctionNameEEvRKNSt7__cxx1112basic_stringIcSt11char_traitsIcESaIcEEE
FNDA:4663,_ZN7libMesh10Parameters6insertI12FunctionNameEEvRKNSt7__cxx1112basic_stringIcSt11char_traitsIcESaIcEEE
FN:458,_ZN7libMesh10Parameters6insertIjEEvRKNSt7__cxx1112basic_stringIcSt11char_traitsIcESaIcEEE
FNDA:6420,_ZN7libMesh10Parameters6insertIjEEvRKNSt7__cxx1112basic_stringIcSt11char_traitsIcESaIcEEE
FN:469,_ZN7libMesh10Parameters3setIdEERT_RKNSt7__cxx1112basic_stringIcSt11char_traitsIcESaIcEEE
FNDA:85803,_ZN7libMesh10Parameters3setIdEERT_RKNSt7__cxx1112basic_stringIcSt11char_traitsIcESaIcEEE
FN:469,_ZN7libMesh10Parameters3setIbEERT_RKNSt7__cxx1112basic_stringIcSt11char_traitsIcESaIcEEE
FNDA:0,_ZN7libMesh10Parameters3setIbEERT_RKNSt7__cxx1112basic_stringIcSt11char_traitsIcESaIcEEE
FNF:32
FNH:17
DA:85,0
DA:85,0
DA:85,0
DA:138,0
DA:206,218239
DA:213,5720
DA:218,85803
DA:295,0
DA:297,0
DA:295,2697
DA:297,2697
DA:295,490
DA:297,490
DA:295,0
DA:297,0
DA:295,3077
DA:297,3077
DA:303,0
DA:307,0
DA:303,2698
DA:307,2698
DA:303,106
DA:307,106
DA:303,0
DA:307,0
DA:303,2658
DA:307,2658
DA:311,0
DA:313,0
DA:315,0
DA:317,0
DA:311,91208
DA:313,91208
DA:315,91208
DA:317,91208
DA:311,103
DA:313,206
DA:317,103
DA:311,0
DA:313,0
DA:315,0
DA:317,0
DA:311,30874
DA:313,30874
DA:315,30874
DA:317,30874
DA:324,0
DA:327,0
DA:332,0
DA:335,0
DA:337,0
DA:341,0
DA:344,0
DA:345,0
DA:347,0
DA:360,0
DA:365,0
DA:366,0
DA:370,0
DA:372,0
DA:373,0
DA:377,0
DA:387,0
DA:388,0
DA:395,0
DA:399,0
DA:403,0
DA:404,0
DA:395,4663
DA:399,4663
DA:403,0
DA:404,0
DA:395,87590
DA:399,87590
DA:403,2619
DA:404,2619
DA:395,12841
DA:399,12841
DA:403,6421
DA:404,6421
DA:426,955
DA:428,955
DA:430,0
DA:432,0
DA:434,0
DA:438,0
DA:441,0
DA:453,955
DA:426,4765
DA:428,4765
DA:430,0
DA:432,0
DA:434,0
DA:438,0
DA:441,0
DA:453,4765
DA:458,4663
DA:460,4663
DA:461,4663
DA:463,4663
DA:464,4663
DA:458,6420
DA:460,6420
DA:461,6420
DA:463,6420
DA:464,6420
DA:469,85803
DA:471,85803
DA:472,84971
DA:474,85803
DA:477,85803
DA:480,85803
DA:469,0
DA:471,0
DA:472,0
DA:474,0
DA:477,0
DA:480,0
DA:537,5356
LF:119
LH:59
end_of_record
SF:/home/runner/work/beaver/beaver/moose/framework/build/header_symlinks/BoundaryCondition.h
FN:48,_ZN17BoundaryCondition11shouldApplyEv
FNDA:85632,_ZN17BoundaryCondition11shouldApplyEv
FNF:1
FNH:1
DA:48,85632
LF:1
LH:1
end_of_record
SF:/usr/share/miniconda3/envs/moose/libmesh/include/Eigen/src/Core/DenseStorage.h
DA:621,0
LF:1
LH:0
end_of_record
SF:/usr/share/miniconda3/envs/moose/x86_64-conda-linux-gnu/include/c++/10.4.0/bits/stl_function.h
FN:600,_ZNSt4lessIvE6_S_cmpIRKNSt7__cxx1112basic_stringIcSt11char_traitsIcESaIcEEERKSt17basic_string_viewIcS5_EEEDcOT_OT0_St17integral_constantIbLb0EE
FNDA:0,_ZNSt4lessIvE6_S_cmpIRKNSt7__cxx1112basic_stringIcSt11char_traitsIcESaIcEEERKSt17basic_string_viewIcS5_EEEDcOT_OT0_St17integral_constantIbLb0EE
FN:600,_ZNSt4lessIvE6_S_cmpIRKSt17basic_string_viewIcSt11char_traitsIcEERKNSt7__cxx1112basic_stringIcS4_SaIcEEEEEDcOT_OT0_St17integral_constantIbLb0EE
FNDA:0,_ZNSt4lessIvE6_S_cmpIRKSt17basic_string_viewIcSt11char_traitsIcEERKNSt7__cxx1112basic_stringIcS4_SaIcEEEEEDcOT_OT0_St17integral_constantIbLb0EE
FNF:2
FNH:0
DA:586,0
DA:600,0
DA:601,0
DA:600,0
DA:601,0
DA:1156,2303433
LF:6
LH:1
end_of_record
SF:/usr/share/miniconda3/envs/moose/x86_64-conda-linux-gnu/include/c++/10.4.0/initializer_list
DA:71,0
DA:79,0
LF:2
LH:0
end_of_record
SF:/usr/share/miniconda3/envs/moose/x86_64-conda-linux-gnu/include/c++/10.4.0/ext/aligned_buffer.h
DA:65,88666
DA:104,74
LF:2
LH:2
end_of_record
SF:/home/runner/work/beaver/beaver/moose/framework/build/header_symlinks/MooseObjectName.h
FN:56,_ZN15MooseObjectNameD0Ev
FNDA:0,_ZN15MooseObjectNameD0Ev
FN:56,_ZN15MooseObjectNameD2Ev
FNDA:0,_ZN15MooseObjectNameD2Ev
FNF:2
FNH:0
DA:56,0
DA:56,0
LF:2
LH:0
end_of_record
SF:/usr/share/miniconda3/envs/moose/x86_64-conda-linux-gnu/include/c++/10.4.0/ostream
DA:175,0
DA:196,2698
DA:221,2658
DA:246,0
DA:518,0
LF:5
LH:2
end_of_record
SF:/usr/share/miniconda3/envs/moose/x86_64-conda-linux-gnu/include/c++/10.4.0/bits/unordered_map.h
DA:102,0
LF:1
LH:0
end_of_record
SF:/home/runner/work/beaver/beaver/moose/framework/build/header_symlinks/CoupleableMooseVariableDependencyIntermediateInterface.h
LF:0
LH:0
end_of_record
SF:/home/runner/work/beaver/beaver/moose/framework/build/header_symlinks/UserObjectInterface.h
FN:108,_ZNK19UserObjectInterface29addUserObjectDependencyHelperERK10UserObject
FNDA:0,_ZNK19UserObjectInterface29addUserObjectDependencyHelperERK10UserObject
FNF:1
FNH:0
DA:108,0
LF:1
LH:0
end_of_record
SF:/home/runner/work/beaver/beaver/moose/framework/build/header_symlinks/ScalarCoupleable.h
LF:0
LH:0
end_of_record
SF:/home/runner/work/beaver/beaver/moose/framework/build/header_symlinks/MooseBaseParameterInterface.h
FN:171,_ZNK27MooseBaseParameterInterface13paramErrorMsgIJPKcEEENSt7__cxx1112basic_stringIcSt11char_traitsIcESaIcEEERKS8_DpT_
FNDA:1,_ZNK27MooseBaseParameterInterface13paramErrorMsgIJPKcEEENSt7__cxx1112basic_stringIcSt11char_traitsIcESaIcEEERKS8_DpT_
FN:233,_ZNK27MooseBaseParameterInterface10paramErrorIJPKcEEEvRKNSt7__cxx1112basic_stringIcSt11char_traitsIcESaIcEEEDpT_
FNDA:1,_ZNK27MooseBaseParameterInterface10paramErrorIJPKcEEEvRKNSt7__cxx1112basic_stringIcSt11char_traitsIcESaIcEEEDpT_
FNF:2
FNH:2
DA:102,20
DA:171,1
DA:173,1
DA:176,1
DA:177,1
DA:179,2
DA:180,1
DA:187,1
DA:188,0
DA:190,1
DA:192,2
DA:194,0
DA:202,40
DA:233,1
DA:235,1
DA:236,1
DA:237,1
LF:17
LH:15
end_of_record
SF:/usr/share/miniconda3/envs/moose/x86_64-conda-linux-gnu/include/c++/10.4.0/future
FN:328,_ZNSt13__future_base13_State_baseV2D0Ev
FNDA:0,_ZNSt13__future_base13_State_baseV2D0Ev
FN:328,_ZNSt13__future_base13_State_baseV2D2Ev
FNDA:0,_ZNSt13__future_base13_State_baseV2D2Ev
FN:581,_ZNSt13__future_base13_State_baseV217_M_complete_asyncEv
FNDA:0,_ZNSt13__future_base13_State_baseV217_M_complete_asyncEv
FN:584,_ZNKSt13__future_base13_State_baseV221_M_is_deferred_futureEv
FNDA:0,_ZNKSt13__future_base13_State_baseV221_M_is_deferred_futureEv
FN:663,_ZNSt13__future_base7_ResultIvE10_M_destroyEv
FNDA:0,_ZNSt13__future_base7_ResultIvE10_M_destroyEv
FNF:5
FNH:0
DA:213,0
DA:328,0
DA:328,0
DA:581,0
DA:584,0
DA:663,0
LF:6
LH:0
end_of_record
SF:/home/runner/work/beaver/beaver/moose/framework/build/header_symlinks/MeshChangedInterface.h
FN:34,_ZN20MeshChangedInterface11meshChangedEv
FNDA:0,_ZN20MeshChangedInterface11meshChangedEv
FNF:1
FNH:0
DA:34,0
LF:1
LH:0
end_of_record
SF:/usr/share/miniconda3/envs/moose/x86_64-conda-linux-gnu/include/c++/10.4.0/bits/allocated_ptr.h
FN:70,_ZNSt15__allocated_ptrISaISt23_Sp_counted_ptr_inplaceI12BVPressureBCSaIS1_ELN9__gnu_cxx12_Lock_policyE2EEEED2Ev
FNDA:40,_ZNSt15__allocated_ptrISaISt23_Sp_counted_ptr_inplaceI12BVPressureBCSaIS1_ELN9__gnu_cxx12_Lock_policyE2EEEED2Ev
FN:70,_ZNSt15__allocated_ptrISaISt23_Sp_counted_ptr_inplaceI17BVShearTractionBCSaIS1_ELN9__gnu_cxx12_Lock_policyE2EEEED2Ev
FNDA:0,_ZNSt15__allocated_ptrISaISt23_Sp_counted_ptr_inplaceI17BVShearTractionBCSaIS1_ELN9__gnu_cxx12_Lock_policyE2EEEED2Ev
FN:70,_ZNSt15__allocated_ptrISaISt23_Sp_counted_ptr_inplaceI13RegistryEntryI17BVShearTractionBCESaIS3_ELN9__gnu_cxx12_Lock_policyE2EEEED2Ev
FNDA:17,_ZNSt15__allocated_ptrISaISt23_Sp_counted_ptr_inplaceI13RegistryEntryI17BVShearTractionBCESaIS3_ELN9__gnu_cxx12_Lock_policyE2EEEED2Ev
FN:70,_ZNSt15__allocated_ptrISaISt23_Sp_counted_ptr_inplaceI13RegistryEntryI12BVPressureBCESaIS3_ELN9__gnu_cxx12_Lock_policyE2EEEED2Ev
FNDA:17,_ZNSt15__allocated_ptrISaISt23_Sp_counted_ptr_inplaceI13RegistryEntryI12BVPressureBCESaIS3_ELN9__gnu_cxx12_Lock_policyE2EEEED2Ev
FN:70,_ZNSt15__allocated_ptrISaISt23_Sp_counted_ptr_inplaceINSt13__future_base13_State_baseV2ESaIS2_ELN9__gnu_cxx12_Lock_policyE2EEEED2Ev
FNDA:0,_ZNSt15__allocated_ptrISaISt23_Sp_counted_ptr_inplaceINSt13__future_base13_State_baseV2ESaIS2_ELN9__gnu_cxx12_Lock_policyE2EEEED2Ev
FN:70,_ZNSt15__allocated_ptrISaISt23_Sp_counted_ptr_inplaceISt5mutexSaIS1_ELN9__gnu_cxx12_Lock_policyE2EEEED2Ev
FNDA:0,_ZNSt15__allocated_ptrISaISt23_Sp_counted_ptr_inplaceISt5mutexSaIS1_ELN9__gnu_cxx12_Lock_policyE2EEEED2Ev
FNF:6
FNH:3
DA:52,20
DA:53,74
DA:70,40
DA:72,40
DA:74,40
DA:70,0
DA:72,0
DA:74,0
DA:70,17
DA:72,17
DA:74,17
DA:70,17
DA:72,17
DA:74,17
DA:70,0
DA:72,0
DA:74,0
DA:70,0
DA:72,0
DA:74,0
DA:80,54
LF:21
LH:12
end_of_record
SF:/usr/share/miniconda3/envs/moose/x86_64-conda-linux-gnu/include/c++/10.4.0/bits/basic_string.tcc
FN:206,_ZNSt7__cxx1112basic_stringIcSt11char_traitsIcESaIcEE12_M_constructIPcEEvT_S7_St20forward_iterator_tag
FNDA:1096866,_ZNSt7__cxx1112basic_stringIcSt11char_traitsIcESaIcEE12_M_constructIPcEEvT_S7_St20forward_iterator_tag
FN:206,_ZNSt7__cxx1112basic_stringIcSt11char_traitsIcESaIcEE12_M_constructIPKcEEvT_S8_St20forward_iterator_tag
FNDA:8265,_ZNSt7__cxx1112basic_stringIcSt11char_traitsIcESaIcEE12_M_constructIPKcEEvT_S8_St20forward_iterator_tag
FN:1152,_ZStplIcSt11char_traitsIcESaIcEENSt7__cxx1112basic_stringIT_T0_T1_EEPKS5_RKS8_
FNDA:0,_ZStplIcSt11char_traitsIcESaIcEENSt7__cxx1112basic_stringIT_T0_T1_EEPKS5_RKS8_
FNF:3
FNH:2
DA:206,1096866
DA:211,1096866
DA:212,0
DA:215,1096866
DA:217,1096866
DA:219,27299
DA:220,27299
DA:232,1096866
DA:233,1096866
DA:206,8265
DA:211,8265
DA:212,0
DA:215,8265
DA:217,8265
DA:219,1877
DA:220,1877
DA:232,8265
DA:233,8265
DA:1152,0
DA:1164,0
DA:1165,0
DA:1167,0
LF:22
LH:16
end_of_record
TN:
SF:/usr/share/miniconda3/envs/moose/x86_64-conda-linux-gnu/include/c++/10.4.0/bits/stl_tree.h
FN:613,_ZNSt8_Rb_treeINSt7__cxx1112basic_stringIcSt11char_traitsIcESaIcEEESt4pairIKS5_St6vectorISt10shared_ptrI17RegistryEntryBaseESaISB_EEESt10_Select1stISE_ESt4lessIS5_ESaISE_EE17_M_construct_nodeIJRKSt21piecewise_construct_tSt5tupleIJRS7_EESP_IJEEEEEvPSt13_Rb_tree_nodeISE_EDpOT_
FNDA:0,_ZNSt8_Rb_treeINSt7__cxx1112basic_stringIcSt11char_traitsIcESaIcEEESt4pairIKS5_St6vectorISt10shared_ptrI17RegistryEntryBaseESaISB_EEESt10_Select1stISE_ESt4lessIS5_ESaISE_EE17_M_construct_nodeIJRKSt21piecewise_construct_tSt5tupleIJRS7_EESP_IJEEEEEvPSt13_Rb_tree_nodeISE_EDpOT_
FN:613,_ZNSt8_Rb_treeINSt7__cxx1112basic_stringIcSt11char_traitsIcESaIcEEESt4pairIKS5_St10unique_ptrIN7libMesh10Parameters5ValueESt14default_deleteISB_EEESt10_Select1stISF_ESt4lessIvESaISF_EE17_M_construct_nodeIJRKSt21piecewise_construct_tSt5tupleIJRS7_EESQ_IJEEEEEvPSt13_Rb_tree_nodeISF_EDpOT_
FNDA:0,_ZNSt8_Rb_treeINSt7__cxx1112basic_stringIcSt11char_traitsIcESaIcEEESt4pairIKS5_St10unique_ptrIN7libMesh10Parameters5ValueESt14default_deleteISB_EEESt10_Select1stISF_ESt4lessIvESaISF_EE17_M_construct_nodeIJRKSt21piecewise_construct_tSt5tupleIJRS7_EESQ_IJEEEEEvPSt13_Rb_tree_nodeISF_EDpOT_
FN:632,_ZNSt8_Rb_treeINSt7__cxx1112basic_stringIcSt11char_traitsIcESaIcEEESt4pairIKS5_S5_ESt10_Select1stIS8_ESt4lessIS5_ESaIS8_EE14_M_create_nodeIJRKSt21piecewise_construct_tSt5tupleIJOS5_EESJ_IJEEEEEPSt13_Rb_tree_nodeIS8_EDpOT_
FNDA:0,_ZNSt8_Rb_treeINSt7__cxx1112basic_stringIcSt11char_traitsIcESaIcEEESt4pairIKS5_S5_ESt10_Select1stIS8_ESt4lessIS5_ESaIS8_EE14_M_create_nodeIJRKSt21piecewise_construct_tSt5tupleIJOS5_EESJ_IJEEEEEPSt13_Rb_tree_nodeIS8_EDpOT_
FN:632,_ZNSt8_Rb_treeINSt7__cxx1112basic_stringIcSt11char_traitsIcESaIcEEESt4pairIKS5_St6vectorISt10shared_ptrI17RegistryEntryBaseESaISB_EEESt10_Select1stISE_ESt4lessIS5_ESaISE_EE14_M_create_nodeIJRKSt21piecewise_construct_tSt5tupleIJRS7_EESP_IJEEEEEPSt13_Rb_tree_nodeISE_EDpOT_
FNDA:0,_ZNSt8_Rb_treeINSt7__cxx1112basic_stringIcSt11char_traitsIcESaIcEEESt4pairIKS5_St6vectorISt10shared_ptrI17RegistryEntryBaseESaISB_EEESt10_Select1stISE_ESt4lessIS5_ESaISE_EE14_M_create_nodeIJRKSt21piecewise_construct_tSt5tupleIJRS7_EESP_IJEEEEEPSt13_Rb_tree_nodeISE_EDpOT_
FN:632,_ZNSt8_Rb_treeIN5Moose7FaceArgESt4pairIKS1_dESt10_Select1stIS4_ESt4lessIS1_ESaIS4_EE14_M_create_nodeIJRKSt21piecewise_construct_tSt5tupleIJRS3_EESF_IJOdEEEEEPSt13_Rb_tree_nodeIS4_EDpOT_
FNDA:0,_ZNSt8_Rb_treeIN5Moose7FaceArgESt4pairIKS1_dESt10_Select1stIS4_ESt4lessIS1_ESaIS4_EE14_M_create_nodeIJRKSt21piecewise_construct_tSt5tupleIJRS3_EESF_IJOdEEEEEPSt13_Rb_tree_nodeIS4_EDpOT_
FN:632,_ZNSt8_Rb_treeIN5Moose7ElemArgESt4pairIKS1_N11MetaPhysicL10DualNumberIdNS4_28SemiDynamicSparseNumberArrayIdmNS4_8NWrapperILm64EEEEELb1EEEESt10_Select1stISB_ESt4lessIS1_ESaISB_EE14_M_create_nodeIJRKSt21piecewise_construct_tSt5tupleIJRS3_EESM_IJOSA_EEEEEPSt13_Rb_tree_nodeISB_EDpOT_
FNDA:0,_ZNSt8_Rb_treeIN5Moose7ElemArgESt4pairIKS1_N11MetaPhysicL10DualNumberIdNS4_28SemiDynamicSparseNumberArrayIdmNS4_8NWrapperILm64EEEEELb1EEEESt10_Select1stISB_ESt4lessIS1_ESaISB_EE14_M_create_nodeIJRKSt21piecewise_construct_tSt5tupleIJRS3_EESM_IJOSA_EEEEEPSt13_Rb_tree_nodeISB_EDpOT_
FN:632,_ZNSt8_Rb_treeIN5Moose7FaceArgESt4pairIKS1_N11MetaPhysicL10DualNumberIdNS4_28SemiDynamicSparseNumberArrayIdmNS4_8NWrapperILm64EEEEELb1EEEESt10_Select1stISB_ESt4lessIS1_ESaISB_EE14_M_create_nodeIJRKSt21piecewise_construct_tSt5tupleIJRS3_EESM_IJOSA_EEEEEPSt13_Rb_tree_nodeISB_EDpOT_
FNDA:0,_ZNSt8_Rb_treeIN5Moose7FaceArgESt4pairIKS1_N11MetaPhysicL10DualNumberIdNS4_28SemiDynamicSparseNumberArrayIdmNS4_8NWrapperILm64EEEEELb1EEEESt10_Select1stISB_ESt4lessIS1_ESaISB_EE14_M_create_nodeIJRKSt21piecewise_construct_tSt5tupleIJRS3_EESM_IJOSA_EEEEEPSt13_Rb_tree_nodeISB_EDpOT_
FN:632,_ZNSt8_Rb_treeINSt7__cxx1112basic_stringIcSt11char_traitsIcESaIcEEESt4pairIKS5_St10unique_ptrIN7libMesh10Parameters5ValueESt14default_deleteISB_EEESt10_Select1stISF_ESt4lessIvESaISF_EE14_M_create_nodeIJRKSt21piecewise_construct_tSt5tupleIJRS7_EESQ_IJEEEEEPSt13_Rb_tree_nodeISF_EDpOT_
FNDA:0,_ZNSt8_Rb_treeINSt7__cxx1112basic_stringIcSt11char_traitsIcESaIcEEESt4pairIKS5_St10unique_ptrIN7libMesh10Parameters5ValueESt14default_deleteISB_EEESt10_Select1stISF_ESt4lessIvESaISF_EE14_M_create_nodeIJRKSt21piecewise_construct_tSt5tupleIJRS7_EESQ_IJEEEEEPSt13_Rb_tree_nodeISF_EDpOT_
FN:652,_ZNSt8_Rb_treeI13MooseEnumItemS0_St9_IdentityIS0_ESt4lessIS0_ESaIS0_EE12_M_drop_nodeEPSt13_Rb_tree_nodeIS0_E
FNDA:0,_ZNSt8_Rb_treeI13MooseEnumItemS0_St9_IdentityIS0_ESt4lessIS0_ESaIS0_EE12_M_drop_nodeEPSt13_Rb_tree_nodeIS0_E
FN:652,_ZNSt8_Rb_treeI17PostprocessorNameSt4pairIKS0_St10unique_ptrIdSt14default_deleteIdEEESt10_Select1stIS7_ESt4lessIS0_ESaIS7_EE12_M_drop_nodeEPSt13_Rb_tree_nodeIS7_E
FNDA:0,_ZNSt8_Rb_treeI17PostprocessorNameSt4pairIKS0_St10unique_ptrIdSt14default_deleteIdEEESt10_Select1stIS7_ESt4lessIS0_ESaIS7_EE12_M_drop_nodeEPSt13_Rb_tree_nodeIS7_E
FN:652,_ZNSt8_Rb_treeINSt7__cxx1112basic_stringIcSt11char_traitsIcESaIcEEESt4pairIKS5_S5_ESt10_Select1stIS8_ESt4lessIS5_ESaIS8_EE12_M_drop_nodeEPSt13_Rb_tree_nodeIS8_E
FNDA:0,_ZNSt8_Rb_treeINSt7__cxx1112basic_stringIcSt11char_traitsIcESaIcEEESt4pairIKS5_S5_ESt10_Select1stIS8_ESt4lessIS5_ESaIS8_EE12_M_drop_nodeEPSt13_Rb_tree_nodeIS8_E
FN:652,_ZNSt8_Rb_treeINSt7__cxx1112basic_stringIcSt11char_traitsIcESaIcEEESt4pairIKS5_St6vectorISt10shared_ptrI17RegistryEntryBaseESaISB_EEESt10_Select1stISE_ESt4lessIS5_ESaISE_EE12_M_drop_nodeEPSt13_Rb_tree_nodeISE_E
FNDA:0,_ZNSt8_Rb_treeINSt7__cxx1112basic_stringIcSt11char_traitsIcESaIcEEESt4pairIKS5_St6vectorISt10shared_ptrI17RegistryEntryBaseESaISB_EEESt10_Select1stISE_ESt4lessIS5_ESaISE_EE12_M_drop_nodeEPSt13_Rb_tree_nodeISE_E
FN:652,_ZNSt8_Rb_treeINSt7__cxx1112basic_stringIcSt11char_traitsIcESaIcEEESt4pairIKS5_N15InputParameters8MetadataEESt10_Select1stISA_ESt4lessIS5_ESaISA_EE12_M_drop_nodeEPSt13_Rb_tree_nodeISA_E
FNDA:0,_ZNSt8_Rb_treeINSt7__cxx1112basic_stringIcSt11char_traitsIcESaIcEEESt4pairIKS5_N15InputParameters8MetadataEESt10_Select1stISA_ESt4lessIS5_ESaISA_EE12_M_drop_nodeEPSt13_Rb_tree_nodeISA_E
FN:652,_ZNSt8_Rb_treeINSt7__cxx1112basic_stringIcSt11char_traitsIcESaIcEEESt4pairIKS5_St10unique_ptrIN7libMesh10Parameters5ValueESt14default_deleteISB_EEESt10_Select1stISF_ESt4lessIvESaISF_EE12_M_drop_nodeEPSt13_Rb_tree_nodeISF_E
FNDA:0,_ZNSt8_Rb_treeINSt7__cxx1112basic_stringIcSt11char_traitsIcESaIcEEESt4pairIKS5_St10unique_ptrIN7libMesh10Parameters5ValueESt14default_deleteISB_EEESt10_Select1stISF_ESt4lessIvESaISF_EE12_M_drop_nodeEPSt13_Rb_tree_nodeISF_E
FN:1261,_ZNSt8_Rb_treeIN5Moose7NodeArgESt4pairIKS1_dESt10_Select1stIS4_ESt4lessIS1_ESaIS4_EE5clearEv
FNDA:0,_ZNSt8_Rb_treeIN5Moose7NodeArgESt4pairIKS1_dESt10_Select1stIS4_ESt4lessIS1_ESaIS4_EE5clearEv
FN:1261,_ZNSt8_Rb_treeINSt7__cxx1112basic_stringIcSt11char_traitsIcESaIcEEESt4pairIKS5_St10unique_ptrIN7libMesh10Parameters5ValueESt14default_deleteISB_EEESt10_Select1stISF_ESt4lessIvESaISF_EE5clearEv
FNDA:0,_ZNSt8_Rb_treeINSt7__cxx1112basic_stringIcSt11char_traitsIcESaIcEEESt4pairIKS5_St10unique_ptrIN7libMesh10Parameters5ValueESt14default_deleteISB_EEESt10_Select1stISF_ESt4lessIvESaISF_EE5clearEv
FN:1261,_ZNSt8_Rb_treeIN5Moose7FaceArgESt4pairIKS1_dESt10_Select1stIS4_ESt4lessIS1_ESaIS4_EE5clearEv
FNDA:0,_ZNSt8_Rb_treeIN5Moose7FaceArgESt4pairIKS1_dESt10_Select1stIS4_ESt4lessIS1_ESaIS4_EE5clearEv
FN:1261,_ZNSt8_Rb_treeIN5Moose7ElemArgESt4pairIKS1_dESt10_Select1stIS4_ESt4lessIS1_ESaIS4_EE5clearEv
FNDA:0,_ZNSt8_Rb_treeIN5Moose7ElemArgESt4pairIKS1_dESt10_Select1stIS4_ESt4lessIS1_ESaIS4_EE5clearEv
FN:1261,_ZNSt8_Rb_treeIN5Moose7NodeArgESt4pairIKS1_N11MetaPhysicL10DualNumberIdNS4_28SemiDynamicSparseNumberArrayIdmNS4_8NWrapperILm64EEEEELb1EEEESt10_Select1stISB_ESt4lessIS1_ESaISB_EE5clearEv
FNDA:0,_ZNSt8_Rb_treeIN5Moose7NodeArgESt4pairIKS1_N11MetaPhysicL10DualNumberIdNS4_28SemiDynamicSparseNumberArrayIdmNS4_8NWrapperILm64EEEEELb1EEEESt10_Select1stISB_ESt4lessIS1_ESaISB_EE5clearEv
FN:1261,_ZNSt8_Rb_treeIN5Moose7FaceArgESt4pairIKS1_N11MetaPhysicL10DualNumberIdNS4_28SemiDynamicSparseNumberArrayIdmNS4_8NWrapperILm64EEEEELb1EEEESt10_Select1stISB_ESt4lessIS1_ESaISB_EE5clearEv
FNDA:0,_ZNSt8_Rb_treeIN5Moose7FaceArgESt4pairIKS1_N11MetaPhysicL10DualNumberIdNS4_28SemiDynamicSparseNumberArrayIdmNS4_8NWrapperILm64EEEEELb1EEEESt10_Select1stISB_ESt4lessIS1_ESaISB_EE5clearEv
FN:1261,_ZNSt8_Rb_treeIN5Moose7ElemArgESt4pairIKS1_N11MetaPhysicL10DualNumberIdNS4_28SemiDynamicSparseNumberArrayIdmNS4_8NWrapperILm64EEEEELb1EEEESt10_Select1stISB_ESt4lessIS1_ESaISB_EE5clearEv
FNDA:0,_ZNSt8_Rb_treeIN5Moose7ElemArgESt4pairIKS1_N11MetaPhysicL10DualNumberIdNS4_28SemiDynamicSparseNumberArrayIdmNS4_8NWrapperILm64EEEEELb1EEEESt10_Select1stISB_ESt4lessIS1_ESaISB_EE5clearEv
FN:1808,_ZNSt8_Rb_treeIjjSt9_IdentityIjESt4lessIjESaIjEE10_M_insert_IjNS5_11_Alloc_nodeEEESt17_Rb_tree_iteratorIjEPSt18_Rb_tree_node_baseSB_OT_RT0_
FNDA:0,_ZNSt8_Rb_treeIjjSt9_IdentityIjESt4lessIjESaIjEE10_M_insert_IjNS5_11_Alloc_nodeEEESt17_Rb_tree_iteratorIjEPSt18_Rb_tree_node_baseSB_OT_RT0_
FN:1918,_ZNSt8_Rb_treeI13MooseEnumItemSt4pairIKS0_NSt7__cxx1112basic_stringIcSt11char_traitsIcESaIcEEEESt10_Select1stIS9_ESt4lessIS0_ESaIS9_EE8_M_eraseEPSt13_Rb_tree_nodeIS9_E
FNDA:0,_ZNSt8_Rb_treeI13MooseEnumItemSt4pairIKS0_NSt7__cxx1112basic_stringIcSt11char_traitsIcESaIcEEEESt10_Select1stIS9_ESt4lessIS0_ESaIS9_EE8_M_eraseEPSt13_Rb_tree_nodeIS9_E
FN:1918,_ZNSt8_Rb_treeINSt7__cxx1112basic_stringIcSt11char_traitsIcESaIcEEESt4pairIKS5_St10unique_ptrIN7libMesh10Parameters5ValueESt14default_deleteISB_EEESt10_Select1stISF_ESt4lessIvESaISF_EE8_M_eraseEPSt13_Rb_tree_nodeISF_E
FNDA:0,_ZNSt8_Rb_treeINSt7__cxx1112basic_stringIcSt11char_traitsIcESaIcEEESt4pairIKS5_St10unique_ptrIN7libMesh10Parameters5ValueESt14default_deleteISB_EEESt10_Select1stISF_ESt4lessIvESaISF_EE8_M_eraseEPSt13_Rb_tree_nodeISF_E
FN:1918,_ZNSt8_Rb_treeIttSt9_IdentityItESt4lessItESaItEE8_M_eraseEPSt13_Rb_tree_nodeItE
FNDA:0,_ZNSt8_Rb_treeIttSt9_IdentityItESt4lessItESaItEE8_M_eraseEPSt13_Rb_tree_nodeItE
FN:1918,_ZNSt8_Rb_treeIssSt9_IdentityIsESt4lessIsESaIsEE8_M_eraseEPSt13_Rb_tree_nodeIsE
FNDA:0,_ZNSt8_Rb_treeIssSt9_IdentityIsESt4lessIsESaIsEE8_M_eraseEPSt13_Rb_tree_nodeIsE
FN:1918,_ZNSt8_Rb_treeINSt7__cxx1112basic_stringIcSt11char_traitsIcESaIcEEES5_St9_IdentityIS5_ESt4lessIS5_ESaIS5_EE8_M_eraseEPSt13_Rb_tree_nodeIS5_E
FNDA:76,_ZNSt8_Rb_treeINSt7__cxx1112basic_stringIcSt11char_traitsIcESaIcEEES5_St9_IdentityIS5_ESt4lessIS5_ESaIS5_EE8_M_eraseEPSt13_Rb_tree_nodeIS5_E
FN:1918,_ZNSt8_Rb_treeIP18MooseVariableFieldIdES2_St9_IdentityIS2_ESt4lessIS2_ESaIS2_EE8_M_eraseEPSt13_Rb_tree_nodeIS2_E
FNDA:0,_ZNSt8_Rb_treeIP18MooseVariableFieldIdES2_St9_IdentityIS2_ESt4lessIS2_ESaIS2_EE8_M_eraseEPSt13_Rb_tree_nodeIS2_E
FN:1918,_ZNSt8_Rb_treeIN5Moose7ElemArgESt4pairIKS1_dESt10_Select1stIS4_ESt4lessIS1_ESaIS4_EE8_M_eraseEPSt13_Rb_tree_nodeIS4_E
FNDA:0,_ZNSt8_Rb_treeIN5Moose7ElemArgESt4pairIKS1_dESt10_Select1stIS4_ESt4lessIS1_ESaIS4_EE8_M_eraseEPSt13_Rb_tree_nodeIS4_E
FN:1918,_ZNSt8_Rb_treeIN5Moose7FaceArgESt4pairIKS1_dESt10_Select1stIS4_ESt4lessIS1_ESaIS4_EE8_M_eraseEPSt13_Rb_tree_nodeIS4_E
FNDA:0,_ZNSt8_Rb_treeIN5Moose7FaceArgESt4pairIKS1_dESt10_Select1stIS4_ESt4lessIS1_ESaIS4_EE8_M_eraseEPSt13_Rb_tree_nodeIS4_E
FN:1918,_ZNSt8_Rb_treeIN5Moose7NodeArgESt4pairIKS1_dESt10_Select1stIS4_ESt4lessIS1_ESaIS4_EE8_M_eraseEPSt13_Rb_tree_nodeIS4_E
FNDA:0,_ZNSt8_Rb_treeIN5Moose7NodeArgESt4pairIKS1_dESt10_Select1stIS4_ESt4lessIS1_ESaIS4_EE8_M_eraseEPSt13_Rb_tree_nodeIS4_E
FN:1918,_ZNSt8_Rb_treeIN5Moose7ElemArgESt4pairIKS1_N11MetaPhysicL10DualNumberIdNS4_28SemiDynamicSparseNumberArrayIdmNS4_8NWrapperILm64EEEEELb1EEEESt10_Select1stISB_ESt4lessIS1_ESaISB_EE8_M_eraseEPSt13_Rb_tree_nodeISB_E
FNDA:0,_ZNSt8_Rb_treeIN5Moose7ElemArgESt4pairIKS1_N11MetaPhysicL10DualNumberIdNS4_28SemiDynamicSparseNumberArrayIdmNS4_8NWrapperILm64EEEEELb1EEEESt10_Select1stISB_ESt4lessIS1_ESaISB_EE8_M_eraseEPSt13_Rb_tree_nodeISB_E
FN:1918,_ZNSt8_Rb_treeIN5Moose7FaceArgESt4pairIKS1_N11MetaPhysicL10DualNumberIdNS4_28SemiDynamicSparseNumberArrayIdmNS4_8NWrapperILm64EEEEELb1EEEESt10_Select1stISB_ESt4lessIS1_ESaISB_EE8_M_eraseEPSt13_Rb_tree_nodeISB_E
FNDA:0,_ZNSt8_Rb_treeIN5Moose7FaceArgESt4pairIKS1_N11MetaPhysicL10DualNumberIdNS4_28SemiDynamicSparseNumberArrayIdmNS4_8NWrapperILm64EEEEELb1EEEESt10_Select1stISB_ESt4lessIS1_ESaISB_EE8_M_eraseEPSt13_Rb_tree_nodeISB_E
FN:1918,_ZNSt8_Rb_treeIN5Moose7NodeArgESt4pairIKS1_N11MetaPhysicL10DualNumberIdNS4_28SemiDynamicSparseNumberArrayIdmNS4_8NWrapperILm64EEEEELb1EEEESt10_Select1stISB_ESt4lessIS1_ESaISB_EE8_M_eraseEPSt13_Rb_tree_nodeISB_E
FNDA:0,_ZNSt8_Rb_treeIN5Moose7NodeArgESt4pairIKS1_N11MetaPhysicL10DualNumberIdNS4_28SemiDynamicSparseNumberArrayIdmNS4_8NWrapperILm64EEEEELb1EEEESt10_Select1stISB_ESt4lessIS1_ESaISB_EE8_M_eraseEPSt13_Rb_tree_nodeISB_E
FN:1918,_ZNSt8_Rb_treeINSt7__cxx1112basic_stringIcSt11char_traitsIcESaIcEEESt4pairIKS5_N15InputParameters8MetadataEESt10_Select1stISA_ESt4lessIS5_ESaISA_EE8_M_eraseEPSt13_Rb_tree_nodeISA_E
FNDA:0,_ZNSt8_Rb_treeINSt7__cxx1112basic_stringIcSt11char_traitsIcESaIcEEESt4pairIKS5_N15InputParameters8MetadataEESt10_Select1stISA_ESt4lessIS5_ESaISA_EE8_M_eraseEPSt13_Rb_tree_nodeISA_E
FN:1918,_ZNSt8_Rb_treeINSt7__cxx1112basic_stringIcSt11char_traitsIcESaIcEEESt4pairIKS5_S5_ESt10_Select1stIS8_ESt4lessIS5_ESaIS8_EE8_M_eraseEPSt13_Rb_tree_nodeIS8_E
FNDA:0,_ZNSt8_Rb_treeINSt7__cxx1112basic_stringIcSt11char_traitsIcESaIcEEESt4pairIKS5_S5_ESt10_Select1stIS8_ESt4lessIS5_ESaIS8_EE8_M_eraseEPSt13_Rb_tree_nodeIS8_E
FN:1918,_ZNSt8_Rb_treeINSt7__cxx1112basic_stringIcSt11char_traitsIcESaIcEEESt4pairIKS5_S6_IS5_S5_EESt10_Select1stIS9_ESt4lessIS5_ESaIS9_EE8_M_eraseEPSt13_Rb_tree_nodeIS9_E
FNDA:0,_ZNSt8_Rb_treeINSt7__cxx1112basic_stringIcSt11char_traitsIcESaIcEEESt4pairIKS5_S6_IS5_S5_EESt10_Select1stIS9_ESt4lessIS5_ESaIS9_EE8_M_eraseEPSt13_Rb_tree_nodeIS9_E
FN:1918,_ZNSt8_Rb_treeIjjSt9_IdentityIjESt4lessIjESaIjEE8_M_eraseEPSt13_Rb_tree_nodeIjE
FNDA:0,_ZNSt8_Rb_treeIjjSt9_IdentityIjESt4lessIjESaIjEE8_M_eraseEPSt13_Rb_tree_nodeIjE
FN:1918,_ZNSt8_Rb_treeIP22MooseVariableFieldBaseS1_St9_IdentityIS1_ESt4lessIS1_ESaIS1_EE8_M_eraseEPSt13_Rb_tree_nodeIS1_E
FNDA:52,_ZNSt8_Rb_treeIP22MooseVariableFieldBaseS1_St9_IdentityIS1_ESt4lessIS1_ESaIS1_EE8_M_eraseEPSt13_Rb_tree_nodeIS1_E
FN:1918,_ZNSt8_Rb_treeI17PostprocessorNameSt4pairIKS0_St10unique_ptrIdSt14default_deleteIdEEESt10_Select1stIS7_ESt4lessIS0_ESaIS7_EE8_M_eraseEPSt13_Rb_tree_nodeIS7_E
FNDA:24,_ZNSt8_Rb_treeI17PostprocessorNameSt4pairIKS0_St10unique_ptrIdSt14default_deleteIdEEESt10_Select1stIS7_ESt4lessIS0_ESaIS7_EE8_M_eraseEPSt13_Rb_tree_nodeIS7_E
FN:1918,_ZNSt8_Rb_treeI14UserObjectNameS0_St9_IdentityIS0_ESt4lessIS0_ESaIS0_EE8_M_eraseEPSt13_Rb_tree_nodeIS0_E
FNDA:24,_ZNSt8_Rb_treeI14UserObjectNameS0_St9_IdentityIS0_ESt4lessIS0_ESaIS0_EE8_M_eraseEPSt13_Rb_tree_nodeIS0_E
FN:1918,_ZNSt8_Rb_treeI13MooseEnumItemS0_St9_IdentityIS0_ESt4lessIS0_ESaIS0_EE8_M_eraseEPSt13_Rb_tree_nodeIS0_E
FNDA:0,_ZNSt8_Rb_treeI13MooseEnumItemS0_St9_IdentityIS0_ESt4lessIS0_ESaIS0_EE8_M_eraseEPSt13_Rb_tree_nodeIS0_E
FN:1918,_ZNSt8_Rb_treeI13MooseEnumItemSt4pairIKS0_S0_ESt10_Select1stIS3_ESt4lessIS0_ESaIS3_EE8_M_eraseEPSt13_Rb_tree_nodeIS3_E
FNDA:0,_ZNSt8_Rb_treeI13MooseEnumItemSt4pairIKS0_S0_ESt10_Select1stIS3_ESt4lessIS0_ESaIS3_EE8_M_eraseEPSt13_Rb_tree_nodeIS3_E
FN:1935,_ZNSt8_Rb_treeINSt7__cxx1112basic_stringIcSt11char_traitsIcESaIcEEESt4pairIKS5_St10unique_ptrIN7libMesh10Parameters5ValueESt14default_deleteISB_EEESt10_Select1stISF_ESt4lessIvESaISF_EE14_M_lower_boundEPSt13_Rb_tree_nodeISF_EPSt18_Rb_tree_node_baseRS7_
FNDA:0,_ZNSt8_Rb_treeINSt7__cxx1112basic_stringIcSt11char_traitsIcESaIcEEESt4pairIKS5_St10unique_ptrIN7libMesh10Parameters5ValueESt14default_deleteISB_EEESt10_Select1stISF_ESt4lessIvESaISF_EE14_M_lower_boundEPSt13_Rb_tree_nodeISF_EPSt18_Rb_tree_node_baseRS7_
FN:1935,_ZNSt8_Rb_treeINSt7__cxx1112basic_stringIcSt11char_traitsIcESaIcEEESt4pairIKS5_S5_ESt10_Select1stIS8_ESt4lessIS5_ESaIS8_EE14_M_lower_boundEPSt13_Rb_tree_nodeIS8_EPSt18_Rb_tree_node_baseRS7_
FNDA:0,_ZNSt8_Rb_treeINSt7__cxx1112basic_stringIcSt11char_traitsIcESaIcEEESt4pairIKS5_S5_ESt10_Select1stIS8_ESt4lessIS5_ESaIS8_EE14_M_lower_boundEPSt13_Rb_tree_nodeIS8_EPSt18_Rb_tree_node_baseRS7_
FN:1935,_ZNSt8_Rb_treeINSt7__cxx1112basic_stringIcSt11char_traitsIcESaIcEEESt4pairIKS5_St6vectorISt10shared_ptrI17RegistryEntryBaseESaISB_EEESt10_Select1stISE_ESt4lessIS5_ESaISE_EE14_M_lower_boundEPSt13_Rb_tree_nodeISE_EPSt18_Rb_tree_node_baseRS7_
FNDA:0,_ZNSt8_Rb_treeINSt7__cxx1112basic_stringIcSt11char_traitsIcESaIcEEESt4pairIKS5_St6vectorISt10shared_ptrI17RegistryEntryBaseESaISB_EEESt10_Select1stISE_ESt4lessIS5_ESaISE_EE14_M_lower_boundEPSt13_Rb_tree_nodeISE_EPSt18_Rb_tree_node_baseRS7_
FN:1935,_ZNSt8_Rb_treeIN5Moose7FaceArgESt4pairIKS1_dESt10_Select1stIS4_ESt4lessIS1_ESaIS4_EE14_M_lower_boundEPSt13_Rb_tree_nodeIS4_EPSt18_Rb_tree_node_baseRS3_
FNDA:0,_ZNSt8_Rb_treeIN5Moose7FaceArgESt4pairIKS1_dESt10_Select1stIS4_ESt4lessIS1_ESaIS4_EE14_M_lower_boundEPSt13_Rb_tree_nodeIS4_EPSt18_Rb_tree_node_baseRS3_
FN:1935,_ZNSt8_Rb_treeIN5Moose7ElemArgESt4pairIKS1_dESt10_Select1stIS4_ESt4lessIS1_ESaIS4_EE14_M_lower_boundEPSt13_Rb_tree_nodeIS4_EPSt18_Rb_tree_node_baseRS3_
FNDA:0,_ZNSt8_Rb_treeIN5Moose7ElemArgESt4pairIKS1_dESt10_Select1stIS4_ESt4lessIS1_ESaIS4_EE14_M_lower_boundEPSt13_Rb_tree_nodeIS4_EPSt18_Rb_tree_node_baseRS3_
FN:1935,_ZNSt8_Rb_treeIN5Moose7FaceArgESt4pairIKS1_N11MetaPhysicL10DualNumberIdNS4_28SemiDynamicSparseNumberArrayIdmNS4_8NWrapperILm64EEEEELb1EEEESt10_Select1stISB_ESt4lessIS1_ESaISB_EE14_M_lower_boundEPSt13_Rb_tree_nodeISB_EPSt18_Rb_tree_node_baseRS3_
FNDA:0,_ZNSt8_Rb_treeIN5Moose7FaceArgESt4pairIKS1_N11MetaPhysicL10DualNumberIdNS4_28SemiDynamicSparseNumberArrayIdmNS4_8NWrapperILm64EEEEELb1EEEESt10_Select1stISB_ESt4lessIS1_ESaISB_EE14_M_lower_boundEPSt13_Rb_tree_nodeISB_EPSt18_Rb_tree_node_baseRS3_
FN:1935,_ZNSt8_Rb_treeIN5Moose7ElemArgESt4pairIKS1_N11MetaPhysicL10DualNumberIdNS4_28SemiDynamicSparseNumberArrayIdmNS4_8NWrapperILm64EEEEELb1EEEESt10_Select1stISB_ESt4lessIS1_ESaISB_EE14_M_lower_boundEPSt13_Rb_tree_nodeISB_EPSt18_Rb_tree_node_baseRS3_
FNDA:0,_ZNSt8_Rb_treeIN5Moose7ElemArgESt4pairIKS1_N11MetaPhysicL10DualNumberIdNS4_28SemiDynamicSparseNumberArrayIdmNS4_8NWrapperILm64EEEEELb1EEEESt10_Select1stISB_ESt4lessIS1_ESaISB_EE14_M_lower_boundEPSt13_Rb_tree_nodeISB_EPSt18_Rb_tree_node_baseRS3_
FN:1951,_ZNKSt8_Rb_treeINSt7__cxx1112basic_stringIcSt11char_traitsIcESaIcEEESt4pairIKS5_N15InputParameters8MetadataEESt10_Select1stISA_ESt4lessIS5_ESaISA_EE14_M_lower_boundEPKSt13_Rb_tree_nodeISA_EPKSt18_Rb_tree_node_baseRS7_
FNDA:0,_ZNKSt8_Rb_treeINSt7__cxx1112basic_stringIcSt11char_traitsIcESaIcEEESt4pairIKS5_N15InputParameters8MetadataEESt10_Select1stISA_ESt4lessIS5_ESaISA_EE14_M_lower_boundEPKSt13_Rb_tree_nodeISA_EPKSt18_Rb_tree_node_baseRS7_
FN:1951,_ZNKSt8_Rb_treeI13MooseEnumItemS0_St9_IdentityIS0_ESt4lessIS0_ESaIS0_EE14_M_lower_boundEPKSt13_Rb_tree_nodeIS0_EPKSt18_Rb_tree_node_baseRKS0_
FNDA:0,_ZNKSt8_Rb_treeI13MooseEnumItemS0_St9_IdentityIS0_ESt4lessIS0_ESaIS0_EE14_M_lower_boundEPKSt13_Rb_tree_nodeIS0_EPKSt18_Rb_tree_node_baseRKS0_
FN:2096,_ZNSt8_Rb_treeIN5Moose7ElemArgESt4pairIKS1_dESt10_Select1stIS4_ESt4lessIS1_ESaIS4_EE24_M_get_insert_unique_posERS3_
FNDA:0,_ZNSt8_Rb_treeIN5Moose7ElemArgESt4pairIKS1_dESt10_Select1stIS4_ESt4lessIS1_ESaIS4_EE24_M_get_insert_unique_posERS3_
FN:2096,_ZNSt8_Rb_treeIN5Moose7FaceArgESt4pairIKS1_N11MetaPhysicL10DualNumberIdNS4_28SemiDynamicSparseNumberArrayIdmNS4_8NWrapperILm64EEEEELb1EEEESt10_Select1stISB_ESt4lessIS1_ESaISB_EE24_M_get_insert_unique_posERS3_
FNDA:0,_ZNSt8_Rb_treeIN5Moose7FaceArgESt4pairIKS1_N11MetaPhysicL10DualNumberIdNS4_28SemiDynamicSparseNumberArrayIdmNS4_8NWrapperILm64EEEEELb1EEEESt10_Select1stISB_ESt4lessIS1_ESaISB_EE24_M_get_insert_unique_posERS3_
FN:2096,_ZNSt8_Rb_treeIN5Moose7ElemArgESt4pairIKS1_N11MetaPhysicL10DualNumberIdNS4_28SemiDynamicSparseNumberArrayIdmNS4_8NWrapperILm64EEEEELb1EEEESt10_Select1stISB_ESt4lessIS1_ESaISB_EE24_M_get_insert_unique_posERS3_
FNDA:0,_ZNSt8_Rb_treeIN5Moose7ElemArgESt4pairIKS1_N11MetaPhysicL10DualNumberIdNS4_28SemiDynamicSparseNumberArrayIdmNS4_8NWrapperILm64EEEEELb1EEEESt10_Select1stISB_ESt4lessIS1_ESaISB_EE24_M_get_insert_unique_posERS3_
FN:2096,_ZNSt8_Rb_treeIjjSt9_IdentityIjESt4lessIjESaIjEE24_M_get_insert_unique_posERKj
FNDA:0,_ZNSt8_Rb_treeIjjSt9_IdentityIjESt4lessIjESaIjEE24_M_get_insert_unique_posERKj
FN:2096,_ZNSt8_Rb_treeINSt7__cxx1112basic_stringIcSt11char_traitsIcESaIcEEESt4pairIKS5_St6vectorISt10shared_ptrI17RegistryEntryBaseESaISB_EEESt10_Select1stISE_ESt4lessIS5_ESaISE_EE24_M_get_insert_unique_posERS7_
FNDA:0,_ZNSt8_Rb_treeINSt7__cxx1112basic_stringIcSt11char_traitsIcESaIcEEESt4pairIKS5_St6vectorISt10shared_ptrI17RegistryEntryBaseESaISB_EEESt10_Select1stISE_ESt4lessIS5_ESaISE_EE24_M_get_insert_unique_posERS7_
FN:2096,_ZNSt8_Rb_treeINSt7__cxx1112basic_stringIcSt11char_traitsIcESaIcEEESt4pairIKS5_St10unique_ptrIN7libMesh10Parameters5ValueESt14default_deleteISB_EEESt10_Select1stISF_ESt4lessIvESaISF_EE24_M_get_insert_unique_posERS7_
FNDA:0,_ZNSt8_Rb_treeINSt7__cxx1112basic_stringIcSt11char_traitsIcESaIcEEESt4pairIKS5_St10unique_ptrIN7libMesh10Parameters5ValueESt14default_deleteISB_EEESt10_Select1stISF_ESt4lessIvESaISF_EE24_M_get_insert_unique_posERS7_
FN:2096,_ZNSt8_Rb_treeINSt7__cxx1112basic_stringIcSt11char_traitsIcESaIcEEESt4pairIKS5_S5_ESt10_Select1stIS8_ESt4lessIS5_ESaIS8_EE24_M_get_insert_unique_posERS7_
FNDA:0,_ZNSt8_Rb_treeINSt7__cxx1112basic_stringIcSt11char_traitsIcESaIcEEESt4pairIKS5_S5_ESt10_Select1stIS8_ESt4lessIS5_ESaIS8_EE24_M_get_insert_unique_posERS7_
FN:2096,_ZNSt8_Rb_treeIN5Moose7FaceArgESt4pairIKS1_dESt10_Select1stIS4_ESt4lessIS1_ESaIS4_EE24_M_get_insert_unique_posERS3_
FNDA:0,_ZNSt8_Rb_treeIN5Moose7FaceArgESt4pairIKS1_dESt10_Select1stIS4_ESt4lessIS1_ESaIS4_EE24_M_get_insert_unique_posERS3_
FN:2150,_ZNSt8_Rb_treeIjjSt9_IdentityIjESt4lessIjESaIjEE16_M_insert_uniqueIjEESt4pairISt17_Rb_tree_iteratorIjEbEOT_
FNDA:0,_ZNSt8_Rb_treeIjjSt9_IdentityIjESt4lessIjESaIjEE16_M_insert_uniqueIjEESt4pairISt17_Rb_tree_iteratorIjEbEOT_
FN:2198,_ZNSt8_Rb_treeINSt7__cxx1112basic_stringIcSt11char_traitsIcESaIcEEESt4pairIKS5_S5_ESt10_Select1stIS8_ESt4lessIS5_ESaIS8_EE29_M_get_insert_hint_unique_posESt23_Rb_tree_const_iteratorIS8_ERS7_
FNDA:0,_ZNSt8_Rb_treeINSt7__cxx1112basic_stringIcSt11char_traitsIcESaIcEEESt4pairIKS5_S5_ESt10_Select1stIS8_ESt4lessIS5_ESaIS8_EE29_M_get_insert_hint_unique_posESt23_Rb_tree_const_iteratorIS8_ERS7_
FN:2198,_ZNSt8_Rb_treeIN5Moose7FaceArgESt4pairIKS1_dESt10_Select1stIS4_ESt4lessIS1_ESaIS4_EE29_M_get_insert_hint_unique_posESt23_Rb_tree_const_iteratorIS4_ERS3_
FNDA:0,_ZNSt8_Rb_treeIN5Moose7FaceArgESt4pairIKS1_dESt10_Select1stIS4_ESt4lessIS1_ESaIS4_EE29_M_get_insert_hint_unique_posESt23_Rb_tree_const_iteratorIS4_ERS3_
FN:2198,_ZNSt8_Rb_treeIN5Moose7ElemArgESt4pairIKS1_N11MetaPhysicL10DualNumberIdNS4_28SemiDynamicSparseNumberArrayIdmNS4_8NWrapperILm64EEEEELb1EEEESt10_Select1stISB_ESt4lessIS1_ESaISB_EE29_M_get_insert_hint_unique_posESt23_Rb_tree_const_iteratorISB_ERS3_
FNDA:0,_ZNSt8_Rb_treeIN5Moose7ElemArgESt4pairIKS1_N11MetaPhysicL10DualNumberIdNS4_28SemiDynamicSparseNumberArrayIdmNS4_8NWrapperILm64EEEEELb1EEEESt10_Select1stISB_ESt4lessIS1_ESaISB_EE29_M_get_insert_hint_unique_posESt23_Rb_tree_const_iteratorISB_ERS3_
FN:2198,_ZNSt8_Rb_treeIN5Moose7ElemArgESt4pairIKS1_dESt10_Select1stIS4_ESt4lessIS1_ESaIS4_EE29_M_get_insert_hint_unique_posESt23_Rb_tree_const_iteratorIS4_ERS3_
FNDA:0,_ZNSt8_Rb_treeIN5Moose7ElemArgESt4pairIKS1_dESt10_Select1stIS4_ESt4lessIS1_ESaIS4_EE29_M_get_insert_hint_unique_posESt23_Rb_tree_const_iteratorIS4_ERS3_
FN:2198,_ZNSt8_Rb_treeINSt7__cxx1112basic_stringIcSt11char_traitsIcESaIcEEESt4pairIKS5_St6vectorISt10shared_ptrI17RegistryEntryBaseESaISB_EEESt10_Select1stISE_ESt4lessIS5_ESaISE_EE29_M_get_insert_hint_unique_posESt23_Rb_tree_const_iteratorISE_ERS7_
FNDA:0,_ZNSt8_Rb_treeINSt7__cxx1112basic_stringIcSt11char_traitsIcESaIcEEESt4pairIKS5_St6vectorISt10shared_ptrI17RegistryEntryBaseESaISB_EEESt10_Select1stISE_ESt4lessIS5_ESaISE_EE29_M_get_insert_hint_unique_posESt23_Rb_tree_const_iteratorISE_ERS7_
FN:2198,_ZNSt8_Rb_treeINSt7__cxx1112basic_stringIcSt11char_traitsIcESaIcEEESt4pairIKS5_St10unique_ptrIN7libMesh10Parameters5ValueESt14default_deleteISB_EEESt10_Select1stISF_ESt4lessIvESaISF_EE29_M_get_insert_hint_unique_posESt23_Rb_tree_const_iteratorISF_ERS7_
FNDA:0,_ZNSt8_Rb_treeINSt7__cxx1112basic_stringIcSt11char_traitsIcESaIcEEESt4pairIKS5_St10unique_ptrIN7libMesh10Parameters5ValueESt14default_deleteISB_EEESt10_Select1stISF_ESt4lessIvESaISF_EE29_M_get_insert_hint_unique_posESt23_Rb_tree_const_iteratorISF_ERS7_
FN:2198,_ZNSt8_Rb_treeIN5Moose7FaceArgESt4pairIKS1_N11MetaPhysicL10DualNumberIdNS4_28SemiDynamicSparseNumberArrayIdmNS4_8NWrapperILm64EEEEELb1EEEESt10_Select1stISB_ESt4lessIS1_ESaISB_EE29_M_get_insert_hint_unique_posESt23_Rb_tree_const_iteratorISB_ERS3_
FNDA:0,_ZNSt8_Rb_treeIN5Moose7FaceArgESt4pairIKS1_N11MetaPhysicL10DualNumberIdNS4_28SemiDynamicSparseNumberArrayIdmNS4_8NWrapperILm64EEEEELb1EEEESt10_Select1stISB_ESt4lessIS1_ESaISB_EE29_M_get_insert_hint_unique_posESt23_Rb_tree_const_iteratorISB_ERS3_
FN:2365,_ZNSt8_Rb_treeINSt7__cxx1112basic_stringIcSt11char_traitsIcESaIcEEESt4pairIKS5_S5_ESt10_Select1stIS8_ESt4lessIS5_ESaIS8_EE14_M_insert_nodeEPSt18_Rb_tree_node_baseSG_PSt13_Rb_tree_nodeIS8_E
FNDA:0,_ZNSt8_Rb_treeINSt7__cxx1112basic_stringIcSt11char_traitsIcESaIcEEESt4pairIKS5_S5_ESt10_Select1stIS8_ESt4lessIS5_ESaIS8_EE14_M_insert_nodeEPSt18_Rb_tree_node_baseSG_PSt13_Rb_tree_nodeIS8_E
FN:2365,_ZNSt8_Rb_treeIN5Moose7FaceArgESt4pairIKS1_dESt10_Select1stIS4_ESt4lessIS1_ESaIS4_EE14_M_insert_nodeEPSt18_Rb_tree_node_baseSC_PSt13_Rb_tree_nodeIS4_E
FNDA:0,_ZNSt8_Rb_treeIN5Moose7FaceArgESt4pairIKS1_dESt10_Select1stIS4_ESt4lessIS1_ESaIS4_EE14_M_insert_nodeEPSt18_Rb_tree_node_baseSC_PSt13_Rb_tree_nodeIS4_E
FN:2365,_ZNSt8_Rb_treeINSt7__cxx1112basic_stringIcSt11char_traitsIcESaIcEEESt4pairIKS5_St6vectorISt10shared_ptrI17RegistryEntryBaseESaISB_EEESt10_Select1stISE_ESt4lessIS5_ESaISE_EE14_M_insert_nodeEPSt18_Rb_tree_node_baseSM_PSt13_Rb_tree_nodeISE_E
FNDA:0,_ZNSt8_Rb_treeINSt7__cxx1112basic_stringIcSt11char_traitsIcESaIcEEESt4pairIKS5_St6vectorISt10shared_ptrI17RegistryEntryBaseESaISB_EEESt10_Select1stISE_ESt4lessIS5_ESaISE_EE14_M_insert_nodeEPSt18_Rb_tree_node_baseSM_PSt13_Rb_tree_nodeISE_E
FN:2365,_ZNSt8_Rb_treeIN5Moose7ElemArgESt4pairIKS1_dESt10_Select1stIS4_ESt4lessIS1_ESaIS4_EE14_M_insert_nodeEPSt18_Rb_tree_node_baseSC_PSt13_Rb_tree_nodeIS4_E
FNDA:0,_ZNSt8_Rb_treeIN5Moose7ElemArgESt4pairIKS1_dESt10_Select1stIS4_ESt4lessIS1_ESaIS4_EE14_M_insert_nodeEPSt18_Rb_tree_node_baseSC_PSt13_Rb_tree_nodeIS4_E
FN:2365,_ZNSt8_Rb_treeIN5Moose7FaceArgESt4pairIKS1_N11MetaPhysicL10DualNumberIdNS4_28SemiDynamicSparseNumberArrayIdmNS4_8NWrapperILm64EEEEELb1EEEESt10_Select1stISB_ESt4lessIS1_ESaISB_EE14_M_insert_nodeEPSt18_Rb_tree_node_baseSJ_PSt13_Rb_tree_nodeISB_E
FNDA:0,_ZNSt8_Rb_treeIN5Moose7FaceArgESt4pairIKS1_N11MetaPhysicL10DualNumberIdNS4_28SemiDynamicSparseNumberArrayIdmNS4_8NWrapperILm64EEEEELb1EEEESt10_Select1stISB_ESt4lessIS1_ESaISB_EE14_M_insert_nodeEPSt18_Rb_tree_node_baseSJ_PSt13_Rb_tree_nodeISB_E
FN:2365,_ZNSt8_Rb_treeINSt7__cxx1112basic_stringIcSt11char_traitsIcESaIcEEESt4pairIKS5_St10unique_ptrIN7libMesh10Parameters5ValueESt14default_deleteISB_EEESt10_Select1stISF_ESt4lessIvESaISF_EE14_M_insert_nodeEPSt18_Rb_tree_node_baseSN_PSt13_Rb_tree_nodeISF_E
FNDA:0,_ZNSt8_Rb_treeINSt7__cxx1112basic_stringIcSt11char_traitsIcESaIcEEESt4pairIKS5_St10unique_ptrIN7libMesh10Parameters5ValueESt14default_deleteISB_EEESt10_Select1stISF_ESt4lessIvESaISF_EE14_M_insert_nodeEPSt18_Rb_tree_node_baseSN_PSt13_Rb_tree_nodeISF_E
FN:2365,_ZNSt8_Rb_treeIN5Moose7ElemArgESt4pairIKS1_N11MetaPhysicL10DualNumberIdNS4_28SemiDynamicSparseNumberArrayIdmNS4_8NWrapperILm64EEEEELb1EEEESt10_Select1stISB_ESt4lessIS1_ESaISB_EE14_M_insert_nodeEPSt18_Rb_tree_node_baseSJ_PSt13_Rb_tree_nodeISB_E
FNDA:0,_ZNSt8_Rb_treeIN5Moose7ElemArgESt4pairIKS1_N11MetaPhysicL10DualNumberIdNS4_28SemiDynamicSparseNumberArrayIdmNS4_8NWrapperILm64EEEEELb1EEEESt10_Select1stISB_ESt4lessIS1_ESaISB_EE14_M_insert_nodeEPSt18_Rb_tree_node_baseSJ_PSt13_Rb_tree_nodeISB_E
FN:2463,_ZNSt8_Rb_treeIN5Moose7FaceArgESt4pairIKS1_dESt10_Select1stIS4_ESt4lessIS1_ESaIS4_EE22_M_emplace_hint_uniqueIJRKSt21piecewise_construct_tSt5tupleIJRS3_EESF_IJOdEEEEESt17_Rb_tree_iteratorIS4_ESt23_Rb_tree_const_iteratorIS4_EDpOT_
FNDA:0,_ZNSt8_Rb_treeIN5Moose7FaceArgESt4pairIKS1_dESt10_Select1stIS4_ESt4lessIS1_ESaIS4_EE22_M_emplace_hint_uniqueIJRKSt21piecewise_construct_tSt5tupleIJRS3_EESF_IJOdEEEEESt17_Rb_tree_iteratorIS4_ESt23_Rb_tree_const_iteratorIS4_EDpOT_
FN:2463,_ZNSt8_Rb_treeIN5Moose7ElemArgESt4pairIKS1_dESt10_Select1stIS4_ESt4lessIS1_ESaIS4_EE22_M_emplace_hint_uniqueIJRKSt21piecewise_construct_tSt5tupleIJRS3_EESF_IJOdEEEEESt17_Rb_tree_iteratorIS4_ESt23_Rb_tree_const_iteratorIS4_EDpOT_
FNDA:0,_ZNSt8_Rb_treeIN5Moose7ElemArgESt4pairIKS1_dESt10_Select1stIS4_ESt4lessIS1_ESaIS4_EE22_M_emplace_hint_uniqueIJRKSt21piecewise_construct_tSt5tupleIJRS3_EESF_IJOdEEEEESt17_Rb_tree_iteratorIS4_ESt23_Rb_tree_const_iteratorIS4_EDpOT_
FN:2463,_ZNSt8_Rb_treeIN5Moose7FaceArgESt4pairIKS1_N11MetaPhysicL10DualNumberIdNS4_28SemiDynamicSparseNumberArrayIdmNS4_8NWrapperILm64EEEEELb1EEEESt10_Select1stISB_ESt4lessIS1_ESaISB_EE22_M_emplace_hint_uniqueIJRKSt21piecewise_construct_tSt5tupleIJRS3_EESM_IJOSA_EEEEESt17_Rb_tree_iteratorISB_ESt23_Rb_tree_const_iteratorISB_EDpOT_
FNDA:0,_ZNSt8_Rb_treeIN5Moose7FaceArgESt4pairIKS1_N11MetaPhysicL10DualNumberIdNS4_28SemiDynamicSparseNumberArrayIdmNS4_8NWrapperILm64EEEEELb1EEEESt10_Select1stISB_ESt4lessIS1_ESaISB_EE22_M_emplace_hint_uniqueIJRKSt21piecewise_construct_tSt5tupleIJRS3_EESM_IJOSA_EEEEESt17_Rb_tree_iteratorISB_ESt23_Rb_tree_const_iteratorISB_EDpOT_
FN:2463,_ZNSt8_Rb_treeIN5Moose7ElemArgESt4pairIKS1_N11MetaPhysicL10DualNumberIdNS4_28SemiDynamicSparseNumberArrayIdmNS4_8NWrapperILm64EEEEELb1EEEESt10_Select1stISB_ESt4lessIS1_ESaISB_EE22_M_emplace_hint_uniqueIJRKSt21piecewise_construct_tSt5tupleIJRS3_EESM_IJOSA_EEEEESt17_Rb_tree_iteratorISB_ESt23_Rb_tree_const_iteratorISB_EDpOT_
FNDA:0,_ZNSt8_Rb_treeIN5Moose7ElemArgESt4pairIKS1_N11MetaPhysicL10DualNumberIdNS4_28SemiDynamicSparseNumberArrayIdmNS4_8NWrapperILm64EEEEELb1EEEESt10_Select1stISB_ESt4lessIS1_ESaISB_EE22_M_emplace_hint_uniqueIJRKSt21piecewise_construct_tSt5tupleIJRS3_EESM_IJOSA_EEEEESt17_Rb_tree_iteratorISB_ESt23_Rb_tree_const_iteratorISB_EDpOT_
FN:2463,_ZNSt8_Rb_treeINSt7__cxx1112basic_stringIcSt11char_traitsIcESaIcEEESt4pairIKS5_St6vectorISt10shared_ptrI17RegistryEntryBaseESaISB_EEESt10_Select1stISE_ESt4lessIS5_ESaISE_EE22_M_emplace_hint_uniqueIJRKSt21piecewise_construct_tSt5tupleIJRS7_EESP_IJEEEEESt17_Rb_tree_iteratorISE_ESt23_Rb_tree_const_iteratorISE_EDpOT_
FNDA:0,_ZNSt8_Rb_treeINSt7__cxx1112basic_stringIcSt11char_traitsIcESaIcEEESt4pairIKS5_St6vectorISt10shared_ptrI17RegistryEntryBaseESaISB_EEESt10_Select1stISE_ESt4lessIS5_ESaISE_EE22_M_emplace_hint_uniqueIJRKSt21piecewise_construct_tSt5tupleIJRS7_EESP_IJEEEEESt17_Rb_tree_iteratorISE_ESt23_Rb_tree_const_iteratorISE_EDpOT_
FN:2463,_ZNSt8_Rb_treeINSt7__cxx1112basic_stringIcSt11char_traitsIcESaIcEEESt4pairIKS5_S5_ESt10_Select1stIS8_ESt4lessIS5_ESaIS8_EE22_M_emplace_hint_uniqueIJRKSt21piecewise_construct_tSt5tupleIJOS5_EESJ_IJEEEEESt17_Rb_tree_iteratorIS8_ESt23_Rb_tree_const_iteratorIS8_EDpOT_
FNDA:0,_ZNSt8_Rb_treeINSt7__cxx1112basic_stringIcSt11char_traitsIcESaIcEEESt4pairIKS5_S5_ESt10_Select1stIS8_ESt4lessIS5_ESaIS8_EE22_M_emplace_hint_uniqueIJRKSt21piecewise_construct_tSt5tupleIJOS5_EESJ_IJEEEEESt17_Rb_tree_iteratorIS8_ESt23_Rb_tree_const_iteratorIS8_EDpOT_
FN:2463,_ZNSt8_Rb_treeINSt7__cxx1112basic_stringIcSt11char_traitsIcESaIcEEESt4pairIKS5_St10unique_ptrIN7libMesh10Parameters5ValueESt14default_deleteISB_EEESt10_Select1stISF_ESt4lessIvESaISF_EE22_M_emplace_hint_uniqueIJRKSt21piecewise_construct_tSt5tupleIJRS7_EESQ_IJEEEEESt17_Rb_tree_iteratorISF_ESt23_Rb_tree_const_iteratorISF_EDpOT_
FNDA:0,_ZNSt8_Rb_treeINSt7__cxx1112basic_stringIcSt11char_traitsIcESaIcEEESt4pairIKS5_St10unique_ptrIN7libMesh10Parameters5ValueESt14default_deleteISB_EEESt10_Select1stISF_ESt4lessIvESaISF_EE22_M_emplace_hint_uniqueIJRKSt21piecewise_construct_tSt5tupleIJRS7_EESQ_IJEEEEESt17_Rb_tree_iteratorISF_ESt23_Rb_tree_const_iteratorISF_EDpOT_
FN:2568,_ZNKSt8_Rb_treeINSt7__cxx1112basic_stringIcSt11char_traitsIcESaIcEEESt4pairIKS5_N15InputParameters8MetadataEESt10_Select1stISA_ESt4lessIS5_ESaISA_EE4findERS7_
FNDA:0,_ZNKSt8_Rb_treeINSt7__cxx1112basic_stringIcSt11char_traitsIcESaIcEEESt4pairIKS5_N15InputParameters8MetadataEESt10_Select1stISA_ESt4lessIS5_ESaISA_EE4findERS7_
FN:2568,_ZNKSt8_Rb_treeI13MooseEnumItemS0_St9_IdentityIS0_ESt4lessIS0_ESaIS0_EE4findERKS0_
FNDA:0,_ZNKSt8_Rb_treeI13MooseEnumItemS0_St9_IdentityIS0_ESt4lessIS0_ESaIS0_EE4findERKS0_
FNF:84
FNH:4
DA:208,0
DA:209,0
DA:210,0
DA:211,0
DA:282,0
DA:287,0
DA:302,0
DA:303,0
DA:350,0
DA:351,0
DA:355,0
DA:368,0
DA:369,0
DA:397,0
DA:542,0
DA:543,0
DA:571,0
DA:613,0
DA:622,0
DA:624,0
DA:626,0
DA:628,0
DA:613,0
DA:622,0
DA:624,0
DA:626,0
DA:628,0
DA:632,0
DA:636,0
DA:632,0
DA:636,0
DA:632,0
DA:636,0
DA:632,0
DA:636,0
DA:632,0
DA:635,0
DA:636,0
DA:632,0
DA:635,0
DA:636,0
DA:647,28
DA:652,0
DA:656,0
DA:652,0
DA:656,0
DA:652,0
DA:656,0
DA:652,0
DA:656,0
DA:652,0
DA:656,0
DA:652,0
DA:656,0
DA:751,0
DA:757,0
DA:762,0
DA:766,0
DA:792,56
DA:796,0
DA:800,0
DA:804,0
DA:993,0
DA:1005,0
DA:1009,0
DA:1013,0
DA:1017,0
DA:1041,0
DA:1261,0
DA:1263,0
DA:1265,0
DA:1261,0
DA:1263,0
DA:1265,0
DA:1261,0
DA:1263,0
DA:1265,0
DA:1261,0
DA:1263,0
DA:1265,0
DA:1261,0
DA:1263,0
DA:1265,0
DA:1261,0
DA:1263,0
DA:1265,0
DA:1261,0
DA:1263,0
DA:1265,0
DA:1279,0
DA:1283,0
DA:1808,0
DA:1817,0
DA:1818,0
DA:1823,0
DA:1824,0
DA:1825,0
DA:1826,0
DA:1918,0
DA:1922,0
DA:1924,0
DA:1926,0
DA:1929,0
DA:1918,0
DA:1922,0
DA:1924,0
DA:1926,0
DA:1929,0
DA:1918,0
DA:1922,0
DA:1924,0
DA:1929,0
DA:1918,0
DA:1922,0
DA:1924,0
DA:1929,0
DA:1918,76
DA:1922,104
DA:1924,28
DA:1929,76
DA:1918,0
DA:1922,0
DA:1924,0
DA:1926,0
DA:1929,0
DA:1918,0
DA:1922,0
DA:1924,0
DA:1929,0
DA:1918,0
DA:1922,0
DA:1924,0
DA:1929,0
DA:1918,52
DA:1922,80
DA:1924,28
DA:1929,52
DA:1918,24
DA:1922,24
DA:1924,0
DA:1926,0
DA:1929,24
DA:1918,24
DA:1922,24
DA:1924,0
DA:1929,24
DA:1918,0
DA:1922,0
DA:1924,0
DA:1926,0
DA:1929,0
DA:1918,0
DA:1922,0
DA:1924,0
DA:1929,0
DA:1918,0
DA:1922,0
DA:1924,0
DA:1929,0
DA:1918,0
DA:1922,0
DA:1924,0
DA:1929,0
DA:1918,0
DA:1922,0
DA:1924,0
DA:1929,0
DA:1918,0
DA:1922,0
DA:1924,0
DA:1929,0
DA:1918,0
DA:1922,0
DA:1924,0
DA:1929,0
DA:1918,0
DA:1922,0
DA:1924,0
DA:1929,0
DA:1918,0
DA:1922,0
DA:1924,0
DA:1929,0
DA:1918,0
DA:1922,0
DA:1924,0
DA:1929,0
DA:1935,0
DA:1939,0
DA:1940,0
DA:1944,0
DA:1935,0
DA:1939,0
DA:1944,0
DA:1935,0
DA:1939,0
DA:1940,0
DA:1944,0
DA:1935,0
DA:1939,0
DA:1944,0
DA:1935,0
DA:1939,0
DA:1940,0
DA:1944,0
DA:1935,0
DA:1939,0
DA:1940,0
DA:1944,0
DA:1935,0
DA:1939,0
DA:1940,0
DA:1944,0
DA:1951,0
DA:1955,0
DA:1956,0
DA:1960,0
DA:1951,0
DA:1955,0
DA:1956,0
DA:1960,0
DA:2096,0
DA:2103,0
DA:2107,0
DA:2110,0
DA:2112,0
DA:2113,0
DA:2117,0
DA:2118,0
DA:2119,0
DA:2096,0
DA:2103,0
DA:2110,0
DA:2112,0
DA:2113,0
DA:2118,0
DA:2119,0
DA:2096,0
DA:2103,0
DA:2107,0
DA:2110,0
DA:2112,0
DA:2113,0
DA:2117,0
DA:2118,0
DA:2119,0
DA:2096,0
DA:2103,0
DA:2110,0
DA:2112,0
DA:2113,0
DA:2118,0
DA:2119,0
DA:2096,0
DA:2103,0
DA:2107,0
DA:2110,0
DA:2112,0
DA:2113,0
DA:2117,0
DA:2118,0
DA:2119,0
DA:2096,0
DA:2103,0
DA:2107,0
DA:2110,0
DA:2112,0
DA:2113,0
DA:2117,0
DA:2118,0
DA:2119,0
DA:2096,0
DA:2103,0
DA:2107,0
DA:2110,0
DA:2112,0
DA:2113,0
DA:2117,0
DA:2118,0
DA:2119,0
DA:2096,0
DA:2103,0
DA:2107,0
DA:2110,0
DA:2112,0
DA:2113,0
DA:2117,0
DA:2118,0
DA:2119,0
DA:2150,0
DA:2159,0
DA:2161,0
DA:2164,0
DA:2166,0
DA:2169,0
DA:2198,0
DA:2206,0
DA:2209,0
DA:2210,0
DA:2212,0
DA:2214,0
DA:2218,0
DA:2219,0
DA:2220,0
DA:2222,0
DA:2223,0
DA:2225,0
DA:2228,0
DA:2230,0
DA:2234,0
DA:2235,0
DA:2236,0
DA:2238,0
DA:2239,0
DA:2241,0
DA:2244,0
DA:2248,0
DA:2198,0
DA:2206,0
DA:2209,0
DA:2210,0
DA:2212,0
DA:2218,0
DA:2219,0
DA:2222,0
DA:2223,0
DA:2225,0
DA:2228,0
DA:2234,0
DA:2235,0
DA:2238,0
DA:2239,0
DA:2241,0
DA:2244,0
DA:2248,0
DA:2198,0
DA:2206,0
DA:2209,0
DA:2210,0
DA:2212,0
DA:2214,0
DA:2218,0
DA:2219,0
DA:2220,0
DA:2222,0
DA:2223,0
DA:2225,0
DA:2228,0
DA:2230,0
DA:2234,0
DA:2235,0
DA:2236,0
DA:2238,0
DA:2239,0
DA:2241,0
DA:2244,0
DA:2248,0
DA:2198,0
DA:2206,0
DA:2209,0
DA:2210,0
DA:2212,0
DA:2218,0
DA:2219,0
DA:2222,0
DA:2223,0
DA:2225,0
DA:2228,0
DA:2234,0
DA:2235,0
DA:2238,0
DA:2239,0
DA:2241,0
DA:2244,0
DA:2248,0
DA:2198,0
DA:2206,0
DA:2209,0
DA:2210,0
DA:2212,0
DA:2214,0
DA:2218,0
DA:2219,0
DA:2220,0
DA:2222,0
DA:2223,0
DA:2225,0
DA:2228,0
DA:2230,0
DA:2234,0
DA:2235,0
DA:2236,0
DA:2238,0
DA:2239,0
DA:2241,0
DA:2244,0
DA:2248,0
DA:2198,0
DA:2206,0
DA:2209,0
DA:2210,0
DA:2212,0
DA:2214,0
DA:2218,0
DA:2219,0
DA:2220,0
DA:2222,0
DA:2223,0
DA:2225,0
DA:2228,0
DA:2230,0
DA:2234,0
DA:2235,0
DA:2236,0
DA:2238,0
DA:2239,0
DA:2241,0
DA:2244,0
DA:2248,0
DA:2198,0
DA:2206,0
DA:2209,0
DA:2210,0
DA:2212,0
DA:2214,0
DA:2218,0
DA:2219,0
DA:2220,0
DA:2222,0
DA:2223,0
DA:2225,0
DA:2228,0
DA:2230,0
DA:2234,0
DA:2235,0
DA:2236,0
DA:2238,0
DA:2239,0
DA:2241,0
DA:2244,0
DA:2248,0
DA:2365,0
DA:2368,0
DA:2369,0
DA:2372,0
DA:2373,0
DA:2374,0
DA:2375,0
DA:2365,0
DA:2368,0
DA:2369,0
DA:2372,0
DA:2373,0
DA:2374,0
DA:2375,0
DA:2365,0
DA:2368,0
DA:2369,0
DA:2372,0
DA:2373,0
DA:2374,0
DA:2375,0
DA:2365,0
DA:2368,0
DA:2369,0
DA:2372,0
DA:2373,0
DA:2374,0
DA:2375,0
DA:2365,0
DA:2368,0
DA:2369,0
DA:2372,0
DA:2373,0
DA:2374,0
DA:2375,0
DA:2365,0
DA:2368,0
DA:2369,0
DA:2372,0
DA:2373,0
DA:2374,0
DA:2375,0
DA:2365,0
DA:2368,0
DA:2369,0
DA:2372,0
DA:2373,0
DA:2374,0
DA:2375,0
DA:2463,0
DA:2466,0
DA:2470,0
DA:2472,0
DA:2473,0
DA:2476,0
DA:2463,0
DA:2470,0
DA:2472,0
DA:2473,0
DA:2476,0
DA:2463,0
DA:2466,0
DA:2470,0
DA:2472,0
DA:2473,0
DA:2476,0
DA:2463,0
DA:2466,0
DA:2470,0
DA:2472,0
DA:2473,0
DA:2476,0
DA:2463,0
DA:2466,0
DA:2470,0
DA:2472,0
DA:2473,0
DA:2475,0
DA:2476,0
DA:2463,0
DA:2466,0
DA:2470,0
DA:2472,0
DA:2473,0
DA:2475,0
DA:2476,0
DA:2463,0
DA:2466,0
DA:2470,0
DA:2472,0
DA:2473,0
DA:2475,0
DA:2476,0
DA:2568,0
DA:2571,0
DA:2573,0
DA:2574,0
DA:2568,0
DA:2571,0
DA:2573,0
DA:2574,0
LF:542
LH:16
end_of_record
SF:/usr/share/miniconda3/envs/moose/x86_64-conda-linux-gnu/include/c++/10.4.0/bits/stl_pair.h
DA:211,0
DA:314,0
DA:315,0
DA:337,0
DA:353,0
DA:395,0
DA:396,0
DA:408,0
DA:409,0
LF:9
LH:0
end_of_record
SF:/usr/share/miniconda3/envs/moose/libmesh/include/Eigen/src/Core/util/Memory.h
DA:203,0
LF:1
LH:0
end_of_record
SF:/home/runner/work/beaver/beaver/moose/framework/build/header_symlinks/UniqueStorage.h
DA:160,0
LF:1
LH:0
end_of_record
SF:/usr/share/miniconda3/envs/moose/x86_64-conda-linux-gnu/include/c++/10.4.0/bits/move.h
DA:197,0
DA:198,0
DA:199,0
LF:3
LH:0
end_of_record
SF:/usr/share/miniconda3/envs/moose/libmesh/include/metaphysicl/dynamic_std_array_wrapper.h
FN:71,_ZN11MetaPhysicL22DynamicStdArrayWrapperImNS_8NWrapperILm64EEEEaSERKS3_
FNDA:0,_ZN11MetaPhysicL22DynamicStdArrayWrapperImNS_8NWrapperILm64EEEEaSERKS3_
FN:71,_ZN11MetaPhysicL22DynamicStdArrayWrapperIdNS_8NWrapperILm64EEEEaSERKS3_
FNDA:0,_ZN11MetaPhysicL22DynamicStdArrayWrapperIdNS_8NWrapperILm64EEEEaSERKS3_
FN:122,_ZN11MetaPhysicL22DynamicStdArrayWrapperImNS_8NWrapperILm64EEEE6resizeEm
FNDA:0,_ZN11MetaPhysicL22DynamicStdArrayWrapperImNS_8NWrapperILm64EEEE6resizeEm
FN:122,_ZN11MetaPhysicL22DynamicStdArrayWrapperIdNS_8NWrapperILm64EEEE6resizeEm
FNDA:0,_ZN11MetaPhysicL22DynamicStdArrayWrapperIdNS_8NWrapperILm64EEEE6resizeEm
FNF:4
FNH:0
DA:71,0
DA:73,0
DA:75,0
DA:76,0
DA:71,0
DA:73,0
DA:75,0
DA:76,0
DA:82,0
DA:85,0
DA:86,0
DA:90,184320
DA:99,0
DA:105,0
DA:120,184320
DA:122,0
DA:124,0
DA:125,0
DA:126,0
DA:127,0
DA:122,0
DA:124,0
DA:125,0
DA:126,0
DA:127,0
DA:132,0
DA:138,0
DA:143,0
LF:28
LH:2
end_of_record
SF:/usr/share/miniconda3/envs/moose/libmesh/include/libmesh/remote_elem.h
FN:119,_ZNK7libMesh10RemoteElem7n_nodesEv
FNDA:0,_ZNK7libMesh10RemoteElem7n_nodesEv
FN:122,_ZNK7libMesh10RemoteElem7n_sidesEv
FNDA:0,_ZNK7libMesh10RemoteElem7n_sidesEv
FN:137,_ZNK7libMesh10RemoteElem9is_vertexEj
FNDA:0,_ZNK7libMesh10RemoteElem9is_vertexEj
FN:204,_ZNK7libMesh10RemoteElem13default_orderEv
FNDA:0,_ZNK7libMesh10RemoteElem13default_orderEv
FNF:4
FNH:0
DA:119,0
DA:120,0
DA:122,0
DA:123,0
DA:137,0
DA:138,0
DA:204,0
DA:205,0
LF:8
LH:0
end_of_record
SF:/usr/share/miniconda3/envs/moose/libmesh/include/libmesh/reference_counter.h
DA:152,21065
LF:1
LH:1
end_of_record
SF:/usr/share/miniconda3/envs/moose/libmesh/include/libmesh/dense_matrix.h
FN:99,_ZN7libMesh11DenseMatrixIdED0Ev
FNDA:0,_ZN7libMesh11DenseMatrixIdED0Ev
FN:99,_ZN7libMesh11DenseMatrixIdED2Ev
FNDA:1884,_ZN7libMesh11DenseMatrixIdED2Ev
FN:126,_ZNK7libMesh11DenseMatrixIdE2elEjj
FNDA:0,_ZNK7libMesh11DenseMatrixIdE2elEjj
FN:130,_ZN7libMesh11DenseMatrixIdE2elEjj
FNDA:0,_ZN7libMesh11DenseMatrixIdE2elEjj
FN:911,_ZN7libMesh11DenseMatrixIdE4zeroEv
FNDA:0,_ZN7libMesh11DenseMatrixIdE4zeroEv
FNF:5
FNH:1
DA:99,0
DA:99,1884
DA:126,0
DA:128,0
DA:130,0
DA:132,0
DA:911,0
DA:913,0
DA:916,0
DA:962,0
DA:977,0
LF:11
LH:1
end_of_record
SF:/usr/share/miniconda3/envs/moose/x86_64-conda-linux-gnu/include/c++/10.4.0/ext/atomicity.h
DA:50,0
DA:55,119
DA:68,0
DA:69,0
DA:76,0
DA:83,0
DA:84,0
DA:86,0
DA:94,119
DA:97,119
LF:10
LH:3
end_of_record
SF:/home/runner/work/beaver/beaver/moose/framework/build/header_symlinks/MooseArray.h
FN:213,_ZN10MooseArrayIdE6resizeILb1EEEvj
FNDA:0,_ZN10MooseArrayIdE6resizeILb1EEEvj
FN:213,_ZN10MooseArrayI18RankTwoTensorTemplIdEE6resizeILb1EEEvj
FNDA:0,_ZN10MooseArrayI18RankTwoTensorTemplIdEE6resizeILb1EEEvj
FN:213,_ZN10MooseArrayI18RankTwoTensorTemplIN11MetaPhysicL10DualNumberIdNS1_28SemiDynamicSparseNumberArrayIdmNS1_8NWrapperILm64EEEEELb1EEEEE6resizeILb1EEEvj
FNDA:0,_ZN10MooseArrayI18RankTwoTensorTemplIN11MetaPhysicL10DualNumberIdNS1_28SemiDynamicSparseNumberArrayIdmNS1_8NWrapperILm64EEEEELb1EEEEE6resizeILb1EEEvj
FN:213,_ZN10MooseArrayIN11MetaPhysicL10DualNumberIdNS0_28SemiDynamicSparseNumberArrayIdmNS0_8NWrapperILm64EEEEELb1EEEE6resizeILb1EEEvj
FNDA:0,_ZN10MooseArrayIN11MetaPhysicL10DualNumberIdNS0_28SemiDynamicSparseNumberArrayIdmNS0_8NWrapperILm64EEEEELb1EEEE6resizeILb1EEEvj
FNF:4
FNH:0
DA:25,0
DA:55,0
DA:213,0
DA:215,0
DA:218,0
DA:223,0
DA:224,0
DA:227,0
DA:228,0
DA:213,0
DA:215,0
DA:218,0
DA:223,0
DA:224,0
DA:227,0
DA:228,0
DA:213,0
DA:215,0
DA:218,0
DA:223,0
DA:224,0
DA:227,0
DA:228,0
DA:213,0
DA:215,0
DA:218,0
DA:223,0
DA:224,0
DA:227,0
DA:228,0
DA:258,0
DA:268,0
DA:278,103664
LF:33
LH:1
end_of_record
SF:/home/runner/work/beaver/beaver/moose/framework/build/header_symlinks/Coupleable.h
FN:134,_ZNK10Coupleable15coupledCallbackERKNSt7__cxx1112basic_stringIcSt11char_traitsIcESaIcEEEb
FNDA:0,_ZNK10Coupleable15coupledCallbackERKNSt7__cxx1112basic_stringIcSt11char_traitsIcESaIcEEEb
FNF:1
FNH:0
DA:134,0
LF:1
LH:0
end_of_record
SF:/usr/share/miniconda3/envs/moose/libmesh/include/libmesh/threads_pthread.h
FN:146,_ZN7libMesh7Threads10spin_mutexD2Ev
FNDA:0,_ZN7libMesh7Threads10spin_mutexD2Ev
FN:504,_ZN7libMesh7Threads6atomicIjEppEv
FNDA:21065,_ZN7libMesh7Threads6atomicIjEppEv
FN:518,_ZN7libMesh7Threads6atomicIjEmmEv
FNDA:145175,_ZN7libMesh7Threads6atomicIjEmmEv
FNF:3
FNH:2
DA:146,0
DA:148,166240
DA:149,166240
DA:504,21065
DA:507,21065
DA:508,21065
DA:518,145175
DA:521,145175
DA:522,145175
LF:9
LH:8
end_of_record
SF:/usr/share/miniconda3/envs/moose/x86_64-conda-linux-gnu/include/c++/10.4.0/tuple
FN:1390,_ZNSt15__tuple_compareISt5tupleIJPK8FaceInfoN5Moose2FV11LimiterTypeEbbPKN7libMesh4ElemEEESB_Lm0ELm5EE6__lessERKSB_SE_
FNDA:0,_ZNSt15__tuple_compareISt5tupleIJPK8FaceInfoN5Moose2FV11LimiterTypeEbbPKN7libMesh4ElemEEESB_Lm0ELm5EE6__lessERKSB_SE_
FN:1390,_ZNSt15__tuple_compareISt5tupleIJPK8FaceInfoN5Moose2FV11LimiterTypeEbbPKN7libMesh4ElemEEESB_Lm1ELm5EE6__lessERKSB_SE_
FNDA:0,_ZNSt15__tuple_compareISt5tupleIJPK8FaceInfoN5Moose2FV11LimiterTypeEbbPKN7libMesh4ElemEEESB_Lm1ELm5EE6__lessERKSB_SE_
FN:1390,_ZNSt15__tuple_compareISt5tupleIJPK8FaceInfoN5Moose2FV11LimiterTypeEbbPKN7libMesh4ElemEEESB_Lm2ELm5EE6__lessERKSB_SE_
FNDA:0,_ZNSt15__tuple_compareISt5tupleIJPK8FaceInfoN5Moose2FV11LimiterTypeEbbPKN7libMesh4ElemEEESB_Lm2ELm5EE6__lessERKSB_SE_
FN:1702,_ZNSt4pairIKNSt7__cxx1112basic_stringIcSt11char_traitsIcESaIcEEES5_EC2IJOS5_EJLm0EEJEJEEERSt5tupleIJDpT_EERSA_IJDpT1_EESt12_Index_tupleIJXspT0_EEESJ_IJXspT2_EEE
FNDA:0,_ZNSt4pairIKNSt7__cxx1112basic_stringIcSt11char_traitsIcESaIcEEES5_EC2IJOS5_EJLm0EEJEJEEERSt5tupleIJDpT_EERSA_IJDpT1_EESt12_Index_tupleIJXspT0_EEESJ_IJXspT2_EEE
FNF:4
FNH:0
DA:130,0
DA:132,0
DA:133,0
DA:135,0
DA:136,0
DA:142,0
DA:143,21065
DA:176,0
DA:532,0
DA:1390,0
DA:1392,0
DA:1393,0
DA:1394,0
DA:1390,0
DA:1392,0
DA:1393,0
DA:1394,0
DA:1390,0
DA:1392,0
DA:1393,0
DA:1394,0
DA:1393,0
DA:1460,0
DA:1690,0
DA:1695,0
DA:1702,0
DA:1706,0
DA:1707,0
LF:28
LH:1
end_of_record
SF:/usr/share/miniconda3/envs/moose/libmesh/include/metaphysicl/semidynamicsparsenumberarray_decl.h
DA:34,0
DA:58,0
DA:62,0
LF:3
LH:0
end_of_record
SF:/home/runner/work/beaver/beaver/moose/framework/build/header_symlinks/ElemInfo.h
DA:34,0
LF:1
LH:0
end_of_record
SF:/usr/share/miniconda3/envs/moose/x86_64-conda-linux-gnu/include/c++/10.4.0/streambuf
LF:0
LH:0
end_of_record
SF:/usr/share/miniconda3/envs/moose/libmesh/include/metaphysicl/metaphysicl_exceptions.h
DA:45,0
LF:1
LH:0
end_of_record
SF:/usr/share/miniconda3/envs/moose/x86_64-conda-linux-gnu/include/c++/10.4.0/istream
DA:219,0
LF:1
LH:0
end_of_record
SF:/home/runner/work/beaver/beaver/moose/framework/build/header_symlinks/MooseBase.h
FN:47,_ZNK9MooseBase4nameB5cxx11Ev
FNDA:0,_ZNK9MooseBase4nameB5cxx11Ev
FNF:1
FNH:0
DA:35,0
DA:47,0
LF:2
LH:0
end_of_record
SF:/home/runner/work/beaver/beaver/src/auxkernels/BVEqvStrainRateAux.C
FN:20,_ZN18BVEqvStrainRateAux11validParamsEv
FNDA:120,_ZN18BVEqvStrainRateAux11validParamsEv
FN:27,_ZN18BVEqvStrainRateAuxC2ERK15InputParameters
FNDA:2,_ZN18BVEqvStrainRateAuxC2ERK15InputParameters
FN:33,_ZN18BVEqvStrainRateAux12computeValueEv
FNDA:20480,_ZN18BVEqvStrainRateAux12computeValueEv
FNF:3
FNH:3
DA:20,120
DA:22,120
DA:23,120
DA:24,120
DA:27,2
DA:28,2
DA:30,2
DA:33,20480
DA:35,20480
DA:36,20480
LF:10
LH:10
end_of_record
SF:/home/runner/work/beaver/beaver/src/auxkernels/BVEqvStrainAux.C
FN:20,_ZN14BVEqvStrainAux11validParamsEv
FNDA:120,_ZN14BVEqvStrainAux11validParamsEv
FN:27,_ZN14BVEqvStrainAuxC2ERK15InputParameters
FNDA:2,_ZN14BVEqvStrainAuxC2ERK15InputParameters
FN:33,_ZN14BVEqvStrainAux12computeValueEv
FNDA:20480,_ZN14BVEqvStrainAux12computeValueEv
FNF:3
FNH:3
DA:20,120
DA:22,120
DA:23,120
DA:24,120
DA:27,2
DA:28,2
DA:30,2
DA:33,20480
DA:35,20480
DA:36,20480
LF:10
LH:10
end_of_record
SF:/usr/share/miniconda3/envs/moose/x86_64-conda-linux-gnu/include/c++/10.4.0/bits/shared_ptr_base.h
FN:134,_ZNSt16_Sp_counted_baseILN9__gnu_cxx12_Lock_policyE2EE10_M_destroyEv
FNDA:0,_ZNSt16_Sp_counted_baseILN9__gnu_cxx12_Lock_policyE2EE10_M_destroyEv
FN:141,_ZNSt16_Sp_counted_baseILN9__gnu_cxx12_Lock_policyE2EE15_M_add_ref_copyEv
FNDA:119,_ZNSt16_Sp_counted_baseILN9__gnu_cxx12_Lock_policyE2EE15_M_add_ref_copyEv
FN:151,_ZNSt16_Sp_counted_baseILN9__gnu_cxx12_Lock_policyE2EE10_M_releaseEv
FNDA:0,_ZNSt16_Sp_counted_baseILN9__gnu_cxx12_Lock_policyE2EE10_M_releaseEv
FN:407,_ZNSt15_Sp_counted_ptrIDnLN9__gnu_cxx12_Lock_policyE2EE10_M_disposeEv
FNDA:0,_ZNSt15_Sp_counted_ptrIDnLN9__gnu_cxx12_Lock_policyE2EE10_M_disposeEv
FN:555,_ZNSt23_Sp_counted_ptr_inplaceI14BVEqvStrainAuxSaIS0_ELN9__gnu_cxx12_Lock_policyE2EED0Ev
FNDA:0,_ZNSt23_Sp_counted_ptr_inplaceI14BVEqvStrainAuxSaIS0_ELN9__gnu_cxx12_Lock_policyE2EED0Ev
FN:555,_ZNSt23_Sp_counted_ptr_inplaceINSt13__future_base13_State_baseV2ESaIS1_ELN9__gnu_cxx12_Lock_policyE2EED0Ev
FNDA:0,_ZNSt23_Sp_counted_ptr_inplaceINSt13__future_base13_State_baseV2ESaIS1_ELN9__gnu_cxx12_Lock_policyE2EED0Ev
FN:555,_ZNSt23_Sp_counted_ptr_inplaceI14BVEqvStrainAuxSaIS0_ELN9__gnu_cxx12_Lock_policyE2EED2Ev
FNDA:0,_ZNSt23_Sp_counted_ptr_inplaceI14BVEqvStrainAuxSaIS0_ELN9__gnu_cxx12_Lock_policyE2EED2Ev
FN:555,_ZNSt23_Sp_counted_ptr_inplaceI18BVDarcyVelocityAuxSaIS0_ELN9__gnu_cxx12_Lock_policyE2EED0Ev
FNDA:0,_ZNSt23_Sp_counted_ptr_inplaceI18BVDarcyVelocityAuxSaIS0_ELN9__gnu_cxx12_Lock_policyE2EED0Ev
FN:555,_ZNSt23_Sp_counted_ptr_inplaceI18BVDarcyVelocityAuxSaIS0_ELN9__gnu_cxx12_Lock_policyE2EED2Ev
FNDA:0,_ZNSt23_Sp_counted_ptr_inplaceI18BVDarcyVelocityAuxSaIS0_ELN9__gnu_cxx12_Lock_policyE2EED2Ev
FN:555,_ZNSt23_Sp_counted_ptr_inplaceISt5mutexSaIS0_ELN9__gnu_cxx12_Lock_policyE2EED0Ev
FNDA:0,_ZNSt23_Sp_counted_ptr_inplaceISt5mutexSaIS0_ELN9__gnu_cxx12_Lock_policyE2EED0Ev
FN:555,_ZNSt23_Sp_counted_ptr_inplaceISt5mutexSaIS0_ELN9__gnu_cxx12_Lock_policyE2EED2Ev
FNDA:0,_ZNSt23_Sp_counted_ptr_inplaceISt5mutexSaIS0_ELN9__gnu_cxx12_Lock_policyE2EED2Ev
FN:555,_ZNSt23_Sp_counted_ptr_inplaceINSt13__future_base13_State_baseV2ESaIS1_ELN9__gnu_cxx12_Lock_policyE2EED2Ev
FNDA:0,_ZNSt23_Sp_counted_ptr_inplaceINSt13__future_base13_State_baseV2ESaIS1_ELN9__gnu_cxx12_Lock_policyE2EED2Ev
FN:555,_ZNSt23_Sp_counted_ptr_inplaceI13RegistryEntryI18BVDarcyVelocityAuxESaIS2_ELN9__gnu_cxx12_Lock_policyE2EED0Ev
FNDA:0,_ZNSt23_Sp_counted_ptr_inplaceI13RegistryEntryI18BVDarcyVelocityAuxESaIS2_ELN9__gnu_cxx12_Lock_policyE2EED0Ev
FN:555,_ZNSt23_Sp_counted_ptr_inplaceI13RegistryEntryI18BVDarcyVelocityAuxESaIS2_ELN9__gnu_cxx12_Lock_policyE2EED2Ev
FNDA:0,_ZNSt23_Sp_counted_ptr_inplaceI13RegistryEntryI18BVDarcyVelocityAuxESaIS2_ELN9__gnu_cxx12_Lock_policyE2EED2Ev
FN:555,_ZNSt23_Sp_counted_ptr_inplaceI13RegistryEntryI14BVEqvStrainAuxESaIS2_ELN9__gnu_cxx12_Lock_policyE2EED0Ev
FNDA:0,_ZNSt23_Sp_counted_ptr_inplaceI13RegistryEntryI14BVEqvStrainAuxESaIS2_ELN9__gnu_cxx12_Lock_policyE2EED0Ev
FN:555,_ZNSt23_Sp_counted_ptr_inplaceI13RegistryEntryI14BVEqvStrainAuxESaIS2_ELN9__gnu_cxx12_Lock_policyE2EED2Ev
FNDA:0,_ZNSt23_Sp_counted_ptr_inplaceI13RegistryEntryI14BVEqvStrainAuxESaIS2_ELN9__gnu_cxx12_Lock_policyE2EED2Ev
FN:555,_ZNSt23_Sp_counted_ptr_inplaceI13RegistryEntryI18BVEqvStrainRateAuxESaIS2_ELN9__gnu_cxx12_Lock_policyE2EED0Ev
FNDA:0,_ZNSt23_Sp_counted_ptr_inplaceI13RegistryEntryI18BVEqvStrainRateAuxESaIS2_ELN9__gnu_cxx12_Lock_policyE2EED0Ev
FN:555,_ZNSt23_Sp_counted_ptr_inplaceI13RegistryEntryI18BVEqvStrainRateAuxESaIS2_ELN9__gnu_cxx12_Lock_policyE2EED2Ev
FNDA:0,_ZNSt23_Sp_counted_ptr_inplaceI13RegistryEntryI18BVEqvStrainRateAuxESaIS2_ELN9__gnu_cxx12_Lock_policyE2EED2Ev
FN:555,_ZNSt23_Sp_counted_ptr_inplaceI13RegistryEntryI16BVMisesStressAuxESaIS2_ELN9__gnu_cxx12_Lock_policyE2EED0Ev
FNDA:0,_ZNSt23_Sp_counted_ptr_inplaceI13RegistryEntryI16BVMisesStressAuxESaIS2_ELN9__gnu_cxx12_Lock_policyE2EED0Ev
FN:555,_ZNSt23_Sp_counted_ptr_inplaceI13RegistryEntryI16BVMisesStressAuxESaIS2_ELN9__gnu_cxx12_Lock_policyE2EED2Ev
FNDA:0,_ZNSt23_Sp_counted_ptr_inplaceI13RegistryEntryI16BVMisesStressAuxESaIS2_ELN9__gnu_cxx12_Lock_policyE2EED2Ev
FN:555,_ZNSt23_Sp_counted_ptr_inplaceI13RegistryEntryI13BVPressureAuxESaIS2_ELN9__gnu_cxx12_Lock_policyE2EED0Ev
FNDA:0,_ZNSt23_Sp_counted_ptr_inplaceI13RegistryEntryI13BVPressureAuxESaIS2_ELN9__gnu_cxx12_Lock_policyE2EED0Ev
FN:555,_ZNSt23_Sp_counted_ptr_inplaceI13RegistryEntryI13BVPressureAuxESaIS2_ELN9__gnu_cxx12_Lock_policyE2EED2Ev
FNDA:0,_ZNSt23_Sp_counted_ptr_inplaceI13RegistryEntryI13BVPressureAuxESaIS2_ELN9__gnu_cxx12_Lock_policyE2EED2Ev
FN:555,_ZNSt23_Sp_counted_ptr_inplaceI13RegistryEntryI20BVStrainComponentAuxESaIS2_ELN9__gnu_cxx12_Lock_policyE2EED0Ev
FNDA:0,_ZNSt23_Sp_counted_ptr_inplaceI13RegistryEntryI20BVStrainComponentAuxESaIS2_ELN9__gnu_cxx12_Lock_policyE2EED0Ev
FN:555,_ZNSt23_Sp_counted_ptr_inplaceI13RegistryEntryI20BVStrainComponentAuxESaIS2_ELN9__gnu_cxx12_Lock_policyE2EED2Ev
FNDA:0,_ZNSt23_Sp_counted_ptr_inplaceI13RegistryEntryI20BVStrainComponentAuxESaIS2_ELN9__gnu_cxx12_Lock_policyE2EED2Ev
FN:555,_ZNSt23_Sp_counted_ptr_inplaceI13RegistryEntryI20BVStressComponentAuxESaIS2_ELN9__gnu_cxx12_Lock_policyE2EED0Ev
FNDA:0,_ZNSt23_Sp_counted_ptr_inplaceI13RegistryEntryI20BVStressComponentAuxESaIS2_ELN9__gnu_cxx12_Lock_policyE2EED0Ev
FN:555,_ZNSt23_Sp_counted_ptr_inplaceI13RegistryEntryI20BVStressComponentAuxESaIS2_ELN9__gnu_cxx12_Lock_policyE2EED2Ev
FNDA:0,_ZNSt23_Sp_counted_ptr_inplaceI13RegistryEntryI20BVStressComponentAuxESaIS2_ELN9__gnu_cxx12_Lock_policyE2EED2Ev
FN:555,_ZNSt23_Sp_counted_ptr_inplaceI20BVStressComponentAuxSaIS0_ELN9__gnu_cxx12_Lock_policyE2EED2Ev
FNDA:0,_ZNSt23_Sp_counted_ptr_inplaceI20BVStressComponentAuxSaIS0_ELN9__gnu_cxx12_Lock_policyE2EED2Ev
FN:555,_ZNSt23_Sp_counted_ptr_inplaceI20BVStrainComponentAuxSaIS0_ELN9__gnu_cxx12_Lock_policyE2EED2Ev
FNDA:0,_ZNSt23_Sp_counted_ptr_inplaceI20BVStrainComponentAuxSaIS0_ELN9__gnu_cxx12_Lock_policyE2EED2Ev
FN:555,_ZNSt23_Sp_counted_ptr_inplaceI16BVMisesStressAuxSaIS0_ELN9__gnu_cxx12_Lock_policyE2EED2Ev
FNDA:0,_ZNSt23_Sp_counted_ptr_inplaceI16BVMisesStressAuxSaIS0_ELN9__gnu_cxx12_Lock_policyE2EED2Ev
FN:555,_ZNSt23_Sp_counted_ptr_inplaceI20BVStrainComponentAuxSaIS0_ELN9__gnu_cxx12_Lock_policyE2EED0Ev
FNDA:0,_ZNSt23_Sp_counted_ptr_inplaceI20BVStrainComponentAuxSaIS0_ELN9__gnu_cxx12_Lock_policyE2EED0Ev
FN:555,_ZNSt23_Sp_counted_ptr_inplaceI16BVMisesStressAuxSaIS0_ELN9__gnu_cxx12_Lock_policyE2EED0Ev
FNDA:0,_ZNSt23_Sp_counted_ptr_inplaceI16BVMisesStressAuxSaIS0_ELN9__gnu_cxx12_Lock_policyE2EED0Ev
FN:555,_ZNSt23_Sp_counted_ptr_inplaceI18BVEqvStrainRateAuxSaIS0_ELN9__gnu_cxx12_Lock_policyE2EED0Ev
FNDA:0,_ZNSt23_Sp_counted_ptr_inplaceI18BVEqvStrainRateAuxSaIS0_ELN9__gnu_cxx12_Lock_policyE2EED0Ev
FN:555,_ZNSt23_Sp_counted_ptr_inplaceI13BVPressureAuxSaIS0_ELN9__gnu_cxx12_Lock_policyE2EED0Ev
FNDA:0,_ZNSt23_Sp_counted_ptr_inplaceI13BVPressureAuxSaIS0_ELN9__gnu_cxx12_Lock_policyE2EED0Ev
FN:555,_ZNSt23_Sp_counted_ptr_inplaceI20BVStressComponentAuxSaIS0_ELN9__gnu_cxx12_Lock_policyE2EED0Ev
FNDA:0,_ZNSt23_Sp_counted_ptr_inplaceI20BVStressComponentAuxSaIS0_ELN9__gnu_cxx12_Lock_policyE2EED0Ev
FN:555,_ZNSt23_Sp_counted_ptr_inplaceI18BVEqvStrainRateAuxSaIS0_ELN9__gnu_cxx12_Lock_policyE2EED2Ev
FNDA:0,_ZNSt23_Sp_counted_ptr_inplaceI18BVEqvStrainRateAuxSaIS0_ELN9__gnu_cxx12_Lock_policyE2EED2Ev
FN:555,_ZNSt23_Sp_counted_ptr_inplaceI13BVPressureAuxSaIS0_ELN9__gnu_cxx12_Lock_policyE2EED2Ev
FNDA:0,_ZNSt23_Sp_counted_ptr_inplaceI13BVPressureAuxSaIS0_ELN9__gnu_cxx12_Lock_policyE2EED2Ev
FN:558,_ZNSt23_Sp_counted_ptr_inplaceI16BVMisesStressAuxSaIS0_ELN9__gnu_cxx12_Lock_policyE2EE10_M_disposeEv
FNDA:3,_ZNSt23_Sp_counted_ptr_inplaceI16BVMisesStressAuxSaIS0_ELN9__gnu_cxx12_Lock_policyE2EE10_M_disposeEv
FN:558,_ZNSt23_Sp_counted_ptr_inplaceI14BVEqvStrainAuxSaIS0_ELN9__gnu_cxx12_Lock_policyE2EE10_M_disposeEv
FNDA:2,_ZNSt23_Sp_counted_ptr_inplaceI14BVEqvStrainAuxSaIS0_ELN9__gnu_cxx12_Lock_policyE2EE10_M_disposeEv
FN:558,_ZNSt23_Sp_counted_ptr_inplaceI13RegistryEntryI14BVEqvStrainAuxESaIS2_ELN9__gnu_cxx12_Lock_policyE2EE10_M_disposeEv
FNDA:0,_ZNSt23_Sp_counted_ptr_inplaceI13RegistryEntryI14BVEqvStrainAuxESaIS2_ELN9__gnu_cxx12_Lock_policyE2EE10_M_disposeEv
FN:558,_ZNSt23_Sp_counted_ptr_inplaceI13RegistryEntryI18BVDarcyVelocityAuxESaIS2_ELN9__gnu_cxx12_Lock_policyE2EE10_M_disposeEv
FNDA:0,_ZNSt23_Sp_counted_ptr_inplaceI13RegistryEntryI18BVDarcyVelocityAuxESaIS2_ELN9__gnu_cxx12_Lock_policyE2EE10_M_disposeEv
FN:558,_ZNSt23_Sp_counted_ptr_inplaceI13RegistryEntryI16BVMisesStressAuxESaIS2_ELN9__gnu_cxx12_Lock_policyE2EE10_M_disposeEv
FNDA:0,_ZNSt23_Sp_counted_ptr_inplaceI13RegistryEntryI16BVMisesStressAuxESaIS2_ELN9__gnu_cxx12_Lock_policyE2EE10_M_disposeEv
FN:558,_ZNSt23_Sp_counted_ptr_inplaceI13BVPressureAuxSaIS0_ELN9__gnu_cxx12_Lock_policyE2EE10_M_disposeEv
FNDA:1,_ZNSt23_Sp_counted_ptr_inplaceI13BVPressureAuxSaIS0_ELN9__gnu_cxx12_Lock_policyE2EE10_M_disposeEv
FN:558,_ZNSt23_Sp_counted_ptr_inplaceINSt13__future_base13_State_baseV2ESaIS1_ELN9__gnu_cxx12_Lock_policyE2EE10_M_disposeEv
FNDA:0,_ZNSt23_Sp_counted_ptr_inplaceINSt13__future_base13_State_baseV2ESaIS1_ELN9__gnu_cxx12_Lock_policyE2EE10_M_disposeEv
FN:558,_ZNSt23_Sp_counted_ptr_inplaceI13RegistryEntryI13BVPressureAuxESaIS2_ELN9__gnu_cxx12_Lock_policyE2EE10_M_disposeEv
FNDA:0,_ZNSt23_Sp_counted_ptr_inplaceI13RegistryEntryI13BVPressureAuxESaIS2_ELN9__gnu_cxx12_Lock_policyE2EE10_M_disposeEv
FN:558,_ZNSt23_Sp_counted_ptr_inplaceI13RegistryEntryI18BVEqvStrainRateAuxESaIS2_ELN9__gnu_cxx12_Lock_policyE2EE10_M_disposeEv
FNDA:0,_ZNSt23_Sp_counted_ptr_inplaceI13RegistryEntryI18BVEqvStrainRateAuxESaIS2_ELN9__gnu_cxx12_Lock_policyE2EE10_M_disposeEv
FN:558,_ZNSt23_Sp_counted_ptr_inplaceISt5mutexSaIS0_ELN9__gnu_cxx12_Lock_policyE2EE10_M_disposeEv
FNDA:0,_ZNSt23_Sp_counted_ptr_inplaceISt5mutexSaIS0_ELN9__gnu_cxx12_Lock_policyE2EE10_M_disposeEv
FN:558,_ZNSt23_Sp_counted_ptr_inplaceI13RegistryEntryI20BVStrainComponentAuxESaIS2_ELN9__gnu_cxx12_Lock_policyE2EE10_M_disposeEv
FNDA:0,_ZNSt23_Sp_counted_ptr_inplaceI13RegistryEntryI20BVStrainComponentAuxESaIS2_ELN9__gnu_cxx12_Lock_policyE2EE10_M_disposeEv
FN:558,_ZNSt23_Sp_counted_ptr_inplaceI20BVStrainComponentAuxSaIS0_ELN9__gnu_cxx12_Lock_policyE2EE10_M_disposeEv
FNDA:6,_ZNSt23_Sp_counted_ptr_inplaceI20BVStrainComponentAuxSaIS0_ELN9__gnu_cxx12_Lock_policyE2EE10_M_disposeEv
FN:558,_ZNSt23_Sp_counted_ptr_inplaceI13RegistryEntryI20BVStressComponentAuxESaIS2_ELN9__gnu_cxx12_Lock_policyE2EE10_M_disposeEv
FNDA:0,_ZNSt23_Sp_counted_ptr_inplaceI13RegistryEntryI20BVStressComponentAuxESaIS2_ELN9__gnu_cxx12_Lock_policyE2EE10_M_disposeEv
FN:558,_ZNSt23_Sp_counted_ptr_inplaceI18BVEqvStrainRateAuxSaIS0_ELN9__gnu_cxx12_Lock_policyE2EE10_M_disposeEv
FNDA:2,_ZNSt23_Sp_counted_ptr_inplaceI18BVEqvStrainRateAuxSaIS0_ELN9__gnu_cxx12_Lock_policyE2EE10_M_disposeEv
FN:558,_ZNSt23_Sp_counted_ptr_inplaceI18BVDarcyVelocityAuxSaIS0_ELN9__gnu_cxx12_Lock_policyE2EE10_M_disposeEv
FNDA:4,_ZNSt23_Sp_counted_ptr_inplaceI18BVDarcyVelocityAuxSaIS0_ELN9__gnu_cxx12_Lock_policyE2EE10_M_disposeEv
FN:558,_ZNSt23_Sp_counted_ptr_inplaceI20BVStressComponentAuxSaIS0_ELN9__gnu_cxx12_Lock_policyE2EE10_M_disposeEv
FNDA:6,_ZNSt23_Sp_counted_ptr_inplaceI20BVStressComponentAuxSaIS0_ELN9__gnu_cxx12_Lock_policyE2EE10_M_disposeEv
FN:565,_ZNSt23_Sp_counted_ptr_inplaceI13RegistryEntryI13BVPressureAuxESaIS2_ELN9__gnu_cxx12_Lock_policyE2EE10_M_destroyEv
FNDA:0,_ZNSt23_Sp_counted_ptr_inplaceI13RegistryEntryI13BVPressureAuxESaIS2_ELN9__gnu_cxx12_Lock_policyE2EE10_M_destroyEv
FN:565,_ZNSt23_Sp_counted_ptr_inplaceI13RegistryEntryI20BVStrainComponentAuxESaIS2_ELN9__gnu_cxx12_Lock_policyE2EE10_M_destroyEv
FNDA:0,_ZNSt23_Sp_counted_ptr_inplaceI13RegistryEntryI20BVStrainComponentAuxESaIS2_ELN9__gnu_cxx12_Lock_policyE2EE10_M_destroyEv
FN:565,_ZNSt23_Sp_counted_ptr_inplaceI13BVPressureAuxSaIS0_ELN9__gnu_cxx12_Lock_policyE2EE10_M_destroyEv
FNDA:1,_ZNSt23_Sp_counted_ptr_inplaceI13BVPressureAuxSaIS0_ELN9__gnu_cxx12_Lock_policyE2EE10_M_destroyEv
FN:565,_ZNSt23_Sp_counted_ptr_inplaceI13RegistryEntryI20BVStressComponentAuxESaIS2_ELN9__gnu_cxx12_Lock_policyE2EE10_M_destroyEv
FNDA:0,_ZNSt23_Sp_counted_ptr_inplaceI13RegistryEntryI20BVStressComponentAuxESaIS2_ELN9__gnu_cxx12_Lock_policyE2EE10_M_destroyEv
FN:565,_ZNSt23_Sp_counted_ptr_inplaceI20BVStrainComponentAuxSaIS0_ELN9__gnu_cxx12_Lock_policyE2EE10_M_destroyEv
FNDA:6,_ZNSt23_Sp_counted_ptr_inplaceI20BVStrainComponentAuxSaIS0_ELN9__gnu_cxx12_Lock_policyE2EE10_M_destroyEv
FN:565,_ZNSt23_Sp_counted_ptr_inplaceI13RegistryEntryI16BVMisesStressAuxESaIS2_ELN9__gnu_cxx12_Lock_policyE2EE10_M_destroyEv
FNDA:0,_ZNSt23_Sp_counted_ptr_inplaceI13RegistryEntryI16BVMisesStressAuxESaIS2_ELN9__gnu_cxx12_Lock_policyE2EE10_M_destroyEv
FN:565,_ZNSt23_Sp_counted_ptr_inplaceI14BVEqvStrainAuxSaIS0_ELN9__gnu_cxx12_Lock_policyE2EE10_M_destroyEv
FNDA:2,_ZNSt23_Sp_counted_ptr_inplaceI14BVEqvStrainAuxSaIS0_ELN9__gnu_cxx12_Lock_policyE2EE10_M_destroyEv
FN:565,_ZNSt23_Sp_counted_ptr_inplaceI20BVStressComponentAuxSaIS0_ELN9__gnu_cxx12_Lock_policyE2EE10_M_destroyEv
FNDA:6,_ZNSt23_Sp_counted_ptr_inplaceI20BVStressComponentAuxSaIS0_ELN9__gnu_cxx12_Lock_policyE2EE10_M_destroyEv
FN:565,_ZNSt23_Sp_counted_ptr_inplaceI13RegistryEntryI18BVEqvStrainRateAuxESaIS2_ELN9__gnu_cxx12_Lock_policyE2EE10_M_destroyEv
FNDA:0,_ZNSt23_Sp_counted_ptr_inplaceI13RegistryEntryI18BVEqvStrainRateAuxESaIS2_ELN9__gnu_cxx12_Lock_policyE2EE10_M_destroyEv
FN:565,_ZNSt23_Sp_counted_ptr_inplaceI16BVMisesStressAuxSaIS0_ELN9__gnu_cxx12_Lock_policyE2EE10_M_destroyEv
FNDA:3,_ZNSt23_Sp_counted_ptr_inplaceI16BVMisesStressAuxSaIS0_ELN9__gnu_cxx12_Lock_policyE2EE10_M_destroyEv
FN:565,_ZNSt23_Sp_counted_ptr_inplaceI13RegistryEntryI14BVEqvStrainAuxESaIS2_ELN9__gnu_cxx12_Lock_policyE2EE10_M_destroyEv
FNDA:0,_ZNSt23_Sp_counted_ptr_inplaceI13RegistryEntryI14BVEqvStrainAuxESaIS2_ELN9__gnu_cxx12_Lock_policyE2EE10_M_destroyEv
FN:565,_ZNSt23_Sp_counted_ptr_inplaceI18BVDarcyVelocityAuxSaIS0_ELN9__gnu_cxx12_Lock_policyE2EE10_M_destroyEv
FNDA:4,_ZNSt23_Sp_counted_ptr_inplaceI18BVDarcyVelocityAuxSaIS0_ELN9__gnu_cxx12_Lock_policyE2EE10_M_destroyEv
FN:565,_ZNSt23_Sp_counted_ptr_inplaceI13RegistryEntryI18BVDarcyVelocityAuxESaIS2_ELN9__gnu_cxx12_Lock_policyE2EE10_M_destroyEv
FNDA:0,_ZNSt23_Sp_counted_ptr_inplaceI13RegistryEntryI18BVDarcyVelocityAuxESaIS2_ELN9__gnu_cxx12_Lock_policyE2EE10_M_destroyEv
FN:565,_ZNSt23_Sp_counted_ptr_inplaceISt5mutexSaIS0_ELN9__gnu_cxx12_Lock_policyE2EE10_M_destroyEv
FNDA:0,_ZNSt23_Sp_counted_ptr_inplaceISt5mutexSaIS0_ELN9__gnu_cxx12_Lock_policyE2EE10_M_destroyEv
FN:565,_ZNSt23_Sp_counted_ptr_inplaceINSt13__future_base13_State_baseV2ESaIS1_ELN9__gnu_cxx12_Lock_policyE2EE10_M_destroyEv
FNDA:0,_ZNSt23_Sp_counted_ptr_inplaceINSt13__future_base13_State_baseV2ESaIS1_ELN9__gnu_cxx12_Lock_policyE2EE10_M_destroyEv
FN:565,_ZNSt23_Sp_counted_ptr_inplaceI18BVEqvStrainRateAuxSaIS0_ELN9__gnu_cxx12_Lock_policyE2EE10_M_destroyEv
FNDA:2,_ZNSt23_Sp_counted_ptr_inplaceI18BVEqvStrainRateAuxSaIS0_ELN9__gnu_cxx12_Lock_policyE2EE10_M_destroyEv
FN:578,_ZNSt23_Sp_counted_ptr_inplaceI16BVMisesStressAuxSaIS0_ELN9__gnu_cxx12_Lock_policyE2EE14_M_get_deleterERKSt9type_info
FNDA:0,_ZNSt23_Sp_counted_ptr_inplaceI16BVMisesStressAuxSaIS0_ELN9__gnu_cxx12_Lock_policyE2EE14_M_get_deleterERKSt9type_info
FN:578,_ZNSt23_Sp_counted_ptr_inplaceI14BVEqvStrainAuxSaIS0_ELN9__gnu_cxx12_Lock_policyE2EE14_M_get_deleterERKSt9type_info
FNDA:0,_ZNSt23_Sp_counted_ptr_inplaceI14BVEqvStrainAuxSaIS0_ELN9__gnu_cxx12_Lock_policyE2EE14_M_get_deleterERKSt9type_info
FN:578,_ZNSt23_Sp_counted_ptr_inplaceI18BVDarcyVelocityAuxSaIS0_ELN9__gnu_cxx12_Lock_policyE2EE14_M_get_deleterERKSt9type_info
FNDA:0,_ZNSt23_Sp_counted_ptr_inplaceI18BVDarcyVelocityAuxSaIS0_ELN9__gnu_cxx12_Lock_policyE2EE14_M_get_deleterERKSt9type_info
FN:578,_ZNSt23_Sp_counted_ptr_inplaceI20BVStrainComponentAuxSaIS0_ELN9__gnu_cxx12_Lock_policyE2EE14_M_get_deleterERKSt9type_info
FNDA:0,_ZNSt23_Sp_counted_ptr_inplaceI20BVStrainComponentAuxSaIS0_ELN9__gnu_cxx12_Lock_policyE2EE14_M_get_deleterERKSt9type_info
FN:578,_ZNSt23_Sp_counted_ptr_inplaceI13RegistryEntryI20BVStressComponentAuxESaIS2_ELN9__gnu_cxx12_Lock_policyE2EE14_M_get_deleterERKSt9type_info
FNDA:0,_ZNSt23_Sp_counted_ptr_inplaceI13RegistryEntryI20BVStressComponentAuxESaIS2_ELN9__gnu_cxx12_Lock_policyE2EE14_M_get_deleterERKSt9type_info
FN:578,_ZNSt23_Sp_counted_ptr_inplaceI13RegistryEntryI20BVStrainComponentAuxESaIS2_ELN9__gnu_cxx12_Lock_policyE2EE14_M_get_deleterERKSt9type_info
FNDA:0,_ZNSt23_Sp_counted_ptr_inplaceI13RegistryEntryI20BVStrainComponentAuxESaIS2_ELN9__gnu_cxx12_Lock_policyE2EE14_M_get_deleterERKSt9type_info
FN:578,_ZNSt23_Sp_counted_ptr_inplaceI18BVEqvStrainRateAuxSaIS0_ELN9__gnu_cxx12_Lock_policyE2EE14_M_get_deleterERKSt9type_info
FNDA:0,_ZNSt23_Sp_counted_ptr_inplaceI18BVEqvStrainRateAuxSaIS0_ELN9__gnu_cxx12_Lock_policyE2EE14_M_get_deleterERKSt9type_info
FN:578,_ZNSt23_Sp_counted_ptr_inplaceI13RegistryEntryI18BVEqvStrainRateAuxESaIS2_ELN9__gnu_cxx12_Lock_policyE2EE14_M_get_deleterERKSt9type_info
FNDA:0,_ZNSt23_Sp_counted_ptr_inplaceI13RegistryEntryI18BVEqvStrainRateAuxESaIS2_ELN9__gnu_cxx12_Lock_policyE2EE14_M_get_deleterERKSt9type_info
FN:578,_ZNSt23_Sp_counted_ptr_inplaceI13RegistryEntryI16BVMisesStressAuxESaIS2_ELN9__gnu_cxx12_Lock_policyE2EE14_M_get_deleterERKSt9type_info
FNDA:0,_ZNSt23_Sp_counted_ptr_inplaceI13RegistryEntryI16BVMisesStressAuxESaIS2_ELN9__gnu_cxx12_Lock_policyE2EE14_M_get_deleterERKSt9type_info
FN:578,_ZNSt23_Sp_counted_ptr_inplaceI13RegistryEntryI14BVEqvStrainAuxESaIS2_ELN9__gnu_cxx12_Lock_policyE2EE14_M_get_deleterERKSt9type_info
FNDA:0,_ZNSt23_Sp_counted_ptr_inplaceI13RegistryEntryI14BVEqvStrainAuxESaIS2_ELN9__gnu_cxx12_Lock_policyE2EE14_M_get_deleterERKSt9type_info
FN:578,_ZNSt23_Sp_counted_ptr_inplaceI13RegistryEntryI18BVDarcyVelocityAuxESaIS2_ELN9__gnu_cxx12_Lock_policyE2EE14_M_get_deleterERKSt9type_info
FNDA:0,_ZNSt23_Sp_counted_ptr_inplaceI13RegistryEntryI18BVDarcyVelocityAuxESaIS2_ELN9__gnu_cxx12_Lock_policyE2EE14_M_get_deleterERKSt9type_info
FN:578,_ZNSt23_Sp_counted_ptr_inplaceI20BVStressComponentAuxSaIS0_ELN9__gnu_cxx12_Lock_policyE2EE14_M_get_deleterERKSt9type_info
FNDA:0,_ZNSt23_Sp_counted_ptr_inplaceI20BVStressComponentAuxSaIS0_ELN9__gnu_cxx12_Lock_policyE2EE14_M_get_deleterERKSt9type_info
FN:578,_ZNSt23_Sp_counted_ptr_inplaceI13RegistryEntryI13BVPressureAuxESaIS2_ELN9__gnu_cxx12_Lock_policyE2EE14_M_get_deleterERKSt9type_info
FNDA:0,_ZNSt23_Sp_counted_ptr_inplaceI13RegistryEntryI13BVPressureAuxESaIS2_ELN9__gnu_cxx12_Lock_policyE2EE14_M_get_deleterERKSt9type_info
FN:578,_ZNSt23_Sp_counted_ptr_inplaceI13BVPressureAuxSaIS0_ELN9__gnu_cxx12_Lock_policyE2EE14_M_get_deleterERKSt9type_info
FNDA:0,_ZNSt23_Sp_counted_ptr_inplaceI13BVPressureAuxSaIS0_ELN9__gnu_cxx12_Lock_policyE2EE14_M_get_deleterERKSt9type_info
FN:675,_ZNSt14__shared_countILN9__gnu_cxx12_Lock_policyE2EEC2I13BVPressureAuxSaIS4_EJRK15InputParametersEEERPT_St20_Sp_alloc_shared_tagIT0_EDpOT1_
FNDA:1,_ZNSt14__shared_countILN9__gnu_cxx12_Lock_policyE2EEC2I13BVPressureAuxSaIS4_EJRK15InputParametersEEERPT_St20_Sp_alloc_shared_tagIT0_EDpOT1_
FN:675,_ZNSt14__shared_countILN9__gnu_cxx12_Lock_policyE2EEC2I16BVMisesStressAuxSaIS4_EJRK15InputParametersEEERPT_St20_Sp_alloc_shared_tagIT0_EDpOT1_
FNDA:3,_ZNSt14__shared_countILN9__gnu_cxx12_Lock_policyE2EEC2I16BVMisesStressAuxSaIS4_EJRK15InputParametersEEERPT_St20_Sp_alloc_shared_tagIT0_EDpOT1_
FN:675,_ZNSt14__shared_countILN9__gnu_cxx12_Lock_policyE2EEC2I18BVEqvStrainRateAuxSaIS4_EJRK15InputParametersEEERPT_St20_Sp_alloc_shared_tagIT0_EDpOT1_
FNDA:2,_ZNSt14__shared_countILN9__gnu_cxx12_Lock_policyE2EEC2I18BVEqvStrainRateAuxSaIS4_EJRK15InputParametersEEERPT_St20_Sp_alloc_shared_tagIT0_EDpOT1_
FN:675,_ZNSt14__shared_countILN9__gnu_cxx12_Lock_policyE2EEC2I14BVEqvStrainAuxSaIS4_EJRK15InputParametersEEERPT_St20_Sp_alloc_shared_tagIT0_EDpOT1_
FNDA:2,_ZNSt14__shared_countILN9__gnu_cxx12_Lock_policyE2EEC2I14BVEqvStrainAuxSaIS4_EJRK15InputParametersEEERPT_St20_Sp_alloc_shared_tagIT0_EDpOT1_
FN:675,_ZNSt14__shared_countILN9__gnu_cxx12_Lock_policyE2EEC2I20BVStrainComponentAuxSaIS4_EJRK15InputParametersEEERPT_St20_Sp_alloc_shared_tagIT0_EDpOT1_
FNDA:6,_ZNSt14__shared_countILN9__gnu_cxx12_Lock_policyE2EEC2I20BVStrainComponentAuxSaIS4_EJRK15InputParametersEEERPT_St20_Sp_alloc_shared_tagIT0_EDpOT1_
FN:675,_ZNSt14__shared_countILN9__gnu_cxx12_Lock_policyE2EEC2I13RegistryEntryI20BVStressComponentAuxESaIS6_EJRK17RegistryEntryDataEEERPT_St20_Sp_alloc_shared_tagIT0_EDpOT1_
FNDA:17,_ZNSt14__shared_countILN9__gnu_cxx12_Lock_policyE2EEC2I13RegistryEntryI20BVStressComponentAuxESaIS6_EJRK17RegistryEntryDataEEERPT_St20_Sp_alloc_shared_tagIT0_EDpOT1_
FN:675,_ZNSt14__shared_countILN9__gnu_cxx12_Lock_policyE2EEC2I13RegistryEntryI20BVStrainComponentAuxESaIS6_EJRK17RegistryEntryDataEEERPT_St20_Sp_alloc_shared_tagIT0_EDpOT1_
FNDA:17,_ZNSt14__shared_countILN9__gnu_cxx12_Lock_policyE2EEC2I13RegistryEntryI20BVStrainComponentAuxESaIS6_EJRK17RegistryEntryDataEEERPT_St20_Sp_alloc_shared_tagIT0_EDpOT1_
FN:675,_ZNSt14__shared_countILN9__gnu_cxx12_Lock_policyE2EEC2I13RegistryEntryI13BVPressureAuxESaIS6_EJRK17RegistryEntryDataEEERPT_St20_Sp_alloc_shared_tagIT0_EDpOT1_
FNDA:17,_ZNSt14__shared_countILN9__gnu_cxx12_Lock_policyE2EEC2I13RegistryEntryI13BVPressureAuxESaIS6_EJRK17RegistryEntryDataEEERPT_St20_Sp_alloc_shared_tagIT0_EDpOT1_
FN:675,_ZNSt14__shared_countILN9__gnu_cxx12_Lock_policyE2EEC2I13RegistryEntryI16BVMisesStressAuxESaIS6_EJRK17RegistryEntryDataEEERPT_St20_Sp_alloc_shared_tagIT0_EDpOT1_
FNDA:17,_ZNSt14__shared_countILN9__gnu_cxx12_Lock_policyE2EEC2I13RegistryEntryI16BVMisesStressAuxESaIS6_EJRK17RegistryEntryDataEEERPT_St20_Sp_alloc_shared_tagIT0_EDpOT1_
FN:675,_ZNSt14__shared_countILN9__gnu_cxx12_Lock_policyE2EEC2I13RegistryEntryI18BVEqvStrainRateAuxESaIS6_EJRK17RegistryEntryDataEEERPT_St20_Sp_alloc_shared_tagIT0_EDpOT1_
FNDA:17,_ZNSt14__shared_countILN9__gnu_cxx12_Lock_policyE2EEC2I13RegistryEntryI18BVEqvStrainRateAuxESaIS6_EJRK17RegistryEntryDataEEERPT_St20_Sp_alloc_shared_tagIT0_EDpOT1_
FN:675,_ZNSt14__shared_countILN9__gnu_cxx12_Lock_policyE2EEC2I13RegistryEntryI14BVEqvStrainAuxESaIS6_EJRK17RegistryEntryDataEEERPT_St20_Sp_alloc_shared_tagIT0_EDpOT1_
FNDA:17,_ZNSt14__shared_countILN9__gnu_cxx12_Lock_policyE2EEC2I13RegistryEntryI14BVEqvStrainAuxESaIS6_EJRK17RegistryEntryDataEEERPT_St20_Sp_alloc_shared_tagIT0_EDpOT1_
FN:675,_ZNSt14__shared_countILN9__gnu_cxx12_Lock_policyE2EEC2I13RegistryEntryI18BVDarcyVelocityAuxESaIS6_EJRK17RegistryEntryDataEEERPT_St20_Sp_alloc_shared_tagIT0_EDpOT1_
FNDA:17,_ZNSt14__shared_countILN9__gnu_cxx12_Lock_policyE2EEC2I13RegistryEntryI18BVDarcyVelocityAuxESaIS6_EJRK17RegistryEntryDataEEERPT_St20_Sp_alloc_shared_tagIT0_EDpOT1_
FN:675,_ZNSt14__shared_countILN9__gnu_cxx12_Lock_policyE2EEC2I18BVDarcyVelocityAuxSaIS4_EJRK15InputParametersEEERPT_St20_Sp_alloc_shared_tagIT0_EDpOT1_
FNDA:4,_ZNSt14__shared_countILN9__gnu_cxx12_Lock_policyE2EEC2I18BVDarcyVelocityAuxSaIS4_EJRK15InputParametersEEERPT_St20_Sp_alloc_shared_tagIT0_EDpOT1_
FN:675,_ZNSt14__shared_countILN9__gnu_cxx12_Lock_policyE2EEC2I20BVStressComponentAuxSaIS4_EJRK15InputParametersEEERPT_St20_Sp_alloc_shared_tagIT0_EDpOT1_
FNDA:7,_ZNSt14__shared_countILN9__gnu_cxx12_Lock_policyE2EEC2I20BVStressComponentAuxSaIS4_EJRK15InputParametersEEERPT_St20_Sp_alloc_shared_tagIT0_EDpOT1_
FNF:96
FNH:29
DA:120,144
DA:121,144
DA:134,0
DA:135,0
DA:141,119
DA:142,119
DA:151,0
DA:155,0
DA:158,0
DA:170,0
DA:174,0
DA:177,0
DA:407,0
DA:534,25
DA:546,144
DA:547,144
DA:553,25
DA:555,0
DA:555,0
DA:555,0
DA:555,0
DA:555,0
DA:555,0
DA:555,0
DA:555,0
DA:555,0
DA:555,0
DA:555,0
DA:555,0
DA:555,0
DA:555,0
DA:555,0
DA:555,0
DA:555,0
DA:555,0
DA:555,0
DA:555,0
DA:555,0
DA:555,0
DA:555,0
DA:555,0
DA:555,0
DA:555,0
DA:555,0
DA:555,0
DA:555,0
DA:555,0
DA:555,0
DA:555,0
DA:555,24
DA:558,6
DA:561,6
DA:558,6
DA:561,6
DA:558,1
DA:561,1
DA:558,3
DA:561,3
DA:558,2
DA:561,2
DA:558,2
DA:561,2
DA:558,4
DA:561,4
DA:558,0
DA:561,0
DA:558,0
DA:561,0
DA:558,0
DA:561,0
DA:558,0
DA:561,0
DA:558,0
DA:561,0
DA:558,0
DA:561,0
DA:558,0
DA:561,0
DA:558,0
DA:561,0
DA:558,0
DA:561,0
DA:565,6
DA:568,6
DA:570,6
DA:565,6
DA:568,6
DA:570,6
DA:565,1
DA:568,1
DA:570,1
DA:565,3
DA:568,3
DA:570,3
DA:565,2
DA:568,2
DA:570,2
DA:565,2
DA:568,2
DA:570,2
DA:565,4
DA:568,4
DA:570,4
DA:565,0
DA:568,0
DA:570,0
DA:565,0
DA:568,0
DA:570,0
DA:565,0
DA:568,0
DA:570,0
DA:565,0
DA:568,0
DA:570,0
DA:565,0
DA:568,0
DA:570,0
DA:565,0
DA:568,0
DA:570,0
DA:565,0
DA:568,0
DA:570,0
DA:565,0
DA:568,0
DA:570,0
DA:565,0
DA:568,0
DA:570,0
DA:578,0
DA:586,0
DA:588,0
DA:593,0
DA:578,0
DA:586,0
DA:588,0
DA:593,0
DA:578,0
DA:586,0
DA:588,0
DA:593,0
DA:578,0
DA:586,0
DA:588,0
DA:593,0
DA:578,0
DA:586,0
DA:588,0
DA:593,0
DA:578,0
DA:586,0
DA:588,0
DA:593,0
DA:578,0
DA:586,0
DA:588,0
DA:593,0
DA:578,0
DA:586,0
DA:588,0
DA:593,0
DA:578,0
DA:586,0
DA:588,0
DA:593,0
DA:578,0
DA:586,0
DA:588,0
DA:593,0
DA:578,0
DA:586,0
DA:588,0
DA:593,0
DA:578,0
DA:586,0
DA:588,0
DA:593,0
DA:578,0
DA:586,0
DA:588,0
DA:593,0
DA:578,0
DA:586,0
DA:588,0
DA:593,0
DA:619,102
DA:675,4
DA:680,0
DA:685,4
DA:686,4
DA:687,4
DA:675,2
DA:680,0
DA:685,2
DA:686,2
DA:687,2
DA:675,2
DA:680,0
DA:685,2
DA:686,2
DA:687,2
DA:675,3
DA:680,0
DA:685,3
DA:686,3
DA:687,3
DA:675,1
DA:680,0
DA:685,1
DA:686,1
DA:687,1
DA:675,6
DA:680,0
DA:685,6
DA:686,6
DA:687,6
DA:675,7
DA:680,0
DA:685,7
DA:686,7
DA:687,7
DA:675,17
DA:680,0
DA:685,17
DA:686,17
DA:687,17
DA:675,17
DA:680,0
DA:685,17
DA:686,17
DA:687,17
DA:675,17
DA:680,0
DA:685,17
DA:686,17
DA:687,17
DA:675,17
DA:680,0
DA:685,17
DA:686,17
DA:687,17
DA:675,17
DA:680,0
DA:685,17
DA:686,17
DA:687,17
DA:675,17
DA:680,0
DA:685,17
DA:686,17
DA:687,17
DA:675,17
DA:680,0
DA:685,17
DA:686,17
DA:687,17
DA:735,238
DA:736,119
DA:739,119
DA:740,119
DA:742,119
DA:743,119
DA:764,127
DA:765,102
DA:766,127
DA:1192,119
DA:1195,102
DA:1196,0
DA:1199,102
DA:1204,25
DA:1330,238
DA:1375,144
DA:1376,144
LF:274
LH:117
end_of_record
SF:/usr/share/miniconda3/envs/moose/x86_64-conda-linux-gnu/include/c++/10.4.0/bits/hashtable.h
FN:290,_ZNSt10_HashtableImSt4pairIKmSt6vectorIS0_IbN11MetaPhysicL10DualNumberIdNS3_28SemiDynamicSparseNumberArrayIdmNS3_8NWrapperILm64EEEEELb1EEEESaISA_EEESaISD_ENSt8__detail10_Select1stESt8equal_toImESt4hashImENSF_18_Mod_range_hashingENSF_20_Default_ranged_hashENSF_20_Prime_rehash_policyENSF_17_Hashtable_traitsILb0ELb0ELb1EEEE12_Scoped_nodeD2Ev
FNDA:0,_ZNSt10_HashtableImSt4pairIKmSt6vectorIS0_IbN11MetaPhysicL10DualNumberIdNS3_28SemiDynamicSparseNumberArrayIdmNS3_8NWrapperILm64EEEEELb1EEEESaISA_EEESaISD_ENSt8__detail10_Select1stESt8equal_toImESt4hashImENSF_18_Mod_range_hashingENSF_20_Default_ranged_hashENSF_20_Prime_rehash_policyENSF_17_Hashtable_traitsILb0ELb0ELb1EEEE12_Scoped_nodeD2Ev
FN:290,_ZNSt10_HashtableImSt4pairIKmSt6vectorIS2_IS0_IbN11MetaPhysicL10DualNumberIdNS3_28SemiDynamicSparseNumberArrayIdmNS3_8NWrapperILm64EEEEELb1EEEESaISA_EESaISC_EEESaISF_ENSt8__detail10_Select1stESt8equal_toImESt4hashImENSH_18_Mod_range_hashingENSH_20_Default_ranged_hashENSH_20_Prime_rehash_policyENSH_17_Hashtable_traitsILb0ELb0ELb1EEEE12_Scoped_nodeD2Ev
FNDA:0,_ZNSt10_HashtableImSt4pairIKmSt6vectorIS2_IS0_IbN11MetaPhysicL10DualNumberIdNS3_28SemiDynamicSparseNumberArrayIdmNS3_8NWrapperILm64EEEEELb1EEEESaISA_EESaISC_EEESaISF_ENSt8__detail10_Select1stESt8equal_toImESt4hashImENSH_18_Mod_range_hashingENSH_20_Default_ranged_hashENSH_20_Prime_rehash_policyENSH_17_Hashtable_traitsILb0ELb0ELb1EEEE12_Scoped_nodeD2Ev
FN:290,_ZNSt10_HashtableImSt4pairIKmSt6vectorIS0_IbdESaIS3_EEESaIS6_ENSt8__detail10_Select1stESt8equal_toImESt4hashImENS8_18_Mod_range_hashingENS8_20_Default_ranged_hashENS8_20_Prime_rehash_policyENS8_17_Hashtable_traitsILb0ELb0ELb1EEEE12_Scoped_nodeD2Ev
FNDA:0,_ZNSt10_HashtableImSt4pairIKmSt6vectorIS0_IbdESaIS3_EEESaIS6_ENSt8__detail10_Select1stESt8equal_toImESt4hashImENS8_18_Mod_range_hashingENS8_20_Default_ranged_hashENS8_20_Prime_rehash_policyENS8_17_Hashtable_traitsILb0ELb0ELb1EEEE12_Scoped_nodeD2Ev
FN:290,_ZNSt10_HashtableImSt4pairIKmSt6vectorIS2_IS0_IbdESaIS3_EESaIS5_EEESaIS8_ENSt8__detail10_Select1stESt8equal_toImESt4hashImENSA_18_Mod_range_hashingENSA_20_Default_ranged_hashENSA_20_Prime_rehash_policyENSA_17_Hashtable_traitsILb0ELb0ELb1EEEE12_Scoped_nodeD2Ev
FNDA:0,_ZNSt10_HashtableImSt4pairIKmSt6vectorIS2_IS0_IbdESaIS3_EESaIS5_EEESaIS8_ENSt8__detail10_Select1stESt8equal_toImESt4hashImENSA_18_Mod_range_hashingENSA_20_Default_ranged_hashENSA_20_Prime_rehash_policyENSA_17_Hashtable_traitsILb0ELb0ELb1EEEE12_Scoped_nodeD2Ev
FN:425,_ZNSt10_HashtableINSt7__cxx1112basic_stringIcSt11char_traitsIcESaIcEEESt4pairIKS5_St6vectorIP22MooseVariableFieldBaseSaISA_EEESaISD_ENSt8__detail10_Select1stESt8equal_toIS5_ESt4hashIS5_ENSF_18_Mod_range_hashingENSF_20_Default_ranged_hashENSF_20_Prime_rehash_policyENSF_17_Hashtable_traitsILb1ELb0ELb1EEEE21_M_deallocate_bucketsEv
FNDA:0,_ZNSt10_HashtableINSt7__cxx1112basic_stringIcSt11char_traitsIcESaIcEEESt4pairIKS5_St6vectorIP22MooseVariableFieldBaseSaISA_EEESaISD_ENSt8__detail10_Select1stESt8equal_toIS5_ESt4hashIS5_ENSF_18_Mod_range_hashingENSF_20_Default_ranged_hashENSF_20_Prime_rehash_policyENSF_17_Hashtable_traitsILb1ELb0ELb1EEEE21_M_deallocate_bucketsEv
FN:425,_ZNSt10_HashtableINSt7__cxx1112basic_stringIcSt11char_traitsIcESaIcEEESt4pairIKS5_St6vectorIP19MooseVariableScalarSaISA_EEESaISD_ENSt8__detail10_Select1stESt8equal_toIS5_ESt4hashIS5_ENSF_18_Mod_range_hashingENSF_20_Default_ranged_hashENSF_20_Prime_rehash_policyENSF_17_Hashtable_traitsILb1ELb0ELb1EEEE21_M_deallocate_bucketsEv
FNDA:0,_ZNSt10_HashtableINSt7__cxx1112basic_stringIcSt11char_traitsIcESaIcEEESt4pairIKS5_St6vectorIP19MooseVariableScalarSaISA_EEESaISD_ENSt8__detail10_Select1stESt8equal_toIS5_ESt4hashIS5_ENSF_18_Mod_range_hashingENSF_20_Default_ranged_hashENSF_20_Prime_rehash_policyENSF_17_Hashtable_traitsILb1ELb0ELb1EEEE21_M_deallocate_bucketsEv
FN:425,_ZNSt10_HashtableINSt7__cxx1112basic_stringIcSt11char_traitsIcESaIcEEESt4pairIKS5_St6vectorIjSaIjEEESaISB_ENSt8__detail10_Select1stESt8equal_toIS5_ESt4hashIS5_ENSD_18_Mod_range_hashingENSD_20_Default_ranged_hashENSD_20_Prime_rehash_policyENSD_17_Hashtable_traitsILb1ELb0ELb1EEEE21_M_deallocate_bucketsEv
FNDA:0,_ZNSt10_HashtableINSt7__cxx1112basic_stringIcSt11char_traitsIcESaIcEEESt4pairIKS5_St6vectorIjSaIjEEESaISB_ENSt8__detail10_Select1stESt8equal_toIS5_ESt4hashIS5_ENSD_18_Mod_range_hashingENSD_20_Default_ranged_hashENSD_20_Prime_rehash_policyENSD_17_Hashtable_traitsILb1ELb0ELb1EEEE21_M_deallocate_bucketsEv
FN:425,_ZNSt10_HashtableINSt7__cxx1112basic_stringIcSt11char_traitsIcESaIcEEESt4pairIKS5_St10unique_ptrI10MooseArrayIdESt14default_deleteISA_EEESaISE_ENSt8__detail10_Select1stESt8equal_toIS5_ESt4hashIS5_ENSG_18_Mod_range_hashingENSG_20_Default_ranged_hashENSG_20_Prime_rehash_policyENSG_17_Hashtable_traitsILb1ELb0ELb1EEEE21_M_deallocate_bucketsEv
FNDA:0,_ZNSt10_HashtableINSt7__cxx1112basic_stringIcSt11char_traitsIcESaIcEEESt4pairIKS5_St10unique_ptrI10MooseArrayIdESt14default_deleteISA_EEESaISE_ENSt8__detail10_Select1stESt8equal_toIS5_ESt4hashIS5_ENSG_18_Mod_range_hashingENSG_20_Default_ranged_hashENSG_20_Prime_rehash_policyENSG_17_Hashtable_traitsILb1ELb0ELb1EEEE21_M_deallocate_bucketsEv
FN:425,_ZNSt10_HashtableImSt4pairIKmSt6vectorIS0_IbdESaIS3_EEESaIS6_ENSt8__detail10_Select1stESt8equal_toImESt4hashImENS8_18_Mod_range_hashingENS8_20_Default_ranged_hashENS8_20_Prime_rehash_policyENS8_17_Hashtable_traitsILb0ELb0ELb1EEEE21_M_deallocate_bucketsEv
FNDA:0,_ZNSt10_HashtableImSt4pairIKmSt6vectorIS0_IbdESaIS3_EEESaIS6_ENSt8__detail10_Select1stESt8equal_toImESt4hashImENS8_18_Mod_range_hashingENS8_20_Default_ranged_hashENS8_20_Prime_rehash_policyENS8_17_Hashtable_traitsILb0ELb0ELb1EEEE21_M_deallocate_bucketsEv
FN:425,_ZNSt10_HashtableINSt7__cxx1112basic_stringIcSt11char_traitsIcESaIcEEESt4pairIKS5_St10unique_ptrI10MooseArrayIN7libMesh11VectorValueIN11MetaPhysicL10DualNumberIdNSC_28SemiDynamicSparseNumberArrayIdmNSC_8NWrapperILm64EEEEELb1EEEEEESt14default_deleteISK_EEESaISO_ENSt8__detail10_Select1stESt8equal_toIS5_ESt4hashIS5_ENSQ_18_Mod_range_hashingENSQ_20_Default_ranged_hashENSQ_20_Prime_rehash_policyENSQ_17_Hashtable_traitsILb1ELb0ELb1EEEE21_M_deallocate_bucketsEv
FNDA:0,_ZNSt10_HashtableINSt7__cxx1112basic_stringIcSt11char_traitsIcESaIcEEESt4pairIKS5_St10unique_ptrI10MooseArrayIN7libMesh11VectorValueIN11MetaPhysicL10DualNumberIdNSC_28SemiDynamicSparseNumberArrayIdmNSC_8NWrapperILm64EEEEELb1EEEEEESt14default_deleteISK_EEESaISO_ENSt8__detail10_Select1stESt8equal_toIS5_ESt4hashIS5_ENSQ_18_Mod_range_hashingENSQ_20_Default_ranged_hashENSQ_20_Prime_rehash_policyENSQ_17_Hashtable_traitsILb1ELb0ELb1EEEE21_M_deallocate_bucketsEv
FN:425,_ZNSt10_HashtableImSt4pairIKmSt6vectorIS2_IS0_IbdESaIS3_EESaIS5_EEESaIS8_ENSt8__detail10_Select1stESt8equal_toImESt4hashImENSA_18_Mod_range_hashingENSA_20_Default_ranged_hashENSA_20_Prime_rehash_policyENSA_17_Hashtable_traitsILb0ELb0ELb1EEEE21_M_deallocate_bucketsEv
FNDA:0,_ZNSt10_HashtableImSt4pairIKmSt6vectorIS2_IS0_IbdESaIS3_EESaIS5_EEESaIS8_ENSt8__detail10_Select1stESt8equal_toImESt4hashImENSA_18_Mod_range_hashingENSA_20_Default_ranged_hashENSA_20_Prime_rehash_policyENSA_17_Hashtable_traitsILb0ELb0ELb1EEEE21_M_deallocate_bucketsEv
FN:425,_ZNSt10_HashtableImSt4pairIKmSt6vectorIS0_IbN11MetaPhysicL10DualNumberIdNS3_28SemiDynamicSparseNumberArrayIdmNS3_8NWrapperILm64EEEEELb1EEEESaISA_EEESaISD_ENSt8__detail10_Select1stESt8equal_toImESt4hashImENSF_18_Mod_range_hashingENSF_20_Default_ranged_hashENSF_20_Prime_rehash_policyENSF_17_Hashtable_traitsILb0ELb0ELb1EEEE21_M_deallocate_bucketsEv
FNDA:0,_ZNSt10_HashtableImSt4pairIKmSt6vectorIS0_IbN11MetaPhysicL10DualNumberIdNS3_28SemiDynamicSparseNumberArrayIdmNS3_8NWrapperILm64EEEEELb1EEEESaISA_EEESaISD_ENSt8__detail10_Select1stESt8equal_toImESt4hashImENSF_18_Mod_range_hashingENSF_20_Default_ranged_hashENSF_20_Prime_rehash_policyENSF_17_Hashtable_traitsILb0ELb0ELb1EEEE21_M_deallocate_bucketsEv
FN:425,_ZNSt10_HashtableINSt7__cxx1112basic_stringIcSt11char_traitsIcESaIcEEESt4pairIKS5_St10unique_ptrI10MooseArrayIN5Eigen6MatrixIdLin1ELi1ELi0ELin1ELi1EEEESt14default_deleteISD_EEESaISH_ENSt8__detail10_Select1stESt8equal_toIS5_ESt4hashIS5_ENSJ_18_Mod_range_hashingENSJ_20_Default_ranged_hashENSJ_20_Prime_rehash_policyENSJ_17_Hashtable_traitsILb1ELb0ELb1EEEE21_M_deallocate_bucketsEv
FNDA:0,_ZNSt10_HashtableINSt7__cxx1112basic_stringIcSt11char_traitsIcESaIcEEESt4pairIKS5_St10unique_ptrI10MooseArrayIN5Eigen6MatrixIdLin1ELi1ELi0ELin1ELi1EEEESt14default_deleteISD_EEESaISH_ENSt8__detail10_Select1stESt8equal_toIS5_ESt4hashIS5_ENSJ_18_Mod_range_hashingENSJ_20_Default_ranged_hashENSJ_20_Prime_rehash_policyENSJ_17_Hashtable_traitsILb1ELb0ELb1EEEE21_M_deallocate_bucketsEv
FN:425,_ZNSt10_HashtableImSt4pairIKmSt6vectorIS2_IS0_IbN11MetaPhysicL10DualNumberIdNS3_28SemiDynamicSparseNumberArrayIdmNS3_8NWrapperILm64EEEEELb1EEEESaISA_EESaISC_EEESaISF_ENSt8__detail10_Select1stESt8equal_toImESt4hashImENSH_18_Mod_range_hashingENSH_20_Default_ranged_hashENSH_20_Prime_rehash_policyENSH_17_Hashtable_traitsILb0ELb0ELb1EEEE21_M_deallocate_bucketsEv
FNDA:0,_ZNSt10_HashtableImSt4pairIKmSt6vectorIS2_IS0_IbN11MetaPhysicL10DualNumberIdNS3_28SemiDynamicSparseNumberArrayIdmNS3_8NWrapperILm64EEEEELb1EEEESaISA_EESaISC_EEESaISF_ENSt8__detail10_Select1stESt8equal_toImESt4hashImENSH_18_Mod_range_hashingENSH_20_Default_ranged_hashENSH_20_Prime_rehash_policyENSH_17_Hashtable_traitsILb0ELb0ELb1EEEE21_M_deallocate_bucketsEv
FN:425,_ZNSt10_HashtableINSt7__cxx1112basic_stringIcSt11char_traitsIcESaIcEEESt4pairIKS5_S5_ESaIS8_ENSt8__detail10_Select1stESt8equal_toIS5_ESt4hashIS5_ENSA_18_Mod_range_hashingENSA_20_Default_ranged_hashENSA_20_Prime_rehash_policyENSA_17_Hashtable_traitsILb1ELb0ELb1EEEE21_M_deallocate_bucketsEv
FNDA:0,_ZNSt10_HashtableINSt7__cxx1112basic_stringIcSt11char_traitsIcESaIcEEESt4pairIKS5_S5_ESaIS8_ENSt8__detail10_Select1stESt8equal_toIS5_ESt4hashIS5_ENSA_18_Mod_range_hashingENSA_20_Default_ranged_hashENSA_20_Prime_rehash_policyENSA_17_Hashtable_traitsILb1ELb0ELb1EEEE21_M_deallocate_bucketsEv
FN:425,_ZNSt10_HashtableINSt7__cxx1112basic_stringIcSt11char_traitsIcESaIcEEESt4pairIKS5_St10unique_ptrI10MooseArrayIN7libMesh11VectorValueIdEEESt14default_deleteISD_EEESaISH_ENSt8__detail10_Select1stESt8equal_toIS5_ESt4hashIS5_ENSJ_18_Mod_range_hashingENSJ_20_Default_ranged_hashENSJ_20_Prime_rehash_policyENSJ_17_Hashtable_traitsILb1ELb0ELb1EEEE21_M_deallocate_bucketsEv
FNDA:0,_ZNSt10_HashtableINSt7__cxx1112basic_stringIcSt11char_traitsIcESaIcEEESt4pairIKS5_St10unique_ptrI10MooseArrayIN7libMesh11VectorValueIdEEESt14default_deleteISD_EEESaISH_ENSt8__detail10_Select1stESt8equal_toIS5_ESt4hashIS5_ENSJ_18_Mod_range_hashingENSJ_20_Default_ranged_hashENSJ_20_Prime_rehash_policyENSJ_17_Hashtable_traitsILb1ELb0ELb1EEEE21_M_deallocate_bucketsEv
FN:425,_ZNSt10_HashtableINSt7__cxx1112basic_stringIcSt11char_traitsIcESaIcEEESt4pairIKS5_St6vectorISt10unique_ptrI10MooseArrayIdESt14default_deleteISB_EESaISE_EEESaISH_ENSt8__detail10_Select1stESt8equal_toIS5_ESt4hashIS5_ENSJ_18_Mod_range_hashingENSJ_20_Default_ranged_hashENSJ_20_Prime_rehash_policyENSJ_17_Hashtable_traitsILb1ELb0ELb1EEEE21_M_deallocate_bucketsEv
FNDA:0,_ZNSt10_HashtableINSt7__cxx1112basic_stringIcSt11char_traitsIcESaIcEEESt4pairIKS5_St6vectorISt10unique_ptrI10MooseArrayIdESt14default_deleteISB_EESaISE_EEESaISH_ENSt8__detail10_Select1stESt8equal_toIS5_ESt4hashIS5_ENSJ_18_Mod_range_hashingENSJ_20_Default_ranged_hashENSJ_20_Prime_rehash_policyENSJ_17_Hashtable_traitsILb1ELb0ELb1EEEE21_M_deallocate_bucketsEv
FN:425,_ZNSt10_HashtableINSt7__cxx1112basic_stringIcSt11char_traitsIcESaIcEEESt4pairIKS5_St10unique_ptrI10MooseArrayIN11MetaPhysicL10DualNumberIdNSA_28SemiDynamicSparseNumberArrayIdmNSA_8NWrapperILm64EEEEELb1EEEESt14default_deleteISH_EEESaISL_ENSt8__detail10_Select1stESt8equal_toIS5_ESt4hashIS5_ENSN_18_Mod_range_hashingENSN_20_Default_ranged_hashENSN_20_Prime_rehash_policyENSN_17_Hashtable_traitsILb1ELb0ELb1EEEE21_M_deallocate_bucketsEv
FNDA:0,_ZNSt10_HashtableINSt7__cxx1112basic_stringIcSt11char_traitsIcESaIcEEESt4pairIKS5_St10unique_ptrI10MooseArrayIN11MetaPhysicL10DualNumberIdNSA_28SemiDynamicSparseNumberArrayIdmNSA_8NWrapperILm64EEEEELb1EEEESt14default_deleteISH_EEESaISL_ENSt8__detail10_Select1stESt8equal_toIS5_ESt4hashIS5_ENSN_18_Mod_range_hashingENSN_20_Default_ranged_hashENSN_20_Prime_rehash_policyENSN_17_Hashtable_traitsILb1ELb0ELb1EEEE21_M_deallocate_bucketsEv
FN:1622,_ZNKSt10_HashtableImSt4pairIKmSt6vectorIS0_IbN11MetaPhysicL10DualNumberIdNS3_28SemiDynamicSparseNumberArrayIdmNS3_8NWrapperILm64EEEEELb1EEEESaISA_EEESaISD_ENSt8__detail10_Select1stESt8equal_toImESt4hashImENSF_18_Mod_range_hashingENSF_20_Default_ranged_hashENSF_20_Prime_rehash_policyENSF_17_Hashtable_traitsILb0ELb0ELb1EEEE19_M_find_before_nodeEmRS1_m
FNDA:0,_ZNKSt10_HashtableImSt4pairIKmSt6vectorIS0_IbN11MetaPhysicL10DualNumberIdNS3_28SemiDynamicSparseNumberArrayIdmNS3_8NWrapperILm64EEEEELb1EEEESaISA_EEESaISD_ENSt8__detail10_Select1stESt8equal_toImESt4hashImENSF_18_Mod_range_hashingENSF_20_Default_ranged_hashENSF_20_Prime_rehash_policyENSF_17_Hashtable_traitsILb0ELb0ELb1EEEE19_M_find_before_nodeEmRS1_m
FN:1622,_ZNKSt10_HashtableImSt4pairIKmSt6vectorIS2_IS0_IbN11MetaPhysicL10DualNumberIdNS3_28SemiDynamicSparseNumberArrayIdmNS3_8NWrapperILm64EEEEELb1EEEESaISA_EESaISC_EEESaISF_ENSt8__detail10_Select1stESt8equal_toImESt4hashImENSH_18_Mod_range_hashingENSH_20_Default_ranged_hashENSH_20_Prime_rehash_policyENSH_17_Hashtable_traitsILb0ELb0ELb1EEEE19_M_find_before_nodeEmRS1_m
FNDA:0,_ZNKSt10_HashtableImSt4pairIKmSt6vectorIS2_IS0_IbN11MetaPhysicL10DualNumberIdNS3_28SemiDynamicSparseNumberArrayIdmNS3_8NWrapperILm64EEEEELb1EEEESaISA_EESaISC_EEESaISF_ENSt8__detail10_Select1stESt8equal_toImESt4hashImENSH_18_Mod_range_hashingENSH_20_Default_ranged_hashENSH_20_Prime_rehash_policyENSH_17_Hashtable_traitsILb0ELb0ELb1EEEE19_M_find_before_nodeEmRS1_m
FN:1622,_ZNKSt10_HashtableImSt4pairIKmSt6vectorIS2_IS0_IbdESaIS3_EESaIS5_EEESaIS8_ENSt8__detail10_Select1stESt8equal_toImESt4hashImENSA_18_Mod_range_hashingENSA_20_Default_ranged_hashENSA_20_Prime_rehash_policyENSA_17_Hashtable_traitsILb0ELb0ELb1EEEE19_M_find_before_nodeEmRS1_m
FNDA:0,_ZNKSt10_HashtableImSt4pairIKmSt6vectorIS2_IS0_IbdESaIS3_EESaIS5_EEESaIS8_ENSt8__detail10_Select1stESt8equal_toImESt4hashImENSA_18_Mod_range_hashingENSA_20_Default_ranged_hashENSA_20_Prime_rehash_policyENSA_17_Hashtable_traitsILb0ELb0ELb1EEEE19_M_find_before_nodeEmRS1_m
FN:1622,_ZNKSt10_HashtableImSt4pairIKmSt6vectorIS0_IbdESaIS3_EEESaIS6_ENSt8__detail10_Select1stESt8equal_toImESt4hashImENS8_18_Mod_range_hashingENS8_20_Default_ranged_hashENS8_20_Prime_rehash_policyENS8_17_Hashtable_traitsILb0ELb0ELb1EEEE19_M_find_before_nodeEmRS1_m
FNDA:0,_ZNKSt10_HashtableImSt4pairIKmSt6vectorIS0_IbdESaIS3_EEESaIS6_ENSt8__detail10_Select1stESt8equal_toImESt4hashImENS8_18_Mod_range_hashingENS8_20_Default_ranged_hashENS8_20_Prime_rehash_policyENS8_17_Hashtable_traitsILb0ELb0ELb1EEEE19_M_find_before_nodeEmRS1_m
FN:1650,_ZNSt10_HashtableImSt4pairIKmSt6vectorIS0_IbN11MetaPhysicL10DualNumberIdNS3_28SemiDynamicSparseNumberArrayIdmNS3_8NWrapperILm64EEEEELb1EEEESaISA_EEESaISD_ENSt8__detail10_Select1stESt8equal_toImESt4hashImENSF_18_Mod_range_hashingENSF_20_Default_ranged_hashENSF_20_Prime_rehash_policyENSF_17_Hashtable_traitsILb0ELb0ELb1EEEE22_M_insert_bucket_beginEmPNSF_10_Hash_nodeISD_Lb0EEE
FNDA:0,_ZNSt10_HashtableImSt4pairIKmSt6vectorIS0_IbN11MetaPhysicL10DualNumberIdNS3_28SemiDynamicSparseNumberArrayIdmNS3_8NWrapperILm64EEEEELb1EEEESaISA_EEESaISD_ENSt8__detail10_Select1stESt8equal_toImESt4hashImENSF_18_Mod_range_hashingENSF_20_Default_ranged_hashENSF_20_Prime_rehash_policyENSF_17_Hashtable_traitsILb0ELb0ELb1EEEE22_M_insert_bucket_beginEmPNSF_10_Hash_nodeISD_Lb0EEE
FN:1650,_ZNSt10_HashtableImSt4pairIKmSt6vectorIS2_IS0_IbdESaIS3_EESaIS5_EEESaIS8_ENSt8__detail10_Select1stESt8equal_toImESt4hashImENSA_18_Mod_range_hashingENSA_20_Default_ranged_hashENSA_20_Prime_rehash_policyENSA_17_Hashtable_traitsILb0ELb0ELb1EEEE22_M_insert_bucket_beginEmPNSA_10_Hash_nodeIS8_Lb0EEE
FNDA:0,_ZNSt10_HashtableImSt4pairIKmSt6vectorIS2_IS0_IbdESaIS3_EESaIS5_EEESaIS8_ENSt8__detail10_Select1stESt8equal_toImESt4hashImENSA_18_Mod_range_hashingENSA_20_Default_ranged_hashENSA_20_Prime_rehash_policyENSA_17_Hashtable_traitsILb0ELb0ELb1EEEE22_M_insert_bucket_beginEmPNSA_10_Hash_nodeIS8_Lb0EEE
FN:1650,_ZNSt10_HashtableImSt4pairIKmSt6vectorIS0_IbdESaIS3_EEESaIS6_ENSt8__detail10_Select1stESt8equal_toImESt4hashImENS8_18_Mod_range_hashingENS8_20_Default_ranged_hashENS8_20_Prime_rehash_policyENS8_17_Hashtable_traitsILb0ELb0ELb1EEEE22_M_insert_bucket_beginEmPNS8_10_Hash_nodeIS6_Lb0EEE
FNDA:0,_ZNSt10_HashtableImSt4pairIKmSt6vectorIS0_IbdESaIS3_EEESaIS6_ENSt8__detail10_Select1stESt8equal_toImESt4hashImENS8_18_Mod_range_hashingENS8_20_Default_ranged_hashENS8_20_Prime_rehash_policyENS8_17_Hashtable_traitsILb0ELb0ELb1EEEE22_M_insert_bucket_beginEmPNS8_10_Hash_nodeIS6_Lb0EEE
FN:1650,_ZNSt10_HashtableImSt4pairIKmSt6vectorIS2_IS0_IbN11MetaPhysicL10DualNumberIdNS3_28SemiDynamicSparseNumberArrayIdmNS3_8NWrapperILm64EEEEELb1EEEESaISA_EESaISC_EEESaISF_ENSt8__detail10_Select1stESt8equal_toImESt4hashImENSH_18_Mod_range_hashingENSH_20_Default_ranged_hashENSH_20_Prime_rehash_policyENSH_17_Hashtable_traitsILb0ELb0ELb1EEEE22_M_insert_bucket_beginEmPNSH_10_Hash_nodeISF_Lb0EEE
FNDA:0,_ZNSt10_HashtableImSt4pairIKmSt6vectorIS2_IS0_IbN11MetaPhysicL10DualNumberIdNS3_28SemiDynamicSparseNumberArrayIdmNS3_8NWrapperILm64EEEEELb1EEEESaISA_EESaISC_EEESaISF_ENSt8__detail10_Select1stESt8equal_toImESt4hashImENSH_18_Mod_range_hashingENSH_20_Default_ranged_hashENSH_20_Prime_rehash_policyENSH_17_Hashtable_traitsILb0ELb0ELb1EEEE22_M_insert_bucket_beginEmPNSH_10_Hash_nodeISF_Lb0EEE
FN:1769,_ZNSt10_HashtableImSt4pairIKmSt6vectorIS2_IS0_IbdESaIS3_EESaIS5_EEESaIS8_ENSt8__detail10_Select1stESt8equal_toImESt4hashImENSA_18_Mod_range_hashingENSA_20_Default_ranged_hashENSA_20_Prime_rehash_policyENSA_17_Hashtable_traitsILb0ELb0ELb1EEEE21_M_insert_unique_nodeERS1_mmPNSA_10_Hash_nodeIS8_Lb0EEEm
FNDA:0,_ZNSt10_HashtableImSt4pairIKmSt6vectorIS2_IS0_IbdESaIS3_EESaIS5_EEESaIS8_ENSt8__detail10_Select1stESt8equal_toImESt4hashImENSA_18_Mod_range_hashingENSA_20_Default_ranged_hashENSA_20_Prime_rehash_policyENSA_17_Hashtable_traitsILb0ELb0ELb1EEEE21_M_insert_unique_nodeERS1_mmPNSA_10_Hash_nodeIS8_Lb0EEEm
FN:1769,_ZNSt10_HashtableImSt4pairIKmSt6vectorIS0_IbN11MetaPhysicL10DualNumberIdNS3_28SemiDynamicSparseNumberArrayIdmNS3_8NWrapperILm64EEEEELb1EEEESaISA_EEESaISD_ENSt8__detail10_Select1stESt8equal_toImESt4hashImENSF_18_Mod_range_hashingENSF_20_Default_ranged_hashENSF_20_Prime_rehash_policyENSF_17_Hashtable_traitsILb0ELb0ELb1EEEE21_M_insert_unique_nodeERS1_mmPNSF_10_Hash_nodeISD_Lb0EEEm
FNDA:0,_ZNSt10_HashtableImSt4pairIKmSt6vectorIS0_IbN11MetaPhysicL10DualNumberIdNS3_28SemiDynamicSparseNumberArrayIdmNS3_8NWrapperILm64EEEEELb1EEEESaISA_EEESaISD_ENSt8__detail10_Select1stESt8equal_toImESt4hashImENSF_18_Mod_range_hashingENSF_20_Default_ranged_hashENSF_20_Prime_rehash_policyENSF_17_Hashtable_traitsILb0ELb0ELb1EEEE21_M_insert_unique_nodeERS1_mmPNSF_10_Hash_nodeISD_Lb0EEEm
FN:1769,_ZNSt10_HashtableImSt4pairIKmSt6vectorIS2_IS0_IbN11MetaPhysicL10DualNumberIdNS3_28SemiDynamicSparseNumberArrayIdmNS3_8NWrapperILm64EEEEELb1EEEESaISA_EESaISC_EEESaISF_ENSt8__detail10_Select1stESt8equal_toImESt4hashImENSH_18_Mod_range_hashingENSH_20_Default_ranged_hashENSH_20_Prime_rehash_policyENSH_17_Hashtable_traitsILb0ELb0ELb1EEEE21_M_insert_unique_nodeERS1_mmPNSH_10_Hash_nodeISF_Lb0EEEm
FNDA:0,_ZNSt10_HashtableImSt4pairIKmSt6vectorIS2_IS0_IbN11MetaPhysicL10DualNumberIdNS3_28SemiDynamicSparseNumberArrayIdmNS3_8NWrapperILm64EEEEELb1EEEESaISA_EESaISC_EEESaISF_ENSt8__detail10_Select1stESt8equal_toImESt4hashImENSH_18_Mod_range_hashingENSH_20_Default_ranged_hashENSH_20_Prime_rehash_policyENSH_17_Hashtable_traitsILb0ELb0ELb1EEEE21_M_insert_unique_nodeERS1_mmPNSH_10_Hash_nodeISF_Lb0EEEm
FN:1769,_ZNSt10_HashtableImSt4pairIKmSt6vectorIS0_IbdESaIS3_EEESaIS6_ENSt8__detail10_Select1stESt8equal_toImESt4hashImENS8_18_Mod_range_hashingENS8_20_Default_ranged_hashENS8_20_Prime_rehash_policyENS8_17_Hashtable_traitsILb0ELb0ELb1EEEE21_M_insert_unique_nodeERS1_mmPNS8_10_Hash_nodeIS6_Lb0EEEm
FNDA:0,_ZNSt10_HashtableImSt4pairIKmSt6vectorIS0_IbdESaIS3_EEESaIS6_ENSt8__detail10_Select1stESt8equal_toImESt4hashImENS8_18_Mod_range_hashingENS8_20_Default_ranged_hashENS8_20_Prime_rehash_policyENS8_17_Hashtable_traitsILb0ELb0ELb1EEEE21_M_insert_unique_nodeERS1_mmPNS8_10_Hash_nodeIS6_Lb0EEEm
FN:2081,_ZNSt10_HashtableINSt7__cxx1112basic_stringIcSt11char_traitsIcESaIcEEESt4pairIKS5_St10unique_ptrI10MooseArrayIN5Eigen6MatrixIdLin1ELi1ELi0ELin1ELi1EEEESt14default_deleteISD_EEESaISH_ENSt8__detail10_Select1stESt8equal_toIS5_ESt4hashIS5_ENSJ_18_Mod_range_hashingENSJ_20_Default_ranged_hashENSJ_20_Prime_rehash_policyENSJ_17_Hashtable_traitsILb1ELb0ELb1EEEE5clearEv
FNDA:0,_ZNSt10_HashtableINSt7__cxx1112basic_stringIcSt11char_traitsIcESaIcEEESt4pairIKS5_St10unique_ptrI10MooseArrayIN5Eigen6MatrixIdLin1ELi1ELi0ELin1ELi1EEEESt14default_deleteISD_EEESaISH_ENSt8__detail10_Select1stESt8equal_toIS5_ESt4hashIS5_ENSJ_18_Mod_range_hashingENSJ_20_Default_ranged_hashENSJ_20_Prime_rehash_policyENSJ_17_Hashtable_traitsILb1ELb0ELb1EEEE5clearEv
FN:2081,_ZNSt10_HashtableINSt7__cxx1112basic_stringIcSt11char_traitsIcESaIcEEESt4pairIKS5_St10unique_ptrI10MooseArrayIN7libMesh11VectorValueIdEEESt14default_deleteISD_EEESaISH_ENSt8__detail10_Select1stESt8equal_toIS5_ESt4hashIS5_ENSJ_18_Mod_range_hashingENSJ_20_Default_ranged_hashENSJ_20_Prime_rehash_policyENSJ_17_Hashtable_traitsILb1ELb0ELb1EEEE5clearEv
FNDA:0,_ZNSt10_HashtableINSt7__cxx1112basic_stringIcSt11char_traitsIcESaIcEEESt4pairIKS5_St10unique_ptrI10MooseArrayIN7libMesh11VectorValueIdEEESt14default_deleteISD_EEESaISH_ENSt8__detail10_Select1stESt8equal_toIS5_ESt4hashIS5_ENSJ_18_Mod_range_hashingENSJ_20_Default_ranged_hashENSJ_20_Prime_rehash_policyENSJ_17_Hashtable_traitsILb1ELb0ELb1EEEE5clearEv
FN:2081,_ZNSt10_HashtableINSt7__cxx1112basic_stringIcSt11char_traitsIcESaIcEEESt4pairIKS5_St10unique_ptrI10MooseArrayIN7libMesh11VectorValueIN11MetaPhysicL10DualNumberIdNSC_28SemiDynamicSparseNumberArrayIdmNSC_8NWrapperILm64EEEEELb1EEEEEESt14default_deleteISK_EEESaISO_ENSt8__detail10_Select1stESt8equal_toIS5_ESt4hashIS5_ENSQ_18_Mod_range_hashingENSQ_20_Default_ranged_hashENSQ_20_Prime_rehash_policyENSQ_17_Hashtable_traitsILb1ELb0ELb1EEEE5clearEv
FNDA:0,_ZNSt10_HashtableINSt7__cxx1112basic_stringIcSt11char_traitsIcESaIcEEESt4pairIKS5_St10unique_ptrI10MooseArrayIN7libMesh11VectorValueIN11MetaPhysicL10DualNumberIdNSC_28SemiDynamicSparseNumberArrayIdmNSC_8NWrapperILm64EEEEELb1EEEEEESt14default_deleteISK_EEESaISO_ENSt8__detail10_Select1stESt8equal_toIS5_ESt4hashIS5_ENSQ_18_Mod_range_hashingENSQ_20_Default_ranged_hashENSQ_20_Prime_rehash_policyENSQ_17_Hashtable_traitsILb1ELb0ELb1EEEE5clearEv
FN:2081,_ZNSt10_HashtableINSt7__cxx1112basic_stringIcSt11char_traitsIcESaIcEEESt4pairIKS5_St10unique_ptrI10MooseArrayIN11MetaPhysicL10DualNumberIdNSA_28SemiDynamicSparseNumberArrayIdmNSA_8NWrapperILm64EEEEELb1EEEESt14default_deleteISH_EEESaISL_ENSt8__detail10_Select1stESt8equal_toIS5_ESt4hashIS5_ENSN_18_Mod_range_hashingENSN_20_Default_ranged_hashENSN_20_Prime_rehash_policyENSN_17_Hashtable_traitsILb1ELb0ELb1EEEE5clearEv
FNDA:0,_ZNSt10_HashtableINSt7__cxx1112basic_stringIcSt11char_traitsIcESaIcEEESt4pairIKS5_St10unique_ptrI10MooseArrayIN11MetaPhysicL10DualNumberIdNSA_28SemiDynamicSparseNumberArrayIdmNSA_8NWrapperILm64EEEEELb1EEEESt14default_deleteISH_EEESaISL_ENSt8__detail10_Select1stESt8equal_toIS5_ESt4hashIS5_ENSN_18_Mod_range_hashingENSN_20_Default_ranged_hashENSN_20_Prime_rehash_policyENSN_17_Hashtable_traitsILb1ELb0ELb1EEEE5clearEv
FN:2081,_ZNSt10_HashtableINSt7__cxx1112basic_stringIcSt11char_traitsIcESaIcEEESt4pairIKS5_St6vectorIjSaIjEEESaISB_ENSt8__detail10_Select1stESt8equal_toIS5_ESt4hashIS5_ENSD_18_Mod_range_hashingENSD_20_Default_ranged_hashENSD_20_Prime_rehash_policyENSD_17_Hashtable_traitsILb1ELb0ELb1EEEE5clearEv
FNDA:0,_ZNSt10_HashtableINSt7__cxx1112basic_stringIcSt11char_traitsIcESaIcEEESt4pairIKS5_St6vectorIjSaIjEEESaISB_ENSt8__detail10_Select1stESt8equal_toIS5_ESt4hashIS5_ENSD_18_Mod_range_hashingENSD_20_Default_ranged_hashENSD_20_Prime_rehash_policyENSD_17_Hashtable_traitsILb1ELb0ELb1EEEE5clearEv
FN:2081,_ZNSt10_HashtableINSt7__cxx1112basic_stringIcSt11char_traitsIcESaIcEEESt4pairIKS5_St6vectorISt10unique_ptrI10MooseArrayIdESt14default_deleteISB_EESaISE_EEESaISH_ENSt8__detail10_Select1stESt8equal_toIS5_ESt4hashIS5_ENSJ_18_Mod_range_hashingENSJ_20_Default_ranged_hashENSJ_20_Prime_rehash_policyENSJ_17_Hashtable_traitsILb1ELb0ELb1EEEE5clearEv
FNDA:0,_ZNSt10_HashtableINSt7__cxx1112basic_stringIcSt11char_traitsIcESaIcEEESt4pairIKS5_St6vectorISt10unique_ptrI10MooseArrayIdESt14default_deleteISB_EESaISE_EEESaISH_ENSt8__detail10_Select1stESt8equal_toIS5_ESt4hashIS5_ENSJ_18_Mod_range_hashingENSJ_20_Default_ranged_hashENSJ_20_Prime_rehash_policyENSJ_17_Hashtable_traitsILb1ELb0ELb1EEEE5clearEv
FN:2081,_ZNSt10_HashtableINSt7__cxx1112basic_stringIcSt11char_traitsIcESaIcEEESt4pairIKS5_St6vectorIP22MooseVariableFieldBaseSaISA_EEESaISD_ENSt8__detail10_Select1stESt8equal_toIS5_ESt4hashIS5_ENSF_18_Mod_range_hashingENSF_20_Default_ranged_hashENSF_20_Prime_rehash_policyENSF_17_Hashtable_traitsILb1ELb0ELb1EEEE5clearEv
FNDA:0,_ZNSt10_HashtableINSt7__cxx1112basic_stringIcSt11char_traitsIcESaIcEEESt4pairIKS5_St6vectorIP22MooseVariableFieldBaseSaISA_EEESaISD_ENSt8__detail10_Select1stESt8equal_toIS5_ESt4hashIS5_ENSF_18_Mod_range_hashingENSF_20_Default_ranged_hashENSF_20_Prime_rehash_policyENSF_17_Hashtable_traitsILb1ELb0ELb1EEEE5clearEv
FN:2081,_ZNSt10_HashtableINSt7__cxx1112basic_stringIcSt11char_traitsIcESaIcEEESt4pairIKS5_St6vectorIP19MooseVariableScalarSaISA_EEESaISD_ENSt8__detail10_Select1stESt8equal_toIS5_ESt4hashIS5_ENSF_18_Mod_range_hashingENSF_20_Default_ranged_hashENSF_20_Prime_rehash_policyENSF_17_Hashtable_traitsILb1ELb0ELb1EEEE5clearEv
FNDA:0,_ZNSt10_HashtableINSt7__cxx1112basic_stringIcSt11char_traitsIcESaIcEEESt4pairIKS5_St6vectorIP19MooseVariableScalarSaISA_EEESaISD_ENSt8__detail10_Select1stESt8equal_toIS5_ESt4hashIS5_ENSF_18_Mod_range_hashingENSF_20_Default_ranged_hashENSF_20_Prime_rehash_policyENSF_17_Hashtable_traitsILb1ELb0ELb1EEEE5clearEv
FN:2081,_ZNSt10_HashtableINSt7__cxx1112basic_stringIcSt11char_traitsIcESaIcEEESt4pairIKS5_St10unique_ptrI10MooseArrayIdESt14default_deleteISA_EEESaISE_ENSt8__detail10_Select1stESt8equal_toIS5_ESt4hashIS5_ENSG_18_Mod_range_hashingENSG_20_Default_ranged_hashENSG_20_Prime_rehash_policyENSG_17_Hashtable_traitsILb1ELb0ELb1EEEE5clearEv
FNDA:0,_ZNSt10_HashtableINSt7__cxx1112basic_stringIcSt11char_traitsIcESaIcEEESt4pairIKS5_St10unique_ptrI10MooseArrayIdESt14default_deleteISA_EEESaISE_ENSt8__detail10_Select1stESt8equal_toIS5_ESt4hashIS5_ENSG_18_Mod_range_hashingENSG_20_Default_ranged_hashENSG_20_Prime_rehash_policyENSG_17_Hashtable_traitsILb1ELb0ELb1EEEE5clearEv
FN:2081,_ZNSt10_HashtableImSt4pairIKmSt6vectorIS0_IbdESaIS3_EEESaIS6_ENSt8__detail10_Select1stESt8equal_toImESt4hashImENS8_18_Mod_range_hashingENS8_20_Default_ranged_hashENS8_20_Prime_rehash_policyENS8_17_Hashtable_traitsILb0ELb0ELb1EEEE5clearEv
FNDA:0,_ZNSt10_HashtableImSt4pairIKmSt6vectorIS0_IbdESaIS3_EEESaIS6_ENSt8__detail10_Select1stESt8equal_toImESt4hashImENS8_18_Mod_range_hashingENS8_20_Default_ranged_hashENS8_20_Prime_rehash_policyENS8_17_Hashtable_traitsILb0ELb0ELb1EEEE5clearEv
FN:2081,_ZNSt10_HashtableImSt4pairIKmSt6vectorIS2_IS0_IbdESaIS3_EESaIS5_EEESaIS8_ENSt8__detail10_Select1stESt8equal_toImESt4hashImENSA_18_Mod_range_hashingENSA_20_Default_ranged_hashENSA_20_Prime_rehash_policyENSA_17_Hashtable_traitsILb0ELb0ELb1EEEE5clearEv
FNDA:0,_ZNSt10_HashtableImSt4pairIKmSt6vectorIS2_IS0_IbdESaIS3_EESaIS5_EEESaIS8_ENSt8__detail10_Select1stESt8equal_toImESt4hashImENSA_18_Mod_range_hashingENSA_20_Default_ranged_hashENSA_20_Prime_rehash_policyENSA_17_Hashtable_traitsILb0ELb0ELb1EEEE5clearEv
FN:2081,_ZNSt10_HashtableImSt4pairIKmSt6vectorIS0_IbN11MetaPhysicL10DualNumberIdNS3_28SemiDynamicSparseNumberArrayIdmNS3_8NWrapperILm64EEEEELb1EEEESaISA_EEESaISD_ENSt8__detail10_Select1stESt8equal_toImESt4hashImENSF_18_Mod_range_hashingENSF_20_Default_ranged_hashENSF_20_Prime_rehash_policyENSF_17_Hashtable_traitsILb0ELb0ELb1EEEE5clearEv
FNDA:0,_ZNSt10_HashtableImSt4pairIKmSt6vectorIS0_IbN11MetaPhysicL10DualNumberIdNS3_28SemiDynamicSparseNumberArrayIdmNS3_8NWrapperILm64EEEEELb1EEEESaISA_EEESaISD_ENSt8__detail10_Select1stESt8equal_toImESt4hashImENSF_18_Mod_range_hashingENSF_20_Default_ranged_hashENSF_20_Prime_rehash_policyENSF_17_Hashtable_traitsILb0ELb0ELb1EEEE5clearEv
FN:2081,_ZNSt10_HashtableImSt4pairIKmSt6vectorIS2_IS0_IbN11MetaPhysicL10DualNumberIdNS3_28SemiDynamicSparseNumberArrayIdmNS3_8NWrapperILm64EEEEELb1EEEESaISA_EESaISC_EEESaISF_ENSt8__detail10_Select1stESt8equal_toImESt4hashImENSH_18_Mod_range_hashingENSH_20_Default_ranged_hashENSH_20_Prime_rehash_policyENSH_17_Hashtable_traitsILb0ELb0ELb1EEEE5clearEv
FNDA:0,_ZNSt10_HashtableImSt4pairIKmSt6vectorIS2_IS0_IbN11MetaPhysicL10DualNumberIdNS3_28SemiDynamicSparseNumberArrayIdmNS3_8NWrapperILm64EEEEELb1EEEESaISA_EESaISC_EEESaISF_ENSt8__detail10_Select1stESt8equal_toImESt4hashImENSH_18_Mod_range_hashingENSH_20_Default_ranged_hashENSH_20_Prime_rehash_policyENSH_17_Hashtable_traitsILb0ELb0ELb1EEEE5clearEv
FN:2081,_ZNSt10_HashtableINSt7__cxx1112basic_stringIcSt11char_traitsIcESaIcEEESt4pairIKS5_S5_ESaIS8_ENSt8__detail10_Select1stESt8equal_toIS5_ESt4hashIS5_ENSA_18_Mod_range_hashingENSA_20_Default_ranged_hashENSA_20_Prime_rehash_policyENSA_17_Hashtable_traitsILb1ELb0ELb1EEEE5clearEv
FNDA:0,_ZNSt10_HashtableINSt7__cxx1112basic_stringIcSt11char_traitsIcESaIcEEESt4pairIKS5_S5_ESaIS8_ENSt8__detail10_Select1stESt8equal_toIS5_ESt4hashIS5_ENSA_18_Mod_range_hashingENSA_20_Default_ranged_hashENSA_20_Prime_rehash_policyENSA_17_Hashtable_traitsILb1ELb0ELb1EEEE5clearEv
FN:2119,_ZNSt10_HashtableImSt4pairIKmSt6vectorIS0_IbN11MetaPhysicL10DualNumberIdNS3_28SemiDynamicSparseNumberArrayIdmNS3_8NWrapperILm64EEEEELb1EEEESaISA_EEESaISD_ENSt8__detail10_Select1stESt8equal_toImESt4hashImENSF_18_Mod_range_hashingENSF_20_Default_ranged_hashENSF_20_Prime_rehash_policyENSF_17_Hashtable_traitsILb0ELb0ELb1EEEE9_M_rehashEmRS1_
FNDA:0,_ZNSt10_HashtableImSt4pairIKmSt6vectorIS0_IbN11MetaPhysicL10DualNumberIdNS3_28SemiDynamicSparseNumberArrayIdmNS3_8NWrapperILm64EEEEELb1EEEESaISA_EEESaISD_ENSt8__detail10_Select1stESt8equal_toImESt4hashImENSF_18_Mod_range_hashingENSF_20_Default_ranged_hashENSF_20_Prime_rehash_policyENSF_17_Hashtable_traitsILb0ELb0ELb1EEEE9_M_rehashEmRS1_
FN:2119,_ZNSt10_HashtableImSt4pairIKmSt6vectorIS2_IS0_IbN11MetaPhysicL10DualNumberIdNS3_28SemiDynamicSparseNumberArrayIdmNS3_8NWrapperILm64EEEEELb1EEEESaISA_EESaISC_EEESaISF_ENSt8__detail10_Select1stESt8equal_toImESt4hashImENSH_18_Mod_range_hashingENSH_20_Default_ranged_hashENSH_20_Prime_rehash_policyENSH_17_Hashtable_traitsILb0ELb0ELb1EEEE9_M_rehashEmRS1_
FNDA:0,_ZNSt10_HashtableImSt4pairIKmSt6vectorIS2_IS0_IbN11MetaPhysicL10DualNumberIdNS3_28SemiDynamicSparseNumberArrayIdmNS3_8NWrapperILm64EEEEELb1EEEESaISA_EESaISC_EEESaISF_ENSt8__detail10_Select1stESt8equal_toImESt4hashImENSH_18_Mod_range_hashingENSH_20_Default_ranged_hashENSH_20_Prime_rehash_policyENSH_17_Hashtable_traitsILb0ELb0ELb1EEEE9_M_rehashEmRS1_
FN:2119,_ZNSt10_HashtableImSt4pairIKmSt6vectorIS0_IbdESaIS3_EEESaIS6_ENSt8__detail10_Select1stESt8equal_toImESt4hashImENS8_18_Mod_range_hashingENS8_20_Default_ranged_hashENS8_20_Prime_rehash_policyENS8_17_Hashtable_traitsILb0ELb0ELb1EEEE9_M_rehashEmRS1_
FNDA:0,_ZNSt10_HashtableImSt4pairIKmSt6vectorIS0_IbdESaIS3_EEESaIS6_ENSt8__detail10_Select1stESt8equal_toImESt4hashImENS8_18_Mod_range_hashingENS8_20_Default_ranged_hashENS8_20_Prime_rehash_policyENS8_17_Hashtable_traitsILb0ELb0ELb1EEEE9_M_rehashEmRS1_
FN:2119,_ZNSt10_HashtableImSt4pairIKmSt6vectorIS2_IS0_IbdESaIS3_EESaIS5_EEESaIS8_ENSt8__detail10_Select1stESt8equal_toImESt4hashImENSA_18_Mod_range_hashingENSA_20_Default_ranged_hashENSA_20_Prime_rehash_policyENSA_17_Hashtable_traitsILb0ELb0ELb1EEEE9_M_rehashEmRS1_
FNDA:0,_ZNSt10_HashtableImSt4pairIKmSt6vectorIS2_IS0_IbdESaIS3_EESaIS5_EEESaIS8_ENSt8__detail10_Select1stESt8equal_toImESt4hashImENSA_18_Mod_range_hashingENSA_20_Default_ranged_hashENSA_20_Prime_rehash_policyENSA_17_Hashtable_traitsILb0ELb0ELb1EEEE9_M_rehashEmRS1_
FN:2142,_ZNSt10_HashtableImSt4pairIKmSt6vectorIS0_IbN11MetaPhysicL10DualNumberIdNS3_28SemiDynamicSparseNumberArrayIdmNS3_8NWrapperILm64EEEEELb1EEEESaISA_EEESaISD_ENSt8__detail10_Select1stESt8equal_toImESt4hashImENSF_18_Mod_range_hashingENSF_20_Default_ranged_hashENSF_20_Prime_rehash_policyENSF_17_Hashtable_traitsILb0ELb0ELb1EEEE13_M_rehash_auxEmSt17integral_constantIbLb1EE
FNDA:0,_ZNSt10_HashtableImSt4pairIKmSt6vectorIS0_IbN11MetaPhysicL10DualNumberIdNS3_28SemiDynamicSparseNumberArrayIdmNS3_8NWrapperILm64EEEEELb1EEEESaISA_EEESaISD_ENSt8__detail10_Select1stESt8equal_toImESt4hashImENSF_18_Mod_range_hashingENSF_20_Default_ranged_hashENSF_20_Prime_rehash_policyENSF_17_Hashtable_traitsILb0ELb0ELb1EEEE13_M_rehash_auxEmSt17integral_constantIbLb1EE
FN:2142,_ZNSt10_HashtableImSt4pairIKmSt6vectorIS2_IS0_IbN11MetaPhysicL10DualNumberIdNS3_28SemiDynamicSparseNumberArrayIdmNS3_8NWrapperILm64EEEEELb1EEEESaISA_EESaISC_EEESaISF_ENSt8__detail10_Select1stESt8equal_toImESt4hashImENSH_18_Mod_range_hashingENSH_20_Default_ranged_hashENSH_20_Prime_rehash_policyENSH_17_Hashtable_traitsILb0ELb0ELb1EEEE13_M_rehash_auxEmSt17integral_constantIbLb1EE
FNDA:0,_ZNSt10_HashtableImSt4pairIKmSt6vectorIS2_IS0_IbN11MetaPhysicL10DualNumberIdNS3_28SemiDynamicSparseNumberArrayIdmNS3_8NWrapperILm64EEEEELb1EEEESaISA_EESaISC_EEESaISF_ENSt8__detail10_Select1stESt8equal_toImESt4hashImENSH_18_Mod_range_hashingENSH_20_Default_ranged_hashENSH_20_Prime_rehash_policyENSH_17_Hashtable_traitsILb0ELb0ELb1EEEE13_M_rehash_auxEmSt17integral_constantIbLb1EE
FN:2142,_ZNSt10_HashtableImSt4pairIKmSt6vectorIS0_IbdESaIS3_EEESaIS6_ENSt8__detail10_Select1stESt8equal_toImESt4hashImENS8_18_Mod_range_hashingENS8_20_Default_ranged_hashENS8_20_Prime_rehash_policyENS8_17_Hashtable_traitsILb0ELb0ELb1EEEE13_M_rehash_auxEmSt17integral_constantIbLb1EE
FNDA:0,_ZNSt10_HashtableImSt4pairIKmSt6vectorIS0_IbdESaIS3_EEESaIS6_ENSt8__detail10_Select1stESt8equal_toImESt4hashImENS8_18_Mod_range_hashingENS8_20_Default_ranged_hashENS8_20_Prime_rehash_policyENS8_17_Hashtable_traitsILb0ELb0ELb1EEEE13_M_rehash_auxEmSt17integral_constantIbLb1EE
FN:2142,_ZNSt10_HashtableImSt4pairIKmSt6vectorIS2_IS0_IbdESaIS3_EESaIS5_EEESaIS8_ENSt8__detail10_Select1stESt8equal_toImESt4hashImENSA_18_Mod_range_hashingENSA_20_Default_ranged_hashENSA_20_Prime_rehash_policyENSA_17_Hashtable_traitsILb0ELb0ELb1EEEE13_M_rehash_auxEmSt17integral_constantIbLb1EE
FNDA:0,_ZNSt10_HashtableImSt4pairIKmSt6vectorIS2_IS0_IbdESaIS3_EESaIS5_EEESaIS8_ENSt8__detail10_Select1stESt8equal_toImESt4hashImENSA_18_Mod_range_hashingENSA_20_Default_ranged_hashENSA_20_Prime_rehash_policyENSA_17_Hashtable_traitsILb0ELb0ELb1EEEE13_M_rehash_auxEmSt17integral_constantIbLb1EE
FNF:52
FNH:0
DA:284,0
DA:286,0
DA:290,0
DA:290,0
DA:290,0
DA:290,0
DA:394,0
DA:406,0
DA:408,0
DA:409,0
DA:412,0
DA:418,0
DA:425,0
DA:426,0
DA:425,0
DA:426,0
DA:425,0
DA:426,0
DA:425,0
DA:426,0
DA:425,0
DA:426,0
DA:425,0
DA:426,0
DA:425,0
DA:426,0
DA:425,0
DA:426,0
DA:425,0
DA:426,0
DA:425,0
DA:426,0
DA:425,0
DA:426,0
DA:425,0
DA:426,0
DA:425,0
DA:426,0
DA:425,0
DA:426,0
DA:435,0
DA:726,0
DA:730,0
DA:741,0
DA:742,0
DA:743,0
DA:1442,0
DA:1443,0
DA:1622,0
DA:1628,0
DA:1629,0
DA:1632,0
DA:1636,0
DA:1638,0
DA:1622,0
DA:1628,0
DA:1629,0
DA:1632,0
DA:1636,0
DA:1638,0
DA:1622,0
DA:1628,0
DA:1629,0
DA:1632,0
DA:1636,0
DA:1638,0
DA:1622,0
DA:1628,0
DA:1629,0
DA:1632,0
DA:1636,0
DA:1638,0
DA:1650,0
DA:1654,0
DA:1658,0
DA:1659,0
DA:1666,0
DA:1667,0
DA:1668,0
DA:1671,0
DA:1672,0
DA:1674,0
DA:1650,0
DA:1654,0
DA:1658,0
DA:1659,0
DA:1666,0
DA:1667,0
DA:1668,0
DA:1671,0
DA:1672,0
DA:1674,0
DA:1650,0
DA:1654,0
DA:1658,0
DA:1659,0
DA:1666,0
DA:1667,0
DA:1668,0
DA:1671,0
DA:1672,0
DA:1674,0
DA:1650,0
DA:1654,0
DA:1658,0
DA:1659,0
DA:1666,0
DA:1667,0
DA:1668,0
DA:1671,0
DA:1672,0
DA:1674,0
DA:1769,0
DA:1776,0
DA:1778,0
DA:1781,0
DA:1783,0
DA:1790,0
DA:1791,0
DA:1792,0
DA:1769,0
DA:1776,0
DA:1778,0
DA:1781,0
DA:1783,0
DA:1790,0
DA:1791,0
DA:1792,0
DA:1769,0
DA:1776,0
DA:1778,0
DA:1781,0
DA:1783,0
DA:1790,0
DA:1791,0
DA:1792,0
DA:1769,0
DA:1776,0
DA:1778,0
DA:1781,0
DA:1783,0
DA:1790,0
DA:1791,0
DA:1792,0
DA:2081,0
DA:2086,0
DA:2087,0
DA:2088,0
DA:2089,0
DA:2081,0
DA:2085,0
DA:2086,0
DA:2087,0
DA:2088,0
DA:2089,0
DA:2081,0
DA:2085,0
DA:2086,0
DA:2087,0
DA:2088,0
DA:2089,0
DA:2081,0
DA:2085,0
DA:2086,0
DA:2087,0
DA:2088,0
DA:2089,0
DA:2081,0
DA:2085,0
DA:2086,0
DA:2087,0
DA:2088,0
DA:2089,0
DA:2081,0
DA:2086,0
DA:2087,0
DA:2088,0
DA:2089,0
DA:2081,0
DA:2086,0
DA:2087,0
DA:2088,0
DA:2089,0
DA:2081,0
DA:2086,0
DA:2087,0
DA:2088,0
DA:2089,0
DA:2081,0
DA:2086,0
DA:2087,0
DA:2088,0
DA:2089,0
DA:2081,0
DA:2086,0
DA:2087,0
DA:2088,0
DA:2089,0
DA:2081,0
DA:2086,0
DA:2087,0
DA:2088,0
DA:2089,0
DA:2081,0
DA:2086,0
DA:2087,0
DA:2088,0
DA:2089,0
DA:2081,0
DA:2086,0
DA:2087,0
DA:2088,0
DA:2089,0
DA:2081,0
DA:2086,0
DA:2087,0
DA:2088,0
DA:2089,0
DA:2119,0
DA:2125,0
DA:2127,0
DA:2131,0
DA:2132,0
DA:2134,0
DA:2119,0
DA:2125,0
DA:2127,0
DA:2131,0
DA:2132,0
DA:2134,0
DA:2119,0
DA:2125,0
DA:2127,0
DA:2131,0
DA:2132,0
DA:2134,0
DA:2119,0
DA:2125,0
DA:2127,0
DA:2131,0
DA:2132,0
DA:2134,0
DA:2142,0
DA:2148,0
DA:2150,0
DA:2155,0
DA:2157,0
DA:2158,0
DA:2159,0
DA:2160,0
DA:2161,0
DA:2166,0
DA:2167,0
DA:2172,0
DA:2173,0
DA:2174,0
DA:2175,0
DA:2142,0
DA:2148,0
DA:2150,0
DA:2155,0
DA:2157,0
DA:2158,0
DA:2159,0
DA:2160,0
DA:2161,0
DA:2166,0
DA:2167,0
DA:2172,0
DA:2173,0
DA:2174,0
DA:2175,0
DA:2142,0
DA:2148,0
DA:2150,0
DA:2155,0
DA:2157,0
DA:2158,0
DA:2159,0
DA:2160,0
DA:2161,0
DA:2166,0
DA:2167,0
DA:2172,0
DA:2173,0
DA:2174,0
DA:2175,0
DA:2142,0
DA:2148,0
DA:2150,0
DA:2155,0
DA:2157,0
DA:2158,0
DA:2159,0
DA:2160,0
DA:2161,0
DA:2166,0
DA:2167,0
DA:2172,0
DA:2173,0
DA:2174,0
DA:2175,0
LF:302
LH:0
end_of_record
SF:/home/runner/work/beaver/beaver/moose/framework/build/header_symlinks/MooseMesh.h
LF:0
LH:0
end_of_record
SF:/usr/share/miniconda3/envs/moose/x86_64-conda-linux-gnu/include/c++/10.4.0/bits/hashtable_policy.h
FN:701,_ZNSt8__detail9_Map_baseImSt4pairIKmSt6vectorIS3_IS1_IbdESaIS4_EESaIS6_EEESaIS9_ENS_10_Select1stESt8equal_toImESt4hashImENS_18_Mod_range_hashingENS_20_Default_ranged_hashENS_20_Prime_rehash_policyENS_17_Hashtable_traitsILb0ELb0ELb1EEELb1EEixERS2_
FNDA:0,_ZNSt8__detail9_Map_baseImSt4pairIKmSt6vectorIS3_IS1_IbdESaIS4_EESaIS6_EEESaIS9_ENS_10_Select1stESt8equal_toImESt4hashImENS_18_Mod_range_hashingENS_20_Default_ranged_hashENS_20_Prime_rehash_policyENS_17_Hashtable_traitsILb0ELb0ELb1EEELb1EEixERS2_
FN:701,_ZNSt8__detail9_Map_baseImSt4pairIKmSt6vectorIS1_IbdESaIS4_EEESaIS7_ENS_10_Select1stESt8equal_toImESt4hashImENS_18_Mod_range_hashingENS_20_Default_ranged_hashENS_20_Prime_rehash_policyENS_17_Hashtable_traitsILb0ELb0ELb1EEELb1EEixERS2_
FNDA:0,_ZNSt8__detail9_Map_baseImSt4pairIKmSt6vectorIS1_IbdESaIS4_EEESaIS7_ENS_10_Select1stESt8equal_toImESt4hashImENS_18_Mod_range_hashingENS_20_Default_ranged_hashENS_20_Prime_rehash_policyENS_17_Hashtable_traitsILb0ELb0ELb1EEELb1EEixERS2_
FN:701,_ZNSt8__detail9_Map_baseImSt4pairIKmSt6vectorIS3_IS1_IbN11MetaPhysicL10DualNumberIdNS4_28SemiDynamicSparseNumberArrayIdmNS4_8NWrapperILm64EEEEELb1EEEESaISB_EESaISD_EEESaISG_ENS_10_Select1stESt8equal_toImESt4hashImENS_18_Mod_range_hashingENS_20_Default_ranged_hashENS_20_Prime_rehash_policyENS_17_Hashtable_traitsILb0ELb0ELb1EEELb1EEixERS2_
FNDA:0,_ZNSt8__detail9_Map_baseImSt4pairIKmSt6vectorIS3_IS1_IbN11MetaPhysicL10DualNumberIdNS4_28SemiDynamicSparseNumberArrayIdmNS4_8NWrapperILm64EEEEELb1EEEESaISB_EESaISD_EEESaISG_ENS_10_Select1stESt8equal_toImESt4hashImENS_18_Mod_range_hashingENS_20_Default_ranged_hashENS_20_Prime_rehash_policyENS_17_Hashtable_traitsILb0ELb0ELb1EEELb1EEixERS2_
FN:701,_ZNSt8__detail9_Map_baseImSt4pairIKmSt6vectorIS1_IbN11MetaPhysicL10DualNumberIdNS4_28SemiDynamicSparseNumberArrayIdmNS4_8NWrapperILm64EEEEELb1EEEESaISB_EEESaISE_ENS_10_Select1stESt8equal_toImESt4hashImENS_18_Mod_range_hashingENS_20_Default_ranged_hashENS_20_Prime_rehash_policyENS_17_Hashtable_traitsILb0ELb0ELb1EEELb1EEixERS2_
FNDA:0,_ZNSt8__detail9_Map_baseImSt4pairIKmSt6vectorIS1_IbN11MetaPhysicL10DualNumberIdNS4_28SemiDynamicSparseNumberArrayIdmNS4_8NWrapperILm64EEEEELb1EEEESaISB_EEESaISE_ENS_10_Select1stESt8equal_toImESt4hashImENS_18_Mod_range_hashingENS_20_Default_ranged_hashENS_20_Prime_rehash_policyENS_17_Hashtable_traitsILb0ELb0ELb1EEELb1EEixERS2_
FN:2030,_ZNSt8__detail16_Hashtable_allocISaINS_10_Hash_nodeISt4pairIKmSt6vectorIS4_IS2_IbdESaIS5_EESaIS7_EEELb0EEEEE16_M_allocate_nodeIJRKSt21piecewise_construct_tSt5tupleIJRS3_EESI_IJEEEEEPSB_DpOT_
FNDA:0,_ZNSt8__detail16_Hashtable_allocISaINS_10_Hash_nodeISt4pairIKmSt6vectorIS4_IS2_IbdESaIS5_EESaIS7_EEELb0EEEEE16_M_allocate_nodeIJRKSt21piecewise_construct_tSt5tupleIJRS3_EESI_IJEEEEEPSB_DpOT_
FN:2030,_ZNSt8__detail16_Hashtable_allocISaINS_10_Hash_nodeISt4pairIKmSt6vectorIS2_IbdESaIS5_EEELb0EEEEE16_M_allocate_nodeIJRKSt21piecewise_construct_tSt5tupleIJRS3_EESG_IJEEEEEPS9_DpOT_
FNDA:0,_ZNSt8__detail16_Hashtable_allocISaINS_10_Hash_nodeISt4pairIKmSt6vectorIS2_IbdESaIS5_EEELb0EEEEE16_M_allocate_nodeIJRKSt21piecewise_construct_tSt5tupleIJRS3_EESG_IJEEEEEPS9_DpOT_
FN:2030,_ZNSt8__detail16_Hashtable_allocISaINS_10_Hash_nodeISt4pairIKmSt6vectorIS4_IS2_IbN11MetaPhysicL10DualNumberIdNS5_28SemiDynamicSparseNumberArrayIdmNS5_8NWrapperILm64EEEEELb1EEEESaISC_EESaISE_EEELb0EEEEE16_M_allocate_nodeIJRKSt21piecewise_construct_tSt5tupleIJRS3_EESP_IJEEEEEPSI_DpOT_
FNDA:0,_ZNSt8__detail16_Hashtable_allocISaINS_10_Hash_nodeISt4pairIKmSt6vectorIS4_IS2_IbN11MetaPhysicL10DualNumberIdNS5_28SemiDynamicSparseNumberArrayIdmNS5_8NWrapperILm64EEEEELb1EEEESaISC_EESaISE_EEELb0EEEEE16_M_allocate_nodeIJRKSt21piecewise_construct_tSt5tupleIJRS3_EESP_IJEEEEEPSI_DpOT_
FN:2030,_ZNSt8__detail16_Hashtable_allocISaINS_10_Hash_nodeISt4pairIKmSt6vectorIS2_IbN11MetaPhysicL10DualNumberIdNS5_28SemiDynamicSparseNumberArrayIdmNS5_8NWrapperILm64EEEEELb1EEEESaISC_EEELb0EEEEE16_M_allocate_nodeIJRKSt21piecewise_construct_tSt5tupleIJRS3_EESN_IJEEEEEPSG_DpOT_
FNDA:0,_ZNSt8__detail16_Hashtable_allocISaINS_10_Hash_nodeISt4pairIKmSt6vectorIS2_IbN11MetaPhysicL10DualNumberIdNS5_28SemiDynamicSparseNumberArrayIdmNS5_8NWrapperILm64EEEEELb1EEEESaISC_EEELb0EEEEE16_M_allocate_nodeIJRKSt21piecewise_construct_tSt5tupleIJRS3_EESN_IJEEEEEPSG_DpOT_
FN:2052,_ZNSt8__detail16_Hashtable_allocISaINS_10_Hash_nodeISt4pairIKNSt7__cxx1112basic_stringIcSt11char_traitsIcESaIcEEESt6vectorIP19MooseVariableScalarSaISC_EEELb1EEEEE18_M_deallocate_nodeEPSG_
FNDA:0,_ZNSt8__detail16_Hashtable_allocISaINS_10_Hash_nodeISt4pairIKNSt7__cxx1112basic_stringIcSt11char_traitsIcESaIcEEESt6vectorIP19MooseVariableScalarSaISC_EEELb1EEEEE18_M_deallocate_nodeEPSG_
FN:2052,_ZNSt8__detail16_Hashtable_allocISaINS_10_Hash_nodeISt4pairIKNSt7__cxx1112basic_stringIcSt11char_traitsIcESaIcEEESt10unique_ptrI10MooseArrayIdESt14default_deleteISC_EEELb1EEEEE18_M_deallocate_nodeEPSH_
FNDA:0,_ZNSt8__detail16_Hashtable_allocISaINS_10_Hash_nodeISt4pairIKNSt7__cxx1112basic_stringIcSt11char_traitsIcESaIcEEESt10unique_ptrI10MooseArrayIdESt14default_deleteISC_EEELb1EEEEE18_M_deallocate_nodeEPSH_
FN:2052,_ZNSt8__detail16_Hashtable_allocISaINS_10_Hash_nodeISt4pairIKNSt7__cxx1112basic_stringIcSt11char_traitsIcESaIcEEESt6vectorIjSaIjEEELb1EEEEE18_M_deallocate_nodeEPSE_
FNDA:0,_ZNSt8__detail16_Hashtable_allocISaINS_10_Hash_nodeISt4pairIKNSt7__cxx1112basic_stringIcSt11char_traitsIcESaIcEEESt6vectorIjSaIjEEELb1EEEEE18_M_deallocate_nodeEPSE_
FN:2052,_ZNSt8__detail16_Hashtable_allocISaINS_10_Hash_nodeISt4pairIKNSt7__cxx1112basic_stringIcSt11char_traitsIcESaIcEEESt10unique_ptrI10MooseArrayIN7libMesh11VectorValueIN11MetaPhysicL10DualNumberIdNSE_28SemiDynamicSparseNumberArrayIdmNSE_8NWrapperILm64EEEEELb1EEEEEESt14default_deleteISM_EEELb1EEEEE18_M_deallocate_nodeEPSR_
FNDA:0,_ZNSt8__detail16_Hashtable_allocISaINS_10_Hash_nodeISt4pairIKNSt7__cxx1112basic_stringIcSt11char_traitsIcESaIcEEESt10unique_ptrI10MooseArrayIN7libMesh11VectorValueIN11MetaPhysicL10DualNumberIdNSE_28SemiDynamicSparseNumberArrayIdmNSE_8NWrapperILm64EEEEELb1EEEEEESt14default_deleteISM_EEELb1EEEEE18_M_deallocate_nodeEPSR_
FN:2052,_ZNSt8__detail16_Hashtable_allocISaINS_10_Hash_nodeISt4pairIKNSt7__cxx1112basic_stringIcSt11char_traitsIcESaIcEEESt10unique_ptrI10MooseArrayIN5Eigen6MatrixIdLin1ELi1ELi0ELin1ELi1EEEESt14default_deleteISF_EEELb1EEEEE18_M_deallocate_nodeEPSK_
FNDA:0,_ZNSt8__detail16_Hashtable_allocISaINS_10_Hash_nodeISt4pairIKNSt7__cxx1112basic_stringIcSt11char_traitsIcESaIcEEESt10unique_ptrI10MooseArrayIN5Eigen6MatrixIdLin1ELi1ELi0ELin1ELi1EEEESt14default_deleteISF_EEELb1EEEEE18_M_deallocate_nodeEPSK_
FN:2052,_ZNSt8__detail16_Hashtable_allocISaINS_10_Hash_nodeISt4pairIKNSt7__cxx1112basic_stringIcSt11char_traitsIcESaIcEEESt10unique_ptrI10MooseArrayIN7libMesh11VectorValueIdEEESt14default_deleteISF_EEELb1EEEEE18_M_deallocate_nodeEPSK_
FNDA:0,_ZNSt8__detail16_Hashtable_allocISaINS_10_Hash_nodeISt4pairIKNSt7__cxx1112basic_stringIcSt11char_traitsIcESaIcEEESt10unique_ptrI10MooseArrayIN7libMesh11VectorValueIdEEESt14default_deleteISF_EEELb1EEEEE18_M_deallocate_nodeEPSK_
FN:2052,_ZNSt8__detail16_Hashtable_allocISaINS_10_Hash_nodeISt4pairIKNSt7__cxx1112basic_stringIcSt11char_traitsIcESaIcEEES8_ELb1EEEEE18_M_deallocate_nodeEPSB_
FNDA:0,_ZNSt8__detail16_Hashtable_allocISaINS_10_Hash_nodeISt4pairIKNSt7__cxx1112basic_stringIcSt11char_traitsIcESaIcEEES8_ELb1EEEEE18_M_deallocate_nodeEPSB_
FN:2052,_ZNSt8__detail16_Hashtable_allocISaINS_10_Hash_nodeISt4pairIKNSt7__cxx1112basic_stringIcSt11char_traitsIcESaIcEEESt10unique_ptrI10MooseArrayIN11MetaPhysicL10DualNumberIdNSC_28SemiDynamicSparseNumberArrayIdmNSC_8NWrapperILm64EEEEELb1EEEESt14default_deleteISJ_EEELb1EEEEE18_M_deallocate_nodeEPSO_
FNDA:0,_ZNSt8__detail16_Hashtable_allocISaINS_10_Hash_nodeISt4pairIKNSt7__cxx1112basic_stringIcSt11char_traitsIcESaIcEEESt10unique_ptrI10MooseArrayIN11MetaPhysicL10DualNumberIdNSC_28SemiDynamicSparseNumberArrayIdmNSC_8NWrapperILm64EEEEELb1EEEESt14default_deleteISJ_EEELb1EEEEE18_M_deallocate_nodeEPSO_
FN:2052,_ZNSt8__detail16_Hashtable_allocISaINS_10_Hash_nodeISt4pairIKNSt7__cxx1112basic_stringIcSt11char_traitsIcESaIcEEESt6vectorISt10unique_ptrI10MooseArrayIdESt14default_deleteISD_EESaISG_EEELb1EEEEE18_M_deallocate_nodeEPSK_
FNDA:0,_ZNSt8__detail16_Hashtable_allocISaINS_10_Hash_nodeISt4pairIKNSt7__cxx1112basic_stringIcSt11char_traitsIcESaIcEEESt6vectorISt10unique_ptrI10MooseArrayIdESt14default_deleteISD_EESaISG_EEELb1EEEEE18_M_deallocate_nodeEPSK_
FN:2052,_ZNSt8__detail16_Hashtable_allocISaINS_10_Hash_nodeISt4pairIKNSt7__cxx1112basic_stringIcSt11char_traitsIcESaIcEEESt6vectorIP22MooseVariableFieldBaseSaISC_EEELb1EEEEE18_M_deallocate_nodeEPSG_
FNDA:0,_ZNSt8__detail16_Hashtable_allocISaINS_10_Hash_nodeISt4pairIKNSt7__cxx1112basic_stringIcSt11char_traitsIcESaIcEEESt6vectorIP22MooseVariableFieldBaseSaISC_EEELb1EEEEE18_M_deallocate_nodeEPSG_
FN:2070,_ZNSt8__detail16_Hashtable_allocISaINS_10_Hash_nodeISt4pairIKmSt6vectorIS4_IS2_IbN11MetaPhysicL10DualNumberIdNS5_28SemiDynamicSparseNumberArrayIdmNS5_8NWrapperILm64EEEEELb1EEEESaISC_EESaISE_EEELb0EEEEE19_M_deallocate_nodesEPSI_
FNDA:0,_ZNSt8__detail16_Hashtable_allocISaINS_10_Hash_nodeISt4pairIKmSt6vectorIS4_IS2_IbN11MetaPhysicL10DualNumberIdNS5_28SemiDynamicSparseNumberArrayIdmNS5_8NWrapperILm64EEEEELb1EEEESaISC_EESaISE_EEELb0EEEEE19_M_deallocate_nodesEPSI_
FN:2070,_ZNSt8__detail16_Hashtable_allocISaINS_10_Hash_nodeISt4pairIKmSt6vectorIS2_IbdESaIS5_EEELb0EEEEE19_M_deallocate_nodesEPS9_
FNDA:0,_ZNSt8__detail16_Hashtable_allocISaINS_10_Hash_nodeISt4pairIKmSt6vectorIS2_IbdESaIS5_EEELb0EEEEE19_M_deallocate_nodesEPS9_
FN:2070,_ZNSt8__detail16_Hashtable_allocISaINS_10_Hash_nodeISt4pairIKmSt6vectorIS4_IS2_IbdESaIS5_EESaIS7_EEELb0EEEEE19_M_deallocate_nodesEPSB_
FNDA:0,_ZNSt8__detail16_Hashtable_allocISaINS_10_Hash_nodeISt4pairIKmSt6vectorIS4_IS2_IbdESaIS5_EESaIS7_EEELb0EEEEE19_M_deallocate_nodesEPSB_
FN:2070,_ZNSt8__detail16_Hashtable_allocISaINS_10_Hash_nodeISt4pairIKmSt6vectorIS2_IbN11MetaPhysicL10DualNumberIdNS5_28SemiDynamicSparseNumberArrayIdmNS5_8NWrapperILm64EEEEELb1EEEESaISC_EEELb0EEEEE19_M_deallocate_nodesEPSG_
FNDA:0,_ZNSt8__detail16_Hashtable_allocISaINS_10_Hash_nodeISt4pairIKmSt6vectorIS2_IbN11MetaPhysicL10DualNumberIdNS5_28SemiDynamicSparseNumberArrayIdmNS5_8NWrapperILm64EEEEELb1EEEESaISC_EEELb0EEEEE19_M_deallocate_nodesEPSG_
FN:2082,_ZNSt8__detail16_Hashtable_allocISaINS_10_Hash_nodeISt4pairIKmSt6vectorIS4_IS2_IbdESaIS5_EESaIS7_EEELb0EEEEE19_M_allocate_bucketsEm
FNDA:0,_ZNSt8__detail16_Hashtable_allocISaINS_10_Hash_nodeISt4pairIKmSt6vectorIS4_IS2_IbdESaIS5_EESaIS7_EEELb0EEEEE19_M_allocate_bucketsEm
FN:2082,_ZNSt8__detail16_Hashtable_allocISaINS_10_Hash_nodeISt4pairIKmSt6vectorIS2_IbN11MetaPhysicL10DualNumberIdNS5_28SemiDynamicSparseNumberArrayIdmNS5_8NWrapperILm64EEEEELb1EEEESaISC_EEELb0EEEEE19_M_allocate_bucketsEm
FNDA:0,_ZNSt8__detail16_Hashtable_allocISaINS_10_Hash_nodeISt4pairIKmSt6vectorIS2_IbN11MetaPhysicL10DualNumberIdNS5_28SemiDynamicSparseNumberArrayIdmNS5_8NWrapperILm64EEEEELb1EEEESaISC_EEELb0EEEEE19_M_allocate_bucketsEm
FN:2082,_ZNSt8__detail16_Hashtable_allocISaINS_10_Hash_nodeISt4pairIKmSt6vectorIS4_IS2_IbN11MetaPhysicL10DualNumberIdNS5_28SemiDynamicSparseNumberArrayIdmNS5_8NWrapperILm64EEEEELb1EEEESaISC_EESaISE_EEELb0EEEEE19_M_allocate_bucketsEm
FNDA:0,_ZNSt8__detail16_Hashtable_allocISaINS_10_Hash_nodeISt4pairIKmSt6vectorIS4_IS2_IbN11MetaPhysicL10DualNumberIdNS5_28SemiDynamicSparseNumberArrayIdmNS5_8NWrapperILm64EEEEELb1EEEESaISC_EESaISE_EEELb0EEEEE19_M_allocate_bucketsEm
FN:2082,_ZNSt8__detail16_Hashtable_allocISaINS_10_Hash_nodeISt4pairIKmSt6vectorIS2_IbdESaIS5_EEELb0EEEEE19_M_allocate_bucketsEm
FNDA:0,_ZNSt8__detail16_Hashtable_allocISaINS_10_Hash_nodeISt4pairIKmSt6vectorIS2_IbdESaIS5_EEELb0EEEEE19_M_allocate_bucketsEm
FNF:26
FNH:0
DA:218,0
DA:270,0
DA:283,0
DA:349,0
DA:355,0
DA:433,0
DA:477,0
DA:485,0
DA:701,0
DA:709,0
DA:710,0
DA:712,0
DA:715,0
DA:716,0
DA:719,0
DA:720,0
DA:721,0
DA:701,0
DA:709,0
DA:710,0
DA:712,0
DA:715,0
DA:716,0
DA:719,0
DA:720,0
DA:721,0
DA:701,0
DA:709,0
DA:710,0
DA:712,0
DA:715,0
DA:716,0
DA:719,0
DA:720,0
DA:721,0
DA:701,0
DA:709,0
DA:710,0
DA:712,0
DA:715,0
DA:716,0
DA:719,0
DA:720,0
DA:721,0
DA:1294,0
DA:1307,0
DA:1805,0
DA:2030,0
DA:2041,0
DA:2030,0
DA:2041,0
DA:2030,0
DA:2041,0
DA:2030,0
DA:2041,0
DA:2052,0
DA:2056,0
DA:2052,0
DA:2056,0
DA:2052,0
DA:2056,0
DA:2052,0
DA:2056,0
DA:2052,0
DA:2056,0
DA:2052,0
DA:2056,0
DA:2052,0
DA:2056,0
DA:2052,0
DA:2056,0
DA:2052,0
DA:2056,0
DA:2052,0
DA:2056,0
DA:2056,0
DA:2064,0
DA:2070,0
DA:2072,0
DA:2078,0
DA:2070,0
DA:2072,0
DA:2078,0
DA:2070,0
DA:2072,0
DA:2078,0
DA:2070,0
DA:2072,0
DA:2078,0
DA:2072,0
DA:2076,0
DA:2082,0
DA:2086,0
DA:2088,0
DA:2089,0
DA:2082,0
DA:2086,0
DA:2088,0
DA:2089,0
DA:2082,0
DA:2086,0
DA:2088,0
DA:2089,0
DA:2082,0
DA:2086,0
DA:2088,0
DA:2089,0
DA:2101,0
LF:108
LH:0
end_of_record
SF:/usr/share/miniconda3/envs/moose/libmesh/include/timpi/message_tag.h
LF:0
LH:0
end_of_record
SF:/home/runner/work/beaver/beaver/moose/framework/build/header_symlinks/ElementIDInterface.h
LF:0
LH:0
end_of_record
SF:/home/runner/work/beaver/beaver/moose/framework/build/header_symlinks/Restartable.h
LF:0
LH:0
end_of_record
SF:/usr/share/miniconda3/envs/moose/x86_64-conda-linux-gnu/include/c++/10.4.0/ext/new_allocator.h
FN:154,_ZN9__gnu_cxx13new_allocatorISt13_Rb_tree_nodeISt4pairIKNSt7__cxx1112basic_stringIcSt11char_traitsIcESaIcEEES8_EEE9constructISA_JRKSt21piecewise_construct_tSt5tupleIJOS8_EESH_IJEEEEEvPT_DpOT0_
FNDA:0,_ZN9__gnu_cxx13new_allocatorISt13_Rb_tree_nodeISt4pairIKNSt7__cxx1112basic_stringIcSt11char_traitsIcESaIcEEES8_EEE9constructISA_JRKSt21piecewise_construct_tSt5tupleIJOS8_EESH_IJEEEEEvPT_DpOT0_
FNF:1
FNH:0
DA:111,0
DA:112,0
DA:121,144
DA:139,363
DA:154,0
DA:156,25
DA:162,24
LF:7
LH:4
end_of_record
SF:/usr/share/miniconda3/envs/moose/libmesh/include/libmesh/type_tensor.h
FN:533,_ZN7libMesh10TypeTensorIN11MetaPhysicL10DualNumberIdNS1_28SemiDynamicSparseNumberArrayIdmNS1_8NWrapperILm64EEEEELb1EEEEC2ERKS7_SA_SA_SA_SA_SA_SA_SA_SA_
FNDA:20480,_ZN7libMesh10TypeTensorIN11MetaPhysicL10DualNumberIdNS1_28SemiDynamicSparseNumberArrayIdmNS1_8NWrapperILm64EEEEELb1EEEEC2ERKS7_SA_SA_SA_SA_SA_SA_SA_SA_
FN:628,_ZN7libMesh10TypeTensorIN11MetaPhysicL10DualNumberIdNS1_28SemiDynamicSparseNumberArrayIdmNS1_8NWrapperILm64EEEEELb1EEEEC2IdEERKNS0_IT_EE
FNDA:0,_ZN7libMesh10TypeTensorIN11MetaPhysicL10DualNumberIdNS1_28SemiDynamicSparseNumberArrayIdmNS1_8NWrapperILm64EEEEELb1EEEEC2IdEERKNS0_IT_EE
FN:1015,_ZNK7libMesh10TypeTensorIN11MetaPhysicL10DualNumberIdNS1_28SemiDynamicSparseNumberArrayIdmNS1_8NWrapperILm64EEEEELb1EEEEdvIdEENS_9boostcopy11enable_if_cIXsrNS_12ScalarTraitsIT_EE5valueENS0_INS_12CompareTypesIS7_SD_E9supertypeEEEE4typeERKSD_
FNDA:20480,_ZNK7libMesh10TypeTensorIN11MetaPhysicL10DualNumberIdNS1_28SemiDynamicSparseNumberArrayIdmNS1_8NWrapperILm64EEEEELb1EEEEdvIdEENS_9boostcopy11enable_if_cIXsrNS_12ScalarTraitsIT_EE5valueENS0_INS_12CompareTypesIS7_SD_E9supertypeEEEE4typeERKSD_
FNF:3
FNH:2
DA:533,20480
DA:541,204800
DA:543,20480
DA:557,20480
DA:558,20480
DA:559,20480
DA:560,20480
DA:561,20480
DA:562,20480
DA:563,20480
DA:564,20480
DA:573,20480
DA:628,0
DA:631,0
DA:632,0
DA:633,0
DA:689,20480
DA:718,0
DA:1015,20480
DA:1033,20480
DA:1034,20480
DA:1035,20480
DA:1036,20480
DA:1037,20480
DA:1038,20480
DA:1039,20480
DA:1040,20480
DA:1041,40960
LF:28
LH:23
end_of_record
SF:/usr/share/miniconda3/envs/moose/libmesh/include/libmesh/dof_object.h
DA:825,0
LF:1
LH:0
end_of_record
SF:/home/runner/work/beaver/beaver/moose/framework/build/header_symlinks/PostprocessorInterface.h
LF:0
LH:0
end_of_record
SF:/usr/share/miniconda3/envs/moose/libmesh/include/libmesh/tensor_value.h
DA:261,0
DA:262,0
DA:305,20480
LF:3
LH:1
end_of_record
SF:/home/runner/work/beaver/beaver/moose/framework/build/header_symlinks/BlockRestrictable.h
FN:86,_ZN17BlockRestrictableD0Ev
FNDA:0,_ZN17BlockRestrictableD0Ev
FN:86,_ZN17BlockRestrictableD2Ev
FNDA:0,_ZN17BlockRestrictableD2Ev
FNF:2
FNH:0
DA:86,0
DA:86,0
LF:2
LH:0
end_of_record
SF:/home/runner/work/beaver/beaver/moose/framework/build/header_symlinks/MooseTypes.h
DA:961,0
DA:964,0
DA:982,0
DA:997,0
DA:1000,0
LF:5
LH:0
end_of_record
SF:/home/runner/work/beaver/beaver/moose/framework/build/header_symlinks/MooseFunctor.h
FN:69,_ZN5Moose11FunctorBaseIdED2Ev
FNDA:0,_ZN5Moose11FunctorBaseIdED2Ev
FN:69,_ZN5Moose11FunctorBaseIdED0Ev
FNDA:0,_ZN5Moose11FunctorBaseIdED0Ev
FN:69,_ZN5Moose11FunctorBaseIN11MetaPhysicL10DualNumberIdNS1_28SemiDynamicSparseNumberArrayIdmNS1_8NWrapperILm64EEEEELb1EEEED2Ev
FNDA:0,_ZN5Moose11FunctorBaseIN11MetaPhysicL10DualNumberIdNS1_28SemiDynamicSparseNumberArrayIdmNS1_8NWrapperILm64EEEEELb1EEEED2Ev
FN:69,_ZN5Moose11FunctorBaseIN11MetaPhysicL10DualNumberIdNS1_28SemiDynamicSparseNumberArrayIdmNS1_8NWrapperILm64EEEEELb1EEEED0Ev
FNDA:0,_ZN5Moose11FunctorBaseIN11MetaPhysicL10DualNumberIdNS1_28SemiDynamicSparseNumberArrayIdmNS1_8NWrapperILm64EEEEELb1EEEED0Ev
FN:144,_ZNK5Moose11FunctorBaseIN11MetaPhysicL10DualNumberIdNS1_28SemiDynamicSparseNumberArrayIdmNS1_8NWrapperILm64EEEEELb1EEEE9hasBlocksEt
FNDA:0,_ZNK5Moose11FunctorBaseIN11MetaPhysicL10DualNumberIdNS1_28SemiDynamicSparseNumberArrayIdmNS1_8NWrapperILm64EEEEELb1EEEE9hasBlocksEt
FN:144,_ZNK5Moose11FunctorBaseIdE9hasBlocksEt
FNDA:0,_ZNK5Moose11FunctorBaseIdE9hasBlocksEt
FN:154,_ZNK5Moose11FunctorBaseIN11MetaPhysicL10DualNumberIdNS1_28SemiDynamicSparseNumberArrayIdmNS1_8NWrapperILm64EEEEELb1EEEE26isExtrapolatedBoundaryFaceERK8FaceInfoPKN7libMesh4ElemERKNS_8StateArgE
FNDA:0,_ZNK5Moose11FunctorBaseIN11MetaPhysicL10DualNumberIdNS1_28SemiDynamicSparseNumberArrayIdmNS1_8NWrapperILm64EEEEELb1EEEE26isExtrapolatedBoundaryFaceERK8FaceInfoPKN7libMesh4ElemERKNS_8StateArgE
FN:154,_ZNK5Moose11FunctorBaseIdE26isExtrapolatedBoundaryFaceERK8FaceInfoPKN7libMesh4ElemERKNS_8StateArgE
FNDA:0,_ZNK5Moose11FunctorBaseIdE26isExtrapolatedBoundaryFaceERK8FaceInfoPKN7libMesh4ElemERKNS_8StateArgE
FN:167,_ZNK5Moose11FunctorBaseIN11MetaPhysicL10DualNumberIdNS1_28SemiDynamicSparseNumberArrayIdmNS1_8NWrapperILm64EEEEELb1EEEE10isConstantEv
FNDA:0,_ZNK5Moose11FunctorBaseIN11MetaPhysicL10DualNumberIdNS1_28SemiDynamicSparseNumberArrayIdmNS1_8NWrapperILm64EEEEELb1EEEE10isConstantEv
FN:167,_ZNK5Moose11FunctorBaseIdE10isConstantEv
FNDA:0,_ZNK5Moose11FunctorBaseIdE10isConstantEv
FN:229,_ZNK5Moose11FunctorBaseIN11MetaPhysicL10DualNumberIdNS1_28SemiDynamicSparseNumberArrayIdmNS1_8NWrapperILm64EEEEELb1EEEE16evaluateGradientERKNS_7ElemArgERKNS_8StateArgE
FNDA:0,_ZNK5Moose11FunctorBaseIN11MetaPhysicL10DualNumberIdNS1_28SemiDynamicSparseNumberArrayIdmNS1_8NWrapperILm64EEEEELb1EEEE16evaluateGradientERKNS_7ElemArgERKNS_8StateArgE
FN:229,_ZNK5Moose11FunctorBaseIdE16evaluateGradientERKNS_7ElemArgERKNS_8StateArgE
FNDA:0,_ZNK5Moose11FunctorBaseIdE16evaluateGradientERKNS_7ElemArgERKNS_8StateArgE
FN:239,_ZNK5Moose11FunctorBaseIdE16evaluateGradientERKNS_7FaceArgERKNS_8StateArgE
FNDA:0,_ZNK5Moose11FunctorBaseIdE16evaluateGradientERKNS_7FaceArgERKNS_8StateArgE
FN:239,_ZNK5Moose11FunctorBaseIN11MetaPhysicL10DualNumberIdNS1_28SemiDynamicSparseNumberArrayIdmNS1_8NWrapperILm64EEEEELb1EEEE16evaluateGradientERKNS_7FaceArgERKNS_8StateArgE
FNDA:0,_ZNK5Moose11FunctorBaseIN11MetaPhysicL10DualNumberIdNS1_28SemiDynamicSparseNumberArrayIdmNS1_8NWrapperILm64EEEEELb1EEEE16evaluateGradientERKNS_7FaceArgERKNS_8StateArgE
FN:249,_ZNK5Moose11FunctorBaseIN11MetaPhysicL10DualNumberIdNS1_28SemiDynamicSparseNumberArrayIdmNS1_8NWrapperILm64EEEEELb1EEEE16evaluateGradientERKNS_9ElemQpArgERKNS_8StateArgE
FNDA:0,_ZNK5Moose11FunctorBaseIN11MetaPhysicL10DualNumberIdNS1_28SemiDynamicSparseNumberArrayIdmNS1_8NWrapperILm64EEEEELb1EEEE16evaluateGradientERKNS_9ElemQpArgERKNS_8StateArgE
FN:249,_ZNK5Moose11FunctorBaseIdE16evaluateGradientERKNS_9ElemQpArgERKNS_8StateArgE
FNDA:0,_ZNK5Moose11FunctorBaseIdE16evaluateGradientERKNS_9ElemQpArgERKNS_8StateArgE
FN:259,_ZNK5Moose11FunctorBaseIdE16evaluateGradientERKNS_13ElemSideQpArgERKNS_8StateArgE
FNDA:0,_ZNK5Moose11FunctorBaseIdE16evaluateGradientERKNS_13ElemSideQpArgERKNS_8StateArgE
FN:259,_ZNK5Moose11FunctorBaseIN11MetaPhysicL10DualNumberIdNS1_28SemiDynamicSparseNumberArrayIdmNS1_8NWrapperILm64EEEEELb1EEEE16evaluateGradientERKNS_13ElemSideQpArgERKNS_8StateArgE
FNDA:0,_ZNK5Moose11FunctorBaseIN11MetaPhysicL10DualNumberIdNS1_28SemiDynamicSparseNumberArrayIdmNS1_8NWrapperILm64EEEEELb1EEEE16evaluateGradientERKNS_13ElemSideQpArgERKNS_8StateArgE
FN:268,_ZNK5Moose11FunctorBaseIdE16evaluateGradientERKNS_12ElemPointArgERKNS_8StateArgE
FNDA:0,_ZNK5Moose11FunctorBaseIdE16evaluateGradientERKNS_12ElemPointArgERKNS_8StateArgE
FN:268,_ZNK5Moose11FunctorBaseIN11MetaPhysicL10DualNumberIdNS1_28SemiDynamicSparseNumberArrayIdmNS1_8NWrapperILm64EEEEELb1EEEE16evaluateGradientERKNS_12ElemPointArgERKNS_8StateArgE
FNDA:0,_ZNK5Moose11FunctorBaseIN11MetaPhysicL10DualNumberIdNS1_28SemiDynamicSparseNumberArrayIdmNS1_8NWrapperILm64EEEEELb1EEEE16evaluateGradientERKNS_12ElemPointArgERKNS_8StateArgE
FN:273,_ZNK5Moose11FunctorBaseIdE16evaluateGradientERKNS_7NodeArgERKNS_8StateArgE
FNDA:0,_ZNK5Moose11FunctorBaseIdE16evaluateGradientERKNS_7NodeArgERKNS_8StateArgE
FN:273,_ZNK5Moose11FunctorBaseIN11MetaPhysicL10DualNumberIdNS1_28SemiDynamicSparseNumberArrayIdmNS1_8NWrapperILm64EEEEELb1EEEE16evaluateGradientERKNS_7NodeArgERKNS_8StateArgE
FNDA:0,_ZNK5Moose11FunctorBaseIN11MetaPhysicL10DualNumberIdNS1_28SemiDynamicSparseNumberArrayIdmNS1_8NWrapperILm64EEEEELb1EEEE16evaluateGradientERKNS_7NodeArgERKNS_8StateArgE
FN:282,_ZNK5Moose11FunctorBaseIdE11evaluateDotERKNS_7ElemArgERKNS_8StateArgE
FNDA:0,_ZNK5Moose11FunctorBaseIdE11evaluateDotERKNS_7ElemArgERKNS_8StateArgE
FN:282,_ZNK5Moose11FunctorBaseIN11MetaPhysicL10DualNumberIdNS1_28SemiDynamicSparseNumberArrayIdmNS1_8NWrapperILm64EEEEELb1EEEE11evaluateDotERKNS_7ElemArgERKNS_8StateArgE
FNDA:0,_ZNK5Moose11FunctorBaseIN11MetaPhysicL10DualNumberIdNS1_28SemiDynamicSparseNumberArrayIdmNS1_8NWrapperILm64EEEEELb1EEEE11evaluateDotERKNS_7ElemArgERKNS_8StateArgE
FN:292,_ZNK5Moose11FunctorBaseIdE11evaluateDotERKNS_7FaceArgERKNS_8StateArgE
FNDA:0,_ZNK5Moose11FunctorBaseIdE11evaluateDotERKNS_7FaceArgERKNS_8StateArgE
FN:292,_ZNK5Moose11FunctorBaseIN11MetaPhysicL10DualNumberIdNS1_28SemiDynamicSparseNumberArrayIdmNS1_8NWrapperILm64EEEEELb1EEEE11evaluateDotERKNS_7FaceArgERKNS_8StateArgE
FNDA:0,_ZNK5Moose11FunctorBaseIN11MetaPhysicL10DualNumberIdNS1_28SemiDynamicSparseNumberArrayIdmNS1_8NWrapperILm64EEEEELb1EEEE11evaluateDotERKNS_7FaceArgERKNS_8StateArgE
FN:302,_ZNK5Moose11FunctorBaseIN11MetaPhysicL10DualNumberIdNS1_28SemiDynamicSparseNumberArrayIdmNS1_8NWrapperILm64EEEEELb1EEEE11evaluateDotERKNS_9ElemQpArgERKNS_8StateArgE
FNDA:0,_ZNK5Moose11FunctorBaseIN11MetaPhysicL10DualNumberIdNS1_28SemiDynamicSparseNumberArrayIdmNS1_8NWrapperILm64EEEEELb1EEEE11evaluateDotERKNS_9ElemQpArgERKNS_8StateArgE
FN:302,_ZNK5Moose11FunctorBaseIdE11evaluateDotERKNS_9ElemQpArgERKNS_8StateArgE
FNDA:0,_ZNK5Moose11FunctorBaseIdE11evaluateDotERKNS_9ElemQpArgERKNS_8StateArgE
FN:313,_ZNK5Moose11FunctorBaseIN11MetaPhysicL10DualNumberIdNS1_28SemiDynamicSparseNumberArrayIdmNS1_8NWrapperILm64EEEEELb1EEEE11evaluateDotERKNS_13ElemSideQpArgERKNS_8StateArgE
FNDA:0,_ZNK5Moose11FunctorBaseIN11MetaPhysicL10DualNumberIdNS1_28SemiDynamicSparseNumberArrayIdmNS1_8NWrapperILm64EEEEELb1EEEE11evaluateDotERKNS_13ElemSideQpArgERKNS_8StateArgE
FN:313,_ZNK5Moose11FunctorBaseIdE11evaluateDotERKNS_13ElemSideQpArgERKNS_8StateArgE
FNDA:0,_ZNK5Moose11FunctorBaseIdE11evaluateDotERKNS_13ElemSideQpArgERKNS_8StateArgE
FN:322,_ZNK5Moose11FunctorBaseIN11MetaPhysicL10DualNumberIdNS1_28SemiDynamicSparseNumberArrayIdmNS1_8NWrapperILm64EEEEELb1EEEE11evaluateDotERKNS_12ElemPointArgERKNS_8StateArgE
FNDA:0,_ZNK5Moose11FunctorBaseIN11MetaPhysicL10DualNumberIdNS1_28SemiDynamicSparseNumberArrayIdmNS1_8NWrapperILm64EEEEELb1EEEE11evaluateDotERKNS_12ElemPointArgERKNS_8StateArgE
FN:322,_ZNK5Moose11FunctorBaseIdE11evaluateDotERKNS_12ElemPointArgERKNS_8StateArgE
FNDA:0,_ZNK5Moose11FunctorBaseIdE11evaluateDotERKNS_12ElemPointArgERKNS_8StateArgE
FN:327,_ZNK5Moose11FunctorBaseIdE11evaluateDotERKNS_7NodeArgERKNS_8StateArgE
FNDA:0,_ZNK5Moose11FunctorBaseIdE11evaluateDotERKNS_7NodeArgERKNS_8StateArgE
FN:327,_ZNK5Moose11FunctorBaseIN11MetaPhysicL10DualNumberIdNS1_28SemiDynamicSparseNumberArrayIdmNS1_8NWrapperILm64EEEEELb1EEEE11evaluateDotERKNS_7NodeArgERKNS_8StateArgE
FNDA:0,_ZNK5Moose11FunctorBaseIN11MetaPhysicL10DualNumberIdNS1_28SemiDynamicSparseNumberArrayIdmNS1_8NWrapperILm64EEEEELb1EEEE11evaluateDotERKNS_7NodeArgERKNS_8StateArgE
FN:336,_ZNK5Moose11FunctorBaseIN11MetaPhysicL10DualNumberIdNS1_28SemiDynamicSparseNumberArrayIdmNS1_8NWrapperILm64EEEEELb1EEEE15evaluateGradDotERKNS_7ElemArgERKNS_8StateArgE
FNDA:0,_ZNK5Moose11FunctorBaseIN11MetaPhysicL10DualNumberIdNS1_28SemiDynamicSparseNumberArrayIdmNS1_8NWrapperILm64EEEEELb1EEEE15evaluateGradDotERKNS_7ElemArgERKNS_8StateArgE
FN:336,_ZNK5Moose11FunctorBaseIdE15evaluateGradDotERKNS_7ElemArgERKNS_8StateArgE
FNDA:0,_ZNK5Moose11FunctorBaseIdE15evaluateGradDotERKNS_7ElemArgERKNS_8StateArgE
FN:346,_ZNK5Moose11FunctorBaseIN11MetaPhysicL10DualNumberIdNS1_28SemiDynamicSparseNumberArrayIdmNS1_8NWrapperILm64EEEEELb1EEEE15evaluateGradDotERKNS_7FaceArgERKNS_8StateArgE
FNDA:0,_ZNK5Moose11FunctorBaseIN11MetaPhysicL10DualNumberIdNS1_28SemiDynamicSparseNumberArrayIdmNS1_8NWrapperILm64EEEEELb1EEEE15evaluateGradDotERKNS_7FaceArgERKNS_8StateArgE
FN:346,_ZNK5Moose11FunctorBaseIdE15evaluateGradDotERKNS_7FaceArgERKNS_8StateArgE
FNDA:0,_ZNK5Moose11FunctorBaseIdE15evaluateGradDotERKNS_7FaceArgERKNS_8StateArgE
FN:356,_ZNK5Moose11FunctorBaseIN11MetaPhysicL10DualNumberIdNS1_28SemiDynamicSparseNumberArrayIdmNS1_8NWrapperILm64EEEEELb1EEEE15evaluateGradDotERKNS_9ElemQpArgERKNS_8StateArgE
FNDA:0,_ZNK5Moose11FunctorBaseIN11MetaPhysicL10DualNumberIdNS1_28SemiDynamicSparseNumberArrayIdmNS1_8NWrapperILm64EEEEELb1EEEE15evaluateGradDotERKNS_9ElemQpArgERKNS_8StateArgE
FN:356,_ZNK5Moose11FunctorBaseIdE15evaluateGradDotERKNS_9ElemQpArgERKNS_8StateArgE
FNDA:0,_ZNK5Moose11FunctorBaseIdE15evaluateGradDotERKNS_9ElemQpArgERKNS_8StateArgE
FN:367,_ZNK5Moose11FunctorBaseIdE15evaluateGradDotERKNS_13ElemSideQpArgERKNS_8StateArgE
FNDA:0,_ZNK5Moose11FunctorBaseIdE15evaluateGradDotERKNS_13ElemSideQpArgERKNS_8StateArgE
FN:367,_ZNK5Moose11FunctorBaseIN11MetaPhysicL10DualNumberIdNS1_28SemiDynamicSparseNumberArrayIdmNS1_8NWrapperILm64EEEEELb1EEEE15evaluateGradDotERKNS_13ElemSideQpArgERKNS_8StateArgE
FNDA:0,_ZNK5Moose11FunctorBaseIN11MetaPhysicL10DualNumberIdNS1_28SemiDynamicSparseNumberArrayIdmNS1_8NWrapperILm64EEEEELb1EEEE15evaluateGradDotERKNS_13ElemSideQpArgERKNS_8StateArgE
FN:376,_ZNK5Moose11FunctorBaseIN11MetaPhysicL10DualNumberIdNS1_28SemiDynamicSparseNumberArrayIdmNS1_8NWrapperILm64EEEEELb1EEEE15evaluateGradDotERKNS_12ElemPointArgERKNS_8StateArgE
FNDA:0,_ZNK5Moose11FunctorBaseIN11MetaPhysicL10DualNumberIdNS1_28SemiDynamicSparseNumberArrayIdmNS1_8NWrapperILm64EEEEELb1EEEE15evaluateGradDotERKNS_12ElemPointArgERKNS_8StateArgE
FN:376,_ZNK5Moose11FunctorBaseIdE15evaluateGradDotERKNS_12ElemPointArgERKNS_8StateArgE
FNDA:0,_ZNK5Moose11FunctorBaseIdE15evaluateGradDotERKNS_12ElemPointArgERKNS_8StateArgE
FN:381,_ZNK5Moose11FunctorBaseIN11MetaPhysicL10DualNumberIdNS1_28SemiDynamicSparseNumberArrayIdmNS1_8NWrapperILm64EEEEELb1EEEE15evaluateGradDotERKNS_7NodeArgERKNS_8StateArgE
FNDA:0,_ZNK5Moose11FunctorBaseIN11MetaPhysicL10DualNumberIdNS1_28SemiDynamicSparseNumberArrayIdmNS1_8NWrapperILm64EEEEELb1EEEE15evaluateGradDotERKNS_7NodeArgERKNS_8StateArgE
FN:381,_ZNK5Moose11FunctorBaseIdE15evaluateGradDotERKNS_7NodeArgERKNS_8StateArgE
FNDA:0,_ZNK5Moose11FunctorBaseIdE15evaluateGradDotERKNS_7NodeArgERKNS_8StateArgE
FN:474,_ZNK5Moose11FunctorBaseIN11MetaPhysicL10DualNumberIdNS1_28SemiDynamicSparseNumberArrayIdmNS1_8NWrapperILm64EEEEELb1EEEE15queryFVArgCacheINS_7FaceArgEEES7_RSt3mapIT_S7_St4lessISC_ESaISt4pairIKSC_S7_EEERSG_
FNDA:0,_ZNK5Moose11FunctorBaseIN11MetaPhysicL10DualNumberIdNS1_28SemiDynamicSparseNumberArrayIdmNS1_8NWrapperILm64EEEEELb1EEEE15queryFVArgCacheINS_7FaceArgEEES7_RSt3mapIT_S7_St4lessISC_ESaISt4pairIKSC_S7_EEERSG_
FN:474,_ZNK5Moose11FunctorBaseIdE15queryFVArgCacheINS_7ElemArgEEEdRSt3mapIT_dSt4lessIS5_ESaISt4pairIKS5_dEEERS9_
FNDA:0,_ZNK5Moose11FunctorBaseIdE15queryFVArgCacheINS_7ElemArgEEEdRSt3mapIT_dSt4lessIS5_ESaISt4pairIKS5_dEEERS9_
FN:474,_ZNK5Moose11FunctorBaseIdE15queryFVArgCacheINS_7FaceArgEEEdRSt3mapIT_dSt4lessIS5_ESaISt4pairIKS5_dEEERS9_
FNDA:0,_ZNK5Moose11FunctorBaseIdE15queryFVArgCacheINS_7FaceArgEEEdRSt3mapIT_dSt4lessIS5_ESaISt4pairIKS5_dEEERS9_
FN:474,_ZNK5Moose11FunctorBaseIN11MetaPhysicL10DualNumberIdNS1_28SemiDynamicSparseNumberArrayIdmNS1_8NWrapperILm64EEEEELb1EEEE15queryFVArgCacheINS_7ElemArgEEES7_RSt3mapIT_S7_St4lessISC_ESaISt4pairIKSC_S7_EEERSG_
FNDA:0,_ZNK5Moose11FunctorBaseIN11MetaPhysicL10DualNumberIdNS1_28SemiDynamicSparseNumberArrayIdmNS1_8NWrapperILm64EEEEELb1EEEE15queryFVArgCacheINS_7ElemArgEEES7_RSt3mapIT_S7_St4lessISC_ESaISt4pairIKSC_S7_EEERSG_
FN:491,_ZNK5Moose11FunctorBaseIdEclERKNS_7ElemArgERKNS_8StateArgE
FNDA:0,_ZNK5Moose11FunctorBaseIdEclERKNS_7ElemArgERKNS_8StateArgE
FN:491,_ZNK5Moose11FunctorBaseIN11MetaPhysicL10DualNumberIdNS1_28SemiDynamicSparseNumberArrayIdmNS1_8NWrapperILm64EEEEELb1EEEEclERKNS_7ElemArgERKNS_8StateArgE
FNDA:0,_ZNK5Moose11FunctorBaseIN11MetaPhysicL10DualNumberIdNS1_28SemiDynamicSparseNumberArrayIdmNS1_8NWrapperILm64EEEEELb1EEEEclERKNS_7ElemArgERKNS_8StateArgE
FN:504,_ZNK5Moose11FunctorBaseIdEclERKNS_7FaceArgERKNS_8StateArgE
FNDA:0,_ZNK5Moose11FunctorBaseIdEclERKNS_7FaceArgERKNS_8StateArgE
FN:504,_ZNK5Moose11FunctorBaseIN11MetaPhysicL10DualNumberIdNS1_28SemiDynamicSparseNumberArrayIdmNS1_8NWrapperILm64EEEEELb1EEEEclERKNS_7FaceArgERKNS_8StateArgE
FNDA:0,_ZNK5Moose11FunctorBaseIN11MetaPhysicL10DualNumberIdNS1_28SemiDynamicSparseNumberArrayIdmNS1_8NWrapperILm64EEEEELb1EEEEclERKNS_7FaceArgERKNS_8StateArgE
FN:520,_ZNK5Moose11FunctorBaseIdE12queryQpCacheINS_9ElemQpArgENS_8StateArgEEEdjRKN7libMesh5QBaseERSt6vectorISt4pairIbdESaISB_EERKT_RKT0_
FNDA:0,_ZNK5Moose11FunctorBaseIdE12queryQpCacheINS_9ElemQpArgENS_8StateArgEEEdjRKN7libMesh5QBaseERSt6vectorISt4pairIbdESaISB_EERKT_RKT0_
FN:520,_ZNK5Moose11FunctorBaseIdE12queryQpCacheINS_13ElemSideQpArgENS_8StateArgEEEdjRKN7libMesh5QBaseERSt6vectorISt4pairIbdESaISB_EERKT_RKT0_
FNDA:0,_ZNK5Moose11FunctorBaseIdE12queryQpCacheINS_13ElemSideQpArgENS_8StateArgEEEdjRKN7libMesh5QBaseERSt6vectorISt4pairIbdESaISB_EERKT_RKT0_
FN:520,_ZNK5Moose11FunctorBaseIN11MetaPhysicL10DualNumberIdNS1_28SemiDynamicSparseNumberArrayIdmNS1_8NWrapperILm64EEEEELb1EEEE12queryQpCacheINS_13ElemSideQpArgENS_8StateArgEEES7_jRKN7libMesh5QBaseERSt6vectorISt4pairIbS7_ESaISI_EERKT_RKT0_
FNDA:0,_ZNK5Moose11FunctorBaseIN11MetaPhysicL10DualNumberIdNS1_28SemiDynamicSparseNumberArrayIdmNS1_8NWrapperILm64EEEEELb1EEEE12queryQpCacheINS_13ElemSideQpArgENS_8StateArgEEES7_jRKN7libMesh5QBaseERSt6vectorISt4pairIbS7_ESaISI_EERKT_RKT0_
FN:520,_ZNK5Moose11FunctorBaseIN11MetaPhysicL10DualNumberIdNS1_28SemiDynamicSparseNumberArrayIdmNS1_8NWrapperILm64EEEEELb1EEEE12queryQpCacheINS_9ElemQpArgENS_8StateArgEEES7_jRKN7libMesh5QBaseERSt6vectorISt4pairIbS7_ESaISI_EERKT_RKT0_
FNDA:0,_ZNK5Moose11FunctorBaseIN11MetaPhysicL10DualNumberIdNS1_28SemiDynamicSparseNumberArrayIdmNS1_8NWrapperILm64EEEEELb1EEEE12queryQpCacheINS_9ElemQpArgENS_8StateArgEEES7_jRKN7libMesh5QBaseERSt6vectorISt4pairIbS7_ESaISI_EERKT_RKT0_
FN:550,_ZNK5Moose11FunctorBaseIN11MetaPhysicL10DualNumberIdNS1_28SemiDynamicSparseNumberArrayIdmNS1_8NWrapperILm64EEEEELb1EEEEclERKNS_9ElemQpArgERKNS_8StateArgE
FNDA:0,_ZNK5Moose11FunctorBaseIN11MetaPhysicL10DualNumberIdNS1_28SemiDynamicSparseNumberArrayIdmNS1_8NWrapperILm64EEEEELb1EEEEclERKNS_9ElemQpArgERKNS_8StateArgE
FN:550,_ZNK5Moose11FunctorBaseIdEclERKNS_9ElemQpArgERKNS_8StateArgE
FNDA:0,_ZNK5Moose11FunctorBaseIdEclERKNS_9ElemQpArgERKNS_8StateArgE
FN:571,_ZNK5Moose11FunctorBaseIN11MetaPhysicL10DualNumberIdNS1_28SemiDynamicSparseNumberArrayIdmNS1_8NWrapperILm64EEEEELb1EEEEclERKNS_13ElemSideQpArgERKNS_8StateArgE
FNDA:0,_ZNK5Moose11FunctorBaseIN11MetaPhysicL10DualNumberIdNS1_28SemiDynamicSparseNumberArrayIdmNS1_8NWrapperILm64EEEEELb1EEEEclERKNS_13ElemSideQpArgERKNS_8StateArgE
FN:571,_ZNK5Moose11FunctorBaseIdEclERKNS_13ElemSideQpArgERKNS_8StateArgE
FNDA:0,_ZNK5Moose11FunctorBaseIdEclERKNS_13ElemSideQpArgERKNS_8StateArgE
FN:622,_ZNK5Moose11FunctorBaseIdE9checkFaceERKNS_7FaceArgE
FNDA:0,_ZNK5Moose11FunctorBaseIdE9checkFaceERKNS_7FaceArgE
FN:622,_ZNK5Moose11FunctorBaseIN11MetaPhysicL10DualNumberIdNS1_28SemiDynamicSparseNumberArrayIdmNS1_8NWrapperILm64EEEEELb1EEEE9checkFaceERKNS_7FaceArgE
FNDA:0,_ZNK5Moose11FunctorBaseIN11MetaPhysicL10DualNumberIdNS1_28SemiDynamicSparseNumberArrayIdmNS1_8NWrapperILm64EEEEELb1EEEE9checkFaceERKNS_7FaceArgE
FN:681,_ZN5Moose11FunctorBaseIN11MetaPhysicL10DualNumberIdNS1_28SemiDynamicSparseNumberArrayIdmNS1_8NWrapperILm64EEEEELb1EEEE14clearCacheDataEv
FNDA:0,_ZN5Moose11FunctorBaseIN11MetaPhysicL10DualNumberIdNS1_28SemiDynamicSparseNumberArrayIdmNS1_8NWrapperILm64EEEEELb1EEEE14clearCacheDataEv
FN:681,_ZN5Moose11FunctorBaseIdE14clearCacheDataEv
FNDA:0,_ZN5Moose11FunctorBaseIdE14clearCacheDataEv
FN:707,_ZN5Moose11FunctorBaseIN11MetaPhysicL10DualNumberIdNS1_28SemiDynamicSparseNumberArrayIdmNS1_8NWrapperILm64EEEEELb1EEEE13timestepSetupEv
FNDA:0,_ZN5Moose11FunctorBaseIN11MetaPhysicL10DualNumberIdNS1_28SemiDynamicSparseNumberArrayIdmNS1_8NWrapperILm64EEEEELb1EEEE13timestepSetupEv
FN:707,_ZN5Moose11FunctorBaseIdE13timestepSetupEv
FNDA:0,_ZN5Moose11FunctorBaseIdE13timestepSetupEv
FN:715,_ZN5Moose11FunctorBaseIN11MetaPhysicL10DualNumberIdNS1_28SemiDynamicSparseNumberArrayIdmNS1_8NWrapperILm64EEEEELb1EEEE13residualSetupEv
FNDA:0,_ZN5Moose11FunctorBaseIN11MetaPhysicL10DualNumberIdNS1_28SemiDynamicSparseNumberArrayIdmNS1_8NWrapperILm64EEEEELb1EEEE13residualSetupEv
FN:715,_ZN5Moose11FunctorBaseIdE13residualSetupEv
FNDA:0,_ZN5Moose11FunctorBaseIdE13residualSetupEv
FN:723,_ZN5Moose11FunctorBaseIN11MetaPhysicL10DualNumberIdNS1_28SemiDynamicSparseNumberArrayIdmNS1_8NWrapperILm64EEEEELb1EEEE13jacobianSetupEv
FNDA:0,_ZN5Moose11FunctorBaseIN11MetaPhysicL10DualNumberIdNS1_28SemiDynamicSparseNumberArrayIdmNS1_8NWrapperILm64EEEEELb1EEEE13jacobianSetupEv
FN:723,_ZN5Moose11FunctorBaseIdE13jacobianSetupEv
FNDA:0,_ZN5Moose11FunctorBaseIdE13jacobianSetupEv
FN:731,_ZN5Moose11FunctorBaseIN11MetaPhysicL10DualNumberIdNS1_28SemiDynamicSparseNumberArrayIdmNS1_8NWrapperILm64EEEEELb1EEEE11customSetupERK13MooseEnumItem
FNDA:0,_ZN5Moose11FunctorBaseIN11MetaPhysicL10DualNumberIdNS1_28SemiDynamicSparseNumberArrayIdmNS1_8NWrapperILm64EEEEELb1EEEE11customSetupERK13MooseEnumItem
FN:731,_ZN5Moose11FunctorBaseIdE11customSetupERK13MooseEnumItem
FNDA:0,_ZN5Moose11FunctorBaseIdE11customSetupERK13MooseEnumItem
FN:746,_ZNK5Moose11FunctorBaseIdE8gradientERKNS_7FaceArgERKNS_8StateArgE
FNDA:0,_ZNK5Moose11FunctorBaseIdE8gradientERKNS_7FaceArgERKNS_8StateArgE
FN:746,_ZNK5Moose11FunctorBaseIN11MetaPhysicL10DualNumberIdNS1_28SemiDynamicSparseNumberArrayIdmNS1_8NWrapperILm64EEEEELb1EEEE8gradientERKNS_7FaceArgERKNS_8StateArgE
FNDA:0,_ZNK5Moose11FunctorBaseIN11MetaPhysicL10DualNumberIdNS1_28SemiDynamicSparseNumberArrayIdmNS1_8NWrapperILm64EEEEELb1EEEE8gradientERKNS_7FaceArgERKNS_8StateArgE
FN:788,_ZNK5Moose11FunctorBaseIdE3dotERKNS_7FaceArgERKNS_8StateArgE
FNDA:0,_ZNK5Moose11FunctorBaseIdE3dotERKNS_7FaceArgERKNS_8StateArgE
FN:788,_ZNK5Moose11FunctorBaseIN11MetaPhysicL10DualNumberIdNS1_28SemiDynamicSparseNumberArrayIdmNS1_8NWrapperILm64EEEEELb1EEEE3dotERKNS_7FaceArgERKNS_8StateArgE
FNDA:0,_ZNK5Moose11FunctorBaseIN11MetaPhysicL10DualNumberIdNS1_28SemiDynamicSparseNumberArrayIdmNS1_8NWrapperILm64EEEEELb1EEEE3dotERKNS_7FaceArgERKNS_8StateArgE
FN:830,_ZNK5Moose11FunctorBaseIdE7gradDotERKNS_7FaceArgERKNS_8StateArgE
FNDA:0,_ZNK5Moose11FunctorBaseIdE7gradDotERKNS_7FaceArgERKNS_8StateArgE
FN:830,_ZNK5Moose11FunctorBaseIN11MetaPhysicL10DualNumberIdNS1_28SemiDynamicSparseNumberArrayIdmNS1_8NWrapperILm64EEEEELb1EEEE7gradDotERKNS_7FaceArgERKNS_8StateArgE
FNDA:0,_ZNK5Moose11FunctorBaseIN11MetaPhysicL10DualNumberIdNS1_28SemiDynamicSparseNumberArrayIdmNS1_8NWrapperILm64EEEEELb1EEEE7gradDotERKNS_7FaceArgERKNS_8StateArgE
FN:865,_ZNK5Moose11FunctorBaseIN11MetaPhysicL10DualNumberIdNS1_28SemiDynamicSparseNumberArrayIdmNS1_8NWrapperILm64EEEEELb1EEEE11hasFaceSideERK8FaceInfob
FNDA:0,_ZNK5Moose11FunctorBaseIN11MetaPhysicL10DualNumberIdNS1_28SemiDynamicSparseNumberArrayIdmNS1_8NWrapperILm64EEEEELb1EEEE11hasFaceSideERK8FaceInfob
FN:865,_ZNK5Moose11FunctorBaseIdE11hasFaceSideERK8FaceInfob
FNDA:0,_ZNK5Moose11FunctorBaseIdE11hasFaceSideERK8FaceInfob
FN:979,_ZN5Moose15FunctorEnvelopeIN11MetaPhysicL10DualNumberIdNS1_28SemiDynamicSparseNumberArrayIdmNS1_8NWrapperILm64EEEEELb1EEEED0Ev
FNDA:0,_ZN5Moose15FunctorEnvelopeIN11MetaPhysicL10DualNumberIdNS1_28SemiDynamicSparseNumberArrayIdmNS1_8NWrapperILm64EEEEELb1EEEED0Ev
FN:979,_ZN5Moose15FunctorEnvelopeIN11MetaPhysicL10DualNumberIdNS1_28SemiDynamicSparseNumberArrayIdmNS1_8NWrapperILm64EEEEELb1EEEED2Ev
FNDA:0,_ZN5Moose15FunctorEnvelopeIN11MetaPhysicL10DualNumberIdNS1_28SemiDynamicSparseNumberArrayIdmNS1_8NWrapperILm64EEEEELb1EEEED2Ev
FN:979,_ZN5Moose15FunctorEnvelopeIdED0Ev
FNDA:0,_ZN5Moose15FunctorEnvelopeIdED0Ev
FN:979,_ZN5Moose15FunctorEnvelopeIdED2Ev
FNDA:0,_ZN5Moose15FunctorEnvelopeIdED2Ev
FN:984,_ZNK5Moose15FunctorEnvelopeIdE9wrapsNullEv
FNDA:0,_ZNK5Moose15FunctorEnvelopeIdE9wrapsNullEv
FN:984,_ZNK5Moose15FunctorEnvelopeIN11MetaPhysicL10DualNumberIdNS1_28SemiDynamicSparseNumberArrayIdmNS1_8NWrapperILm64EEEEELb1EEEE9wrapsNullEv
FNDA:0,_ZNK5Moose15FunctorEnvelopeIN11MetaPhysicL10DualNumberIdNS1_28SemiDynamicSparseNumberArrayIdmNS1_8NWrapperILm64EEEEELb1EEEE9wrapsNullEv
FN:989,_ZNK5Moose15FunctorEnvelopeIdE10returnTypeB5cxx11Ev
FNDA:0,_ZNK5Moose15FunctorEnvelopeIdE10returnTypeB5cxx11Ev
FN:989,_ZNK5Moose15FunctorEnvelopeIN11MetaPhysicL10DualNumberIdNS1_28SemiDynamicSparseNumberArrayIdmNS1_8NWrapperILm64EEEEELb1EEEE10returnTypeB5cxx11Ev
FNDA:0,_ZNK5Moose15FunctorEnvelopeIN11MetaPhysicL10DualNumberIdNS1_28SemiDynamicSparseNumberArrayIdmNS1_8NWrapperILm64EEEEELb1EEEE10returnTypeB5cxx11Ev
FN:991,_ZNK5Moose15FunctorEnvelopeIdE18ownsWrappedFunctorEv
FNDA:0,_ZNK5Moose15FunctorEnvelopeIdE18ownsWrappedFunctorEv
FN:991,_ZNK5Moose15FunctorEnvelopeIN11MetaPhysicL10DualNumberIdNS1_28SemiDynamicSparseNumberArrayIdmNS1_8NWrapperILm64EEEEELb1EEEE18ownsWrappedFunctorEv
FNDA:0,_ZNK5Moose15FunctorEnvelopeIN11MetaPhysicL10DualNumberIdNS1_28SemiDynamicSparseNumberArrayIdmNS1_8NWrapperILm64EEEEELb1EEEE18ownsWrappedFunctorEv
FN:997,_ZNK5Moose15FunctorEnvelopeIdE9wrapsTypeINS_11NullFunctorIdEEEEbv
FNDA:0,_ZNK5Moose15FunctorEnvelopeIdE9wrapsTypeINS_11NullFunctorIdEEEEbv
FN:997,_ZNK5Moose15FunctorEnvelopeIN11MetaPhysicL10DualNumberIdNS1_28SemiDynamicSparseNumberArrayIdmNS1_8NWrapperILm64EEEEELb1EEEE9wrapsTypeINS_11NullFunctorIS7_EEEEbv
FNDA:0,_ZNK5Moose15FunctorEnvelopeIN11MetaPhysicL10DualNumberIdNS1_28SemiDynamicSparseNumberArrayIdmNS1_8NWrapperILm64EEEEELb1EEEE9wrapsTypeINS_11NullFunctorIS7_EEEEbv
FN:1002,_ZNK5Moose15FunctorEnvelopeIdE26isExtrapolatedBoundaryFaceERK8FaceInfoPKN7libMesh4ElemERKNS_8StateArgE
FNDA:0,_ZNK5Moose15FunctorEnvelopeIdE26isExtrapolatedBoundaryFaceERK8FaceInfoPKN7libMesh4ElemERKNS_8StateArgE
FN:1002,_ZNK5Moose15FunctorEnvelopeIN11MetaPhysicL10DualNumberIdNS1_28SemiDynamicSparseNumberArrayIdmNS1_8NWrapperILm64EEEEELb1EEEE26isExtrapolatedBoundaryFaceERK8FaceInfoPKN7libMesh4ElemERKNS_8StateArgE
FNDA:0,_ZNK5Moose15FunctorEnvelopeIN11MetaPhysicL10DualNumberIdNS1_28SemiDynamicSparseNumberArrayIdmNS1_8NWrapperILm64EEEEELb1EEEE26isExtrapolatedBoundaryFaceERK8FaceInfoPKN7libMesh4ElemERKNS_8StateArgE
FN:1008,_ZNK5Moose15FunctorEnvelopeIN11MetaPhysicL10DualNumberIdNS1_28SemiDynamicSparseNumberArrayIdmNS1_8NWrapperILm64EEEEELb1EEEE10isConstantEv
FNDA:0,_ZNK5Moose15FunctorEnvelopeIN11MetaPhysicL10DualNumberIdNS1_28SemiDynamicSparseNumberArrayIdmNS1_8NWrapperILm64EEEEELb1EEEE10isConstantEv
FN:1008,_ZNK5Moose15FunctorEnvelopeIdE10isConstantEv
FNDA:0,_ZNK5Moose15FunctorEnvelopeIdE10isConstantEv
FN:1009,_ZNK5Moose15FunctorEnvelopeIdE9hasBlocksEt
FNDA:0,_ZNK5Moose15FunctorEnvelopeIdE9hasBlocksEt
FN:1009,_ZNK5Moose15FunctorEnvelopeIN11MetaPhysicL10DualNumberIdNS1_28SemiDynamicSparseNumberArrayIdmNS1_8NWrapperILm64EEEEELb1EEEE9hasBlocksEt
FNDA:0,_ZNK5Moose15FunctorEnvelopeIN11MetaPhysicL10DualNumberIdNS1_28SemiDynamicSparseNumberArrayIdmNS1_8NWrapperILm64EEEEELb1EEEE9hasBlocksEt
FN:1010,_ZNK5Moose15FunctorEnvelopeIdE11hasFaceSideERK8FaceInfob
FNDA:0,_ZNK5Moose15FunctorEnvelopeIdE11hasFaceSideERK8FaceInfob
FN:1010,_ZNK5Moose15FunctorEnvelopeIN11MetaPhysicL10DualNumberIdNS1_28SemiDynamicSparseNumberArrayIdmNS1_8NWrapperILm64EEEEELb1EEEE11hasFaceSideERK8FaceInfob
FNDA:0,_ZNK5Moose15FunctorEnvelopeIN11MetaPhysicL10DualNumberIdNS1_28SemiDynamicSparseNumberArrayIdmNS1_8NWrapperILm64EEEEELb1EEEE11hasFaceSideERK8FaceInfob
FN:1020,_ZNK5Moose15FunctorEnvelopeIdE8evaluateERKNS_7ElemArgERKNS_8StateArgE
FNDA:0,_ZNK5Moose15FunctorEnvelopeIdE8evaluateERKNS_7ElemArgERKNS_8StateArgE
FN:1020,_ZNK5Moose15FunctorEnvelopeIN11MetaPhysicL10DualNumberIdNS1_28SemiDynamicSparseNumberArrayIdmNS1_8NWrapperILm64EEEEELb1EEEE8evaluateERKNS_7ElemArgERKNS_8StateArgE
FNDA:0,_ZNK5Moose15FunctorEnvelopeIN11MetaPhysicL10DualNumberIdNS1_28SemiDynamicSparseNumberArrayIdmNS1_8NWrapperILm64EEEEELb1EEEE8evaluateERKNS_7ElemArgERKNS_8StateArgE
FN:1024,_ZNK5Moose15FunctorEnvelopeIdE8evaluateERKNS_7FaceArgERKNS_8StateArgE
FNDA:0,_ZNK5Moose15FunctorEnvelopeIdE8evaluateERKNS_7FaceArgERKNS_8StateArgE
FN:1024,_ZNK5Moose15FunctorEnvelopeIN11MetaPhysicL10DualNumberIdNS1_28SemiDynamicSparseNumberArrayIdmNS1_8NWrapperILm64EEEEELb1EEEE8evaluateERKNS_7FaceArgERKNS_8StateArgE
FNDA:0,_ZNK5Moose15FunctorEnvelopeIN11MetaPhysicL10DualNumberIdNS1_28SemiDynamicSparseNumberArrayIdmNS1_8NWrapperILm64EEEEELb1EEEE8evaluateERKNS_7FaceArgERKNS_8StateArgE
FN:1028,_ZNK5Moose15FunctorEnvelopeIdE8evaluateERKNS_9ElemQpArgERKNS_8StateArgE
FNDA:0,_ZNK5Moose15FunctorEnvelopeIdE8evaluateERKNS_9ElemQpArgERKNS_8StateArgE
FN:1028,_ZNK5Moose15FunctorEnvelopeIN11MetaPhysicL10DualNumberIdNS1_28SemiDynamicSparseNumberArrayIdmNS1_8NWrapperILm64EEEEELb1EEEE8evaluateERKNS_9ElemQpArgERKNS_8StateArgE
FNDA:0,_ZNK5Moose15FunctorEnvelopeIN11MetaPhysicL10DualNumberIdNS1_28SemiDynamicSparseNumberArrayIdmNS1_8NWrapperILm64EEEEELb1EEEE8evaluateERKNS_9ElemQpArgERKNS_8StateArgE
FN:1032,_ZNK5Moose15FunctorEnvelopeIdE8evaluateERKNS_13ElemSideQpArgERKNS_8StateArgE
FNDA:0,_ZNK5Moose15FunctorEnvelopeIdE8evaluateERKNS_13ElemSideQpArgERKNS_8StateArgE
FN:1032,_ZNK5Moose15FunctorEnvelopeIN11MetaPhysicL10DualNumberIdNS1_28SemiDynamicSparseNumberArrayIdmNS1_8NWrapperILm64EEEEELb1EEEE8evaluateERKNS_13ElemSideQpArgERKNS_8StateArgE
FNDA:0,_ZNK5Moose15FunctorEnvelopeIN11MetaPhysicL10DualNumberIdNS1_28SemiDynamicSparseNumberArrayIdmNS1_8NWrapperILm64EEEEELb1EEEE8evaluateERKNS_13ElemSideQpArgERKNS_8StateArgE
FN:1036,_ZNK5Moose15FunctorEnvelopeIdE8evaluateERKNS_12ElemPointArgERKNS_8StateArgE
FNDA:0,_ZNK5Moose15FunctorEnvelopeIdE8evaluateERKNS_12ElemPointArgERKNS_8StateArgE
FN:1036,_ZNK5Moose15FunctorEnvelopeIN11MetaPhysicL10DualNumberIdNS1_28SemiDynamicSparseNumberArrayIdmNS1_8NWrapperILm64EEEEELb1EEEE8evaluateERKNS_12ElemPointArgERKNS_8StateArgE
FNDA:0,_ZNK5Moose15FunctorEnvelopeIN11MetaPhysicL10DualNumberIdNS1_28SemiDynamicSparseNumberArrayIdmNS1_8NWrapperILm64EEEEELb1EEEE8evaluateERKNS_12ElemPointArgERKNS_8StateArgE
FN:1040,_ZNK5Moose15FunctorEnvelopeIdE8evaluateERKNS_7NodeArgERKNS_8StateArgE
FNDA:0,_ZNK5Moose15FunctorEnvelopeIdE8evaluateERKNS_7NodeArgERKNS_8StateArgE
FN:1040,_ZNK5Moose15FunctorEnvelopeIN11MetaPhysicL10DualNumberIdNS1_28SemiDynamicSparseNumberArrayIdmNS1_8NWrapperILm64EEEEELb1EEEE8evaluateERKNS_7NodeArgERKNS_8StateArgE
FNDA:0,_ZNK5Moose15FunctorEnvelopeIN11MetaPhysicL10DualNumberIdNS1_28SemiDynamicSparseNumberArrayIdmNS1_8NWrapperILm64EEEEELb1EEEE8evaluateERKNS_7NodeArgERKNS_8StateArgE
FN:1045,_ZNK5Moose15FunctorEnvelopeIdE16evaluateGradientERKNS_7ElemArgERKNS_8StateArgE
FNDA:0,_ZNK5Moose15FunctorEnvelopeIdE16evaluateGradientERKNS_7ElemArgERKNS_8StateArgE
FN:1045,_ZNK5Moose15FunctorEnvelopeIN11MetaPhysicL10DualNumberIdNS1_28SemiDynamicSparseNumberArrayIdmNS1_8NWrapperILm64EEEEELb1EEEE16evaluateGradientERKNS_7ElemArgERKNS_8StateArgE
FNDA:0,_ZNK5Moose15FunctorEnvelopeIN11MetaPhysicL10DualNumberIdNS1_28SemiDynamicSparseNumberArrayIdmNS1_8NWrapperILm64EEEEELb1EEEE16evaluateGradientERKNS_7ElemArgERKNS_8StateArgE
FN:1049,_ZNK5Moose15FunctorEnvelopeIdE16evaluateGradientERKNS_7FaceArgERKNS_8StateArgE
FNDA:0,_ZNK5Moose15FunctorEnvelopeIdE16evaluateGradientERKNS_7FaceArgERKNS_8StateArgE
FN:1049,_ZNK5Moose15FunctorEnvelopeIN11MetaPhysicL10DualNumberIdNS1_28SemiDynamicSparseNumberArrayIdmNS1_8NWrapperILm64EEEEELb1EEEE16evaluateGradientERKNS_7FaceArgERKNS_8StateArgE
FNDA:0,_ZNK5Moose15FunctorEnvelopeIN11MetaPhysicL10DualNumberIdNS1_28SemiDynamicSparseNumberArrayIdmNS1_8NWrapperILm64EEEEELb1EEEE16evaluateGradientERKNS_7FaceArgERKNS_8StateArgE
FN:1053,_ZNK5Moose15FunctorEnvelopeIdE16evaluateGradientERKNS_9ElemQpArgERKNS_8StateArgE
FNDA:0,_ZNK5Moose15FunctorEnvelopeIdE16evaluateGradientERKNS_9ElemQpArgERKNS_8StateArgE
FN:1053,_ZNK5Moose15FunctorEnvelopeIN11MetaPhysicL10DualNumberIdNS1_28SemiDynamicSparseNumberArrayIdmNS1_8NWrapperILm64EEEEELb1EEEE16evaluateGradientERKNS_9ElemQpArgERKNS_8StateArgE
FNDA:0,_ZNK5Moose15FunctorEnvelopeIN11MetaPhysicL10DualNumberIdNS1_28SemiDynamicSparseNumberArrayIdmNS1_8NWrapperILm64EEEEELb1EEEE16evaluateGradientERKNS_9ElemQpArgERKNS_8StateArgE
FN:1057,_ZNK5Moose15FunctorEnvelopeIdE16evaluateGradientERKNS_13ElemSideQpArgERKNS_8StateArgE
FNDA:0,_ZNK5Moose15FunctorEnvelopeIdE16evaluateGradientERKNS_13ElemSideQpArgERKNS_8StateArgE
FN:1057,_ZNK5Moose15FunctorEnvelopeIN11MetaPhysicL10DualNumberIdNS1_28SemiDynamicSparseNumberArrayIdmNS1_8NWrapperILm64EEEEELb1EEEE16evaluateGradientERKNS_13ElemSideQpArgERKNS_8StateArgE
FNDA:0,_ZNK5Moose15FunctorEnvelopeIN11MetaPhysicL10DualNumberIdNS1_28SemiDynamicSparseNumberArrayIdmNS1_8NWrapperILm64EEEEELb1EEEE16evaluateGradientERKNS_13ElemSideQpArgERKNS_8StateArgE
FN:1062,_ZNK5Moose15FunctorEnvelopeIdE16evaluateGradientERKNS_12ElemPointArgERKNS_8StateArgE
FNDA:0,_ZNK5Moose15FunctorEnvelopeIdE16evaluateGradientERKNS_12ElemPointArgERKNS_8StateArgE
FN:1062,_ZNK5Moose15FunctorEnvelopeIN11MetaPhysicL10DualNumberIdNS1_28SemiDynamicSparseNumberArrayIdmNS1_8NWrapperILm64EEEEELb1EEEE16evaluateGradientERKNS_12ElemPointArgERKNS_8StateArgE
FNDA:0,_ZNK5Moose15FunctorEnvelopeIN11MetaPhysicL10DualNumberIdNS1_28SemiDynamicSparseNumberArrayIdmNS1_8NWrapperILm64EEEEELb1EEEE16evaluateGradientERKNS_12ElemPointArgERKNS_8StateArgE
FN:1067,_ZNK5Moose15FunctorEnvelopeIN11MetaPhysicL10DualNumberIdNS1_28SemiDynamicSparseNumberArrayIdmNS1_8NWrapperILm64EEEEELb1EEEE16evaluateGradientERKNS_7NodeArgERKNS_8StateArgE
FNDA:0,_ZNK5Moose15FunctorEnvelopeIN11MetaPhysicL10DualNumberIdNS1_28SemiDynamicSparseNumberArrayIdmNS1_8NWrapperILm64EEEEELb1EEEE16evaluateGradientERKNS_7NodeArgERKNS_8StateArgE
FN:1067,_ZNK5Moose15FunctorEnvelopeIdE16evaluateGradientERKNS_7NodeArgERKNS_8StateArgE
FNDA:0,_ZNK5Moose15FunctorEnvelopeIdE16evaluateGradientERKNS_7NodeArgERKNS_8StateArgE
FN:1072,_ZNK5Moose15FunctorEnvelopeIdE11evaluateDotERKNS_7ElemArgERKNS_8StateArgE
FNDA:0,_ZNK5Moose15FunctorEnvelopeIdE11evaluateDotERKNS_7ElemArgERKNS_8StateArgE
FN:1072,_ZNK5Moose15FunctorEnvelopeIN11MetaPhysicL10DualNumberIdNS1_28SemiDynamicSparseNumberArrayIdmNS1_8NWrapperILm64EEEEELb1EEEE11evaluateDotERKNS_7ElemArgERKNS_8StateArgE
FNDA:0,_ZNK5Moose15FunctorEnvelopeIN11MetaPhysicL10DualNumberIdNS1_28SemiDynamicSparseNumberArrayIdmNS1_8NWrapperILm64EEEEELb1EEEE11evaluateDotERKNS_7ElemArgERKNS_8StateArgE
FN:1076,_ZNK5Moose15FunctorEnvelopeIN11MetaPhysicL10DualNumberIdNS1_28SemiDynamicSparseNumberArrayIdmNS1_8NWrapperILm64EEEEELb1EEEE11evaluateDotERKNS_7FaceArgERKNS_8StateArgE
FNDA:0,_ZNK5Moose15FunctorEnvelopeIN11MetaPhysicL10DualNumberIdNS1_28SemiDynamicSparseNumberArrayIdmNS1_8NWrapperILm64EEEEELb1EEEE11evaluateDotERKNS_7FaceArgERKNS_8StateArgE
FN:1076,_ZNK5Moose15FunctorEnvelopeIdE11evaluateDotERKNS_7FaceArgERKNS_8StateArgE
FNDA:0,_ZNK5Moose15FunctorEnvelopeIdE11evaluateDotERKNS_7FaceArgERKNS_8StateArgE
FN:1080,_ZNK5Moose15FunctorEnvelopeIN11MetaPhysicL10DualNumberIdNS1_28SemiDynamicSparseNumberArrayIdmNS1_8NWrapperILm64EEEEELb1EEEE11evaluateDotERKNS_9ElemQpArgERKNS_8StateArgE
FNDA:0,_ZNK5Moose15FunctorEnvelopeIN11MetaPhysicL10DualNumberIdNS1_28SemiDynamicSparseNumberArrayIdmNS1_8NWrapperILm64EEEEELb1EEEE11evaluateDotERKNS_9ElemQpArgERKNS_8StateArgE
FN:1080,_ZNK5Moose15FunctorEnvelopeIdE11evaluateDotERKNS_9ElemQpArgERKNS_8StateArgE
FNDA:0,_ZNK5Moose15FunctorEnvelopeIdE11evaluateDotERKNS_9ElemQpArgERKNS_8StateArgE
FN:1084,_ZNK5Moose15FunctorEnvelopeIN11MetaPhysicL10DualNumberIdNS1_28SemiDynamicSparseNumberArrayIdmNS1_8NWrapperILm64EEEEELb1EEEE11evaluateDotERKNS_13ElemSideQpArgERKNS_8StateArgE
FNDA:0,_ZNK5Moose15FunctorEnvelopeIN11MetaPhysicL10DualNumberIdNS1_28SemiDynamicSparseNumberArrayIdmNS1_8NWrapperILm64EEEEELb1EEEE11evaluateDotERKNS_13ElemSideQpArgERKNS_8StateArgE
FN:1084,_ZNK5Moose15FunctorEnvelopeIdE11evaluateDotERKNS_13ElemSideQpArgERKNS_8StateArgE
FNDA:0,_ZNK5Moose15FunctorEnvelopeIdE11evaluateDotERKNS_13ElemSideQpArgERKNS_8StateArgE
FN:1088,_ZNK5Moose15FunctorEnvelopeIdE11evaluateDotERKNS_12ElemPointArgERKNS_8StateArgE
FNDA:0,_ZNK5Moose15FunctorEnvelopeIdE11evaluateDotERKNS_12ElemPointArgERKNS_8StateArgE
FN:1088,_ZNK5Moose15FunctorEnvelopeIN11MetaPhysicL10DualNumberIdNS1_28SemiDynamicSparseNumberArrayIdmNS1_8NWrapperILm64EEEEELb1EEEE11evaluateDotERKNS_12ElemPointArgERKNS_8StateArgE
FNDA:0,_ZNK5Moose15FunctorEnvelopeIN11MetaPhysicL10DualNumberIdNS1_28SemiDynamicSparseNumberArrayIdmNS1_8NWrapperILm64EEEEELb1EEEE11evaluateDotERKNS_12ElemPointArgERKNS_8StateArgE
FN:1093,_ZNK5Moose15FunctorEnvelopeIN11MetaPhysicL10DualNumberIdNS1_28SemiDynamicSparseNumberArrayIdmNS1_8NWrapperILm64EEEEELb1EEEE11evaluateDotERKNS_7NodeArgERKNS_8StateArgE
FNDA:0,_ZNK5Moose15FunctorEnvelopeIN11MetaPhysicL10DualNumberIdNS1_28SemiDynamicSparseNumberArrayIdmNS1_8NWrapperILm64EEEEELb1EEEE11evaluateDotERKNS_7NodeArgERKNS_8StateArgE
FN:1093,_ZNK5Moose15FunctorEnvelopeIdE11evaluateDotERKNS_7NodeArgERKNS_8StateArgE
FNDA:0,_ZNK5Moose15FunctorEnvelopeIdE11evaluateDotERKNS_7NodeArgERKNS_8StateArgE
FN:1098,_ZNK5Moose15FunctorEnvelopeIN11MetaPhysicL10DualNumberIdNS1_28SemiDynamicSparseNumberArrayIdmNS1_8NWrapperILm64EEEEELb1EEEE15evaluateGradDotERKNS_7ElemArgERKNS_8StateArgE
FNDA:0,_ZNK5Moose15FunctorEnvelopeIN11MetaPhysicL10DualNumberIdNS1_28SemiDynamicSparseNumberArrayIdmNS1_8NWrapperILm64EEEEELb1EEEE15evaluateGradDotERKNS_7ElemArgERKNS_8StateArgE
FN:1098,_ZNK5Moose15FunctorEnvelopeIdE15evaluateGradDotERKNS_7ElemArgERKNS_8StateArgE
FNDA:0,_ZNK5Moose15FunctorEnvelopeIdE15evaluateGradDotERKNS_7ElemArgERKNS_8StateArgE
FN:1102,_ZNK5Moose15FunctorEnvelopeIN11MetaPhysicL10DualNumberIdNS1_28SemiDynamicSparseNumberArrayIdmNS1_8NWrapperILm64EEEEELb1EEEE15evaluateGradDotERKNS_7FaceArgERKNS_8StateArgE
FNDA:0,_ZNK5Moose15FunctorEnvelopeIN11MetaPhysicL10DualNumberIdNS1_28SemiDynamicSparseNumberArrayIdmNS1_8NWrapperILm64EEEEELb1EEEE15evaluateGradDotERKNS_7FaceArgERKNS_8StateArgE
FN:1102,_ZNK5Moose15FunctorEnvelopeIdE15evaluateGradDotERKNS_7FaceArgERKNS_8StateArgE
FNDA:0,_ZNK5Moose15FunctorEnvelopeIdE15evaluateGradDotERKNS_7FaceArgERKNS_8StateArgE
FN:1106,_ZNK5Moose15FunctorEnvelopeIN11MetaPhysicL10DualNumberIdNS1_28SemiDynamicSparseNumberArrayIdmNS1_8NWrapperILm64EEEEELb1EEEE15evaluateGradDotERKNS_9ElemQpArgERKNS_8StateArgE
FNDA:0,_ZNK5Moose15FunctorEnvelopeIN11MetaPhysicL10DualNumberIdNS1_28SemiDynamicSparseNumberArrayIdmNS1_8NWrapperILm64EEEEELb1EEEE15evaluateGradDotERKNS_9ElemQpArgERKNS_8StateArgE
FN:1106,_ZNK5Moose15FunctorEnvelopeIdE15evaluateGradDotERKNS_9ElemQpArgERKNS_8StateArgE
FNDA:0,_ZNK5Moose15FunctorEnvelopeIdE15evaluateGradDotERKNS_9ElemQpArgERKNS_8StateArgE
FN:1110,_ZNK5Moose15FunctorEnvelopeIN11MetaPhysicL10DualNumberIdNS1_28SemiDynamicSparseNumberArrayIdmNS1_8NWrapperILm64EEEEELb1EEEE15evaluateGradDotERKNS_13ElemSideQpArgERKNS_8StateArgE
FNDA:0,_ZNK5Moose15FunctorEnvelopeIN11MetaPhysicL10DualNumberIdNS1_28SemiDynamicSparseNumberArrayIdmNS1_8NWrapperILm64EEEEELb1EEEE15evaluateGradDotERKNS_13ElemSideQpArgERKNS_8StateArgE
FN:1110,_ZNK5Moose15FunctorEnvelopeIdE15evaluateGradDotERKNS_13ElemSideQpArgERKNS_8StateArgE
FNDA:0,_ZNK5Moose15FunctorEnvelopeIdE15evaluateGradDotERKNS_13ElemSideQpArgERKNS_8StateArgE
FN:1115,_ZNK5Moose15FunctorEnvelopeIdE15evaluateGradDotERKNS_12ElemPointArgERKNS_8StateArgE
FNDA:0,_ZNK5Moose15FunctorEnvelopeIdE15evaluateGradDotERKNS_12ElemPointArgERKNS_8StateArgE
FN:1115,_ZNK5Moose15FunctorEnvelopeIN11MetaPhysicL10DualNumberIdNS1_28SemiDynamicSparseNumberArrayIdmNS1_8NWrapperILm64EEEEELb1EEEE15evaluateGradDotERKNS_12ElemPointArgERKNS_8StateArgE
FNDA:0,_ZNK5Moose15FunctorEnvelopeIN11MetaPhysicL10DualNumberIdNS1_28SemiDynamicSparseNumberArrayIdmNS1_8NWrapperILm64EEEEELb1EEEE15evaluateGradDotERKNS_12ElemPointArgERKNS_8StateArgE
FN:1120,_ZNK5Moose15FunctorEnvelopeIdE15evaluateGradDotERKNS_7NodeArgERKNS_8StateArgE
FNDA:0,_ZNK5Moose15FunctorEnvelopeIdE15evaluateGradDotERKNS_7NodeArgERKNS_8StateArgE
FN:1120,_ZNK5Moose15FunctorEnvelopeIN11MetaPhysicL10DualNumberIdNS1_28SemiDynamicSparseNumberArrayIdmNS1_8NWrapperILm64EEEEELb1EEEE15evaluateGradDotERKNS_7NodeArgERKNS_8StateArgE
FNDA:0,_ZNK5Moose15FunctorEnvelopeIN11MetaPhysicL10DualNumberIdNS1_28SemiDynamicSparseNumberArrayIdmNS1_8NWrapperILm64EEEEELb1EEEE15evaluateGradDotERKNS_7NodeArgERKNS_8StateArgE
FNF:150
FNH:0
DA:69,0
DA:69,0
DA:69,0
DA:69,0
DA:144,0
DA:146,0
DA:144,0
DA:146,0
DA:154,0
DA:156,0
DA:154,0
DA:156,0
DA:167,0
DA:167,0
DA:229,0
DA:231,0
DA:229,0
DA:231,0
DA:239,0
DA:241,0
DA:239,0
DA:241,0
DA:249,0
DA:251,0
DA:249,0
DA:251,0
DA:259,0
DA:261,0
DA:259,0
DA:261,0
DA:268,0
DA:270,0
DA:268,0
DA:270,0
DA:273,0
DA:275,0
DA:273,0
DA:275,0
DA:282,0
DA:284,0
DA:282,0
DA:284,0
DA:292,0
DA:294,0
DA:292,0
DA:294,0
DA:302,0
DA:304,0
DA:302,0
DA:304,0
DA:313,0
DA:315,0
DA:313,0
DA:315,0
DA:322,0
DA:324,0
DA:322,0
DA:324,0
DA:327,0
DA:329,0
DA:327,0
DA:329,0
DA:336,0
DA:338,0
DA:336,0
DA:338,0
DA:346,0
DA:348,0
DA:346,0
DA:348,0
DA:356,0
DA:358,0
DA:356,0
DA:358,0
DA:367,0
DA:369,0
DA:367,0
DA:369,0
DA:376,0
DA:378,0
DA:376,0
DA:378,0
DA:381,0
DA:383,0
DA:381,0
DA:383,0
DA:474,0
DA:478,0
DA:481,0
DA:484,0
DA:486,0
DA:474,0
DA:478,0
DA:481,0
DA:484,0
DA:486,0
DA:474,0
DA:478,0
DA:479,0
DA:481,0
DA:484,0
DA:486,0
DA:474,0
DA:478,0
DA:479,0
DA:481,0
DA:484,0
DA:486,0
DA:491,0
DA:494,0
DA:499,0
DA:491,0
DA:494,0
DA:499,0
DA:504,0
DA:506,0
DA:509,0
DA:514,0
DA:504,0
DA:506,0
DA:509,0
DA:514,0
DA:520,0
DA:528,0
DA:530,0
DA:532,0
DA:533,0
DA:534,0
DA:539,0
DA:540,0
DA:543,0
DA:544,0
DA:545,0
DA:520,0
DA:528,0
DA:530,0
DA:532,0
DA:533,0
DA:534,0
DA:539,0
DA:540,0
DA:543,0
DA:544,0
DA:545,0
DA:520,0
DA:528,0
DA:530,0
DA:532,0
DA:533,0
DA:534,0
DA:539,0
DA:540,0
DA:543,0
DA:544,0
DA:545,0
DA:520,0
DA:528,0
DA:530,0
DA:532,0
DA:533,0
DA:534,0
DA:539,0
DA:540,0
DA:543,0
DA:544,0
DA:545,0
DA:550,0
DA:553,0
DA:555,0
DA:556,0
DA:558,0
DA:559,0
DA:561,0
DA:562,0
DA:563,0
DA:566,0
DA:550,0
DA:553,0
DA:555,0
DA:556,0
DA:558,0
DA:559,0
DA:561,0
DA:562,0
DA:563,0
DA:566,0
DA:571,0
DA:574,0
DA:576,0
DA:578,0
DA:579,0
DA:581,0
DA:582,0
DA:584,0
DA:585,0
DA:586,0
DA:587,0
DA:591,0
DA:592,0
DA:596,0
DA:571,0
DA:574,0
DA:576,0
DA:578,0
DA:579,0
DA:581,0
DA:582,0
DA:584,0
DA:585,0
DA:586,0
DA:587,0
DA:591,0
DA:592,0
DA:596,0
DA:603,0
DA:617,0
DA:622,0
DA:624,0
DA:625,0
DA:627,0
DA:630,0
DA:632,0
DA:634,0
DA:637,0
DA:639,0
DA:643,0
DA:651,0
DA:653,0
DA:654,0
DA:656,0
DA:657,0
DA:663,0
DA:665,0
DA:666,0
DA:668,0
DA:669,0
DA:670,0
DA:676,0
DA:622,0
DA:624,0
DA:625,0
DA:627,0
DA:630,0
DA:632,0
DA:634,0
DA:637,0
DA:639,0
DA:643,0
DA:651,0
DA:653,0
DA:654,0
DA:656,0
DA:657,0
DA:663,0
DA:665,0
DA:666,0
DA:668,0
DA:669,0
DA:670,0
DA:676,0
DA:681,0
DA:683,0
DA:684,0
DA:685,0
DA:687,0
DA:690,0
DA:691,0
DA:692,0
DA:695,0
DA:696,0
DA:697,0
DA:698,0
DA:703,0
DA:681,0
DA:683,0
DA:684,0
DA:685,0
DA:687,0
DA:690,0
DA:691,0
DA:692,0
DA:695,0
DA:696,0
DA:697,0
DA:698,0
DA:703,0
DA:707,0
DA:710,0
DA:711,0
DA:707,0
DA:710,0
DA:711,0
DA:715,0
DA:718,0
DA:719,0
DA:715,0
DA:718,0
DA:719,0
DA:723,0
DA:726,0
DA:727,0
DA:723,0
DA:726,0
DA:727,0
DA:731,0
DA:734,0
DA:735,0
DA:731,0
DA:734,0
DA:735,0
DA:741,0
DA:746,0
DA:748,0
DA:746,0
DA:748,0
DA:755,0
DA:762,0
DA:769,0
DA:776,0
DA:783,0
DA:788,0
DA:790,0
DA:788,0
DA:790,0
DA:797,0
DA:804,0
DA:811,0
DA:818,0
DA:825,0
DA:830,0
DA:832,0
DA:830,0
DA:832,0
DA:839,0
DA:846,0
DA:853,0
DA:860,0
DA:865,0
DA:867,0
DA:868,0
DA:870,0
DA:865,0
DA:867,0
DA:868,0
DA:870,0
DA:881,0
DA:979,0
DA:979,0
DA:979,0
DA:979,0
DA:984,0
DA:984,0
DA:989,0
DA:989,0
DA:991,0
DA:991,0
DA:997,0
DA:999,0
DA:997,0
DA:999,0
DA:1002,0
DA:1006,0
DA:1002,0
DA:1006,0
DA:1008,0
DA:1008,0
DA:1009,0
DA:1009,0
DA:1010,0
DA:1012,0
DA:1010,0
DA:1012,0
DA:1020,0
DA:1022,0
DA:1020,0
DA:1022,0
DA:1024,0
DA:1026,0
DA:1024,0
DA:1026,0
DA:1028,0
DA:1030,0
DA:1028,0
DA:1030,0
DA:1032,0
DA:1034,0
DA:1032,0
DA:1034,0
DA:1036,0
DA:1038,0
DA:1036,0
DA:1038,0
DA:1040,0
DA:1042,0
DA:1040,0
DA:1042,0
DA:1045,0
DA:1047,0
DA:1045,0
DA:1047,0
DA:1049,0
DA:1051,0
DA:1049,0
DA:1051,0
DA:1053,0
DA:1055,0
DA:1053,0
DA:1055,0
DA:1057,0
DA:1060,0
DA:1057,0
DA:1060,0
DA:1062,0
DA:1065,0
DA:1062,0
DA:1065,0
DA:1067,0
DA:1069,0
DA:1067,0
DA:1069,0
DA:1072,0
DA:1074,0
DA:1072,0
DA:1074,0
DA:1076,0
DA:1078,0
DA:1076,0
DA:1078,0
DA:1080,0
DA:1082,0
DA:1080,0
DA:1082,0
DA:1084,0
DA:1086,0
DA:1084,0
DA:1086,0
DA:1088,0
DA:1091,0
DA:1088,0
DA:1091,0
DA:1093,0
DA:1095,0
DA:1093,0
DA:1095,0
DA:1098,0
DA:1100,0
DA:1098,0
DA:1100,0
DA:1102,0
DA:1104,0
DA:1102,0
DA:1104,0
DA:1106,0
DA:1108,0
DA:1106,0
DA:1108,0
DA:1110,0
DA:1113,0
DA:1110,0
DA:1113,0
DA:1115,0
DA:1118,0
DA:1115,0
DA:1118,0
DA:1120,0
DA:1122,0
DA:1120,0
DA:1122,0
LF:468
LH:0
end_of_record
SF:/home/runner/work/beaver/beaver/build/header_symlinks/BVDarcyVelocityAux.h
LF:0
LH:0
end_of_record
SF:/home/runner/work/beaver/beaver/moose/framework/build/header_symlinks/MooseObject.h
FN:49,_ZN11MooseObjectD0Ev
FNDA:0,_ZN11MooseObjectD0Ev
FN:49,_ZN11MooseObjectD2Ev
FNDA:0,_ZN11MooseObjectD2Ev
FN:54,_ZNK11MooseObject7enabledEv
FNDA:0,_ZNK11MooseObject7enabledEv
FNF:3
FNH:0
DA:49,0
DA:49,0
DA:54,0
LF:3
LH:0
end_of_record
SF:/home/runner/work/beaver/beaver/moose/framework/build/header_symlinks/MooseError.h
FN:173,_ZN5moose8internal14mooseStreamAllIRNSt7__cxx1112basic_stringIcSt11char_traitsIcESaIcEEEJEEEvRNS2_19basic_ostringstreamIcS5_S6_EEOT_DpOT0_
FNDA:0,_ZN5moose8internal14mooseStreamAllIRNSt7__cxx1112basic_stringIcSt11char_traitsIcESaIcEEEJEEEvRNS2_19basic_ostringstreamIcS5_S6_EEOT_DpOT0_
FN:173,_ZN5moose8internal14mooseStreamAllIRK16MooseFunctorNameJRA168_KcRNSt7__cxx1112basic_stringIcSt11char_traitsIcESaIcEEEEEEvRNS8_19basic_ostringstreamIcSB_SC_EEOT_DpOT0_
FNDA:0,_ZN5moose8internal14mooseStreamAllIRK16MooseFunctorNameJRA168_KcRNSt7__cxx1112basic_stringIcSt11char_traitsIcESaIcEEEEEEvRNS8_19basic_ostringstreamIcSB_SC_EEOT_DpOT0_
FN:173,_ZN5moose8internal14mooseStreamAllIRK16MooseFunctorNameJRA167_KcRNSt7__cxx1112basic_stringIcSt11char_traitsIcESaIcEEEEEEvRNS8_19basic_ostringstreamIcSB_SC_EEOT_DpOT0_
FNDA:0,_ZN5moose8internal14mooseStreamAllIRK16MooseFunctorNameJRA167_KcRNSt7__cxx1112basic_stringIcSt11char_traitsIcESaIcEEEEEEvRNS8_19basic_ostringstreamIcSB_SC_EEOT_DpOT0_
FN:173,_ZN5moose8internal14mooseStreamAllINSt7__cxx1112basic_stringIcSt11char_traitsIcESaIcEEEJEEEvRNS2_19basic_ostringstreamIcS5_S6_EEOT_DpOT0_
FNDA:0,_ZN5moose8internal14mooseStreamAllINSt7__cxx1112basic_stringIcSt11char_traitsIcESaIcEEEJEEEvRNS2_19basic_ostringstreamIcS5_S6_EEOT_DpOT0_
FN:173,_ZN5moose8internal14mooseStreamAllIRKNSt7__cxx1112basic_stringIcSt11char_traitsIcESaIcEEEJRA17_KcEEEvRNS2_19basic_ostringstreamIcS5_S6_EEOT_DpOT0_
FNDA:0,_ZN5moose8internal14mooseStreamAllIRKNSt7__cxx1112basic_stringIcSt11char_traitsIcESaIcEEEJRA17_KcEEEvRNS2_19basic_ostringstreamIcS5_S6_EEOT_DpOT0_
FN:173,_ZN5moose8internal14mooseStreamAllIRKjJRA16_KcRKNSt7__cxx1112basic_stringIcSt11char_traitsIcESaIcEEERA17_S4_EEEvRNS7_19basic_ostringstreamIcSA_SB_EEOT_DpOT0_
FNDA:0,_ZN5moose8internal14mooseStreamAllIRKjJRA16_KcRKNSt7__cxx1112basic_stringIcSt11char_traitsIcESaIcEEERA17_S4_EEEvRNS7_19basic_ostringstreamIcSA_SB_EEOT_DpOT0_
FN:173,_ZN5moose8internal14mooseStreamAllIPKcJEEEvRNSt7__cxx1119basic_ostringstreamIcSt11char_traitsIcESaIcEEEOT_DpOT0_
FNDA:0,_ZN5moose8internal14mooseStreamAllIPKcJEEEvRNSt7__cxx1119basic_ostringstreamIcSt11char_traitsIcESaIcEEEOT_DpOT0_
FN:173,_ZN5moose8internal14mooseStreamAllIRKNSt7__cxx1112basic_stringIcSt11char_traitsIcESaIcEEEJRA29_KcEEEvRNS2_19basic_ostringstreamIcS5_S6_EEOT_DpOT0_
FNDA:0,_ZN5moose8internal14mooseStreamAllIRKNSt7__cxx1112basic_stringIcSt11char_traitsIcESaIcEEEJRA29_KcEEEvRNS2_19basic_ostringstreamIcS5_S6_EEOT_DpOT0_
FN:284,_Z10mooseErrorIJRK16MooseFunctorNameRA168_KcRNSt7__cxx1112basic_stringIcSt11char_traitsIcESaIcEEEEEvDpOT_
FNDA:0,_Z10mooseErrorIJRK16MooseFunctorNameRA168_KcRNSt7__cxx1112basic_stringIcSt11char_traitsIcESaIcEEEEEvDpOT_
FN:284,_Z10mooseErrorIJRK16MooseFunctorNameRA167_KcRNSt7__cxx1112basic_stringIcSt11char_traitsIcESaIcEEEEEvDpOT_
FNDA:0,_Z10mooseErrorIJRK16MooseFunctorNameRA167_KcRNSt7__cxx1112basic_stringIcSt11char_traitsIcESaIcEEEEEvDpOT_
FN:284,_Z10mooseErrorIJRA16_KcEEvDpOT_
FNDA:0,_Z10mooseErrorIJRA16_KcEEvDpOT_
FN:284,_Z10mooseErrorIJNSt7__cxx1112basic_stringIcSt11char_traitsIcESaIcEEEEEvDpOT_
FNDA:0,_Z10mooseErrorIJNSt7__cxx1112basic_stringIcSt11char_traitsIcESaIcEEEEEvDpOT_
FN:284,_Z10mooseErrorIJRA51_KcEEvDpOT_
FNDA:0,_Z10mooseErrorIJRA51_KcEEvDpOT_
FN:284,_Z10mooseErrorIJRA65_KcRKjRA16_S0_RKNSt7__cxx1112basic_stringIcSt11char_traitsIcESaIcEEERA17_S0_EEvDpOT_
FNDA:0,_Z10mooseErrorIJRA65_KcRKjRA16_S0_RKNSt7__cxx1112basic_stringIcSt11char_traitsIcESaIcEEERA17_S0_EEvDpOT_
FN:284,_Z10mooseErrorIJRA8_KcRKNSt7__cxx1112basic_stringIcSt11char_traitsIcESaIcEEERA29_S0_EEvDpOT_
FNDA:0,_Z10mooseErrorIJRA8_KcRKNSt7__cxx1112basic_stringIcSt11char_traitsIcESaIcEEERA29_S0_EEvDpOT_
FNF:15
FNH:0
DA:173,0
DA:175,0
DA:176,0
DA:177,0
DA:173,0
DA:175,0
DA:176,0
DA:177,0
DA:173,0
DA:175,0
DA:176,0
DA:177,0
DA:173,0
DA:175,0
DA:176,0
DA:177,0
DA:173,0
DA:175,0
DA:176,0
DA:177,0
DA:173,0
DA:175,0
DA:176,0
DA:177,0
DA:173,0
DA:175,0
DA:176,0
DA:177,0
DA:173,0
DA:175,0
DA:176,0
DA:177,0
DA:175,0
DA:176,0
DA:177,0
DA:284,0
DA:286,0
DA:287,0
DA:288,0
DA:284,0
DA:286,0
DA:287,0
DA:288,0
DA:284,0
DA:286,0
DA:288,0
DA:284,0
DA:286,0
DA:287,0
DA:288,0
DA:284,0
DA:286,0
DA:288,0
DA:284,0
DA:286,0
DA:288,0
DA:284,0
DA:286,0
DA:288,0
LF:59
LH:0
end_of_record
SF:/home/runner/work/beaver/beaver/build/header_symlinks/BVStrainAuxBase.h
LF:0
LH:0
end_of_record
SF:/usr/share/miniconda3/envs/moose/libmesh/include/metaphysicl/dynamicsparsenumberbase.h
FN:48,_ZN11MetaPhysicL23DynamicSparseNumberBaseINS_22DynamicStdArrayWrapperIdNS_8NWrapperILm64EEEEENS1_ImS3_EENS_28SemiDynamicSparseNumberArrayEJdmS3_EE6resizeEm
FNDA:0,_ZN11MetaPhysicL23DynamicSparseNumberBaseINS_22DynamicStdArrayWrapperIdNS_8NWrapperILm64EEEEENS1_ImS3_EENS_28SemiDynamicSparseNumberArrayEJdmS3_EE6resizeEm
FN:282,_ZN11MetaPhysicL23DynamicSparseNumberBaseINS_22DynamicStdArrayWrapperIdNS_8NWrapperILm64EEEEENS1_ImS3_EENS_28SemiDynamicSparseNumberArrayEJdmS3_EE14sparsity_unionIS5_EEvRKT_
FNDA:0,_ZN11MetaPhysicL23DynamicSparseNumberBaseINS_22DynamicStdArrayWrapperIdNS_8NWrapperILm64EEEEENS1_ImS3_EENS_28SemiDynamicSparseNumberArrayEJdmS3_EE14sparsity_unionIS5_EEvRKT_
FN:553,_ZN11MetaPhysicL23DynamicSparseNumberBaseINS_22DynamicStdArrayWrapperIdNS_8NWrapperILm64EEEEENS1_ImS3_EENS_28SemiDynamicSparseNumberArrayEJdmS3_EEpLIJdmS3_EEERNS6_IdmS3_EERKNS6_IDpT_EE
FNDA:0,_ZN11MetaPhysicL23DynamicSparseNumberBaseINS_22DynamicStdArrayWrapperIdNS_8NWrapperILm64EEEEENS1_ImS3_EENS_28SemiDynamicSparseNumberArrayEJdmS3_EEpLIJdmS3_EEERNS6_IdmS3_EERKNS6_IDpT_EE
FNF:3
FNH:0
DA:48,0
DA:50,0
DA:51,0
DA:55,184320
DA:129,0
DA:282,0
DA:304,0
DA:305,0
DA:306,0
DA:308,0
DA:309,0
DA:310,0
DA:313,0
DA:314,0
DA:315,0
DA:316,0
DA:317,0
DA:318,0
DA:321,0
DA:322,0
DA:323,0
DA:324,0
DA:326,0
DA:331,0
DA:336,0
DA:357,0
DA:358,0
DA:359,0
DA:360,0
DA:361,0
DA:362,0
DA:365,0
DA:366,0
DA:370,0
DA:371,0
DA:553,0
DA:556,0
DA:564,0
DA:566,0
DA:567,0
DA:569,0
DA:570,0
DA:571,0
DA:573,0
DA:577,0
DA:580,0
DA:693,0
DA:694,0
DA:705,3624960
DA:706,3440640
LF:50
LH:3
end_of_record
SF:/home/runner/work/beaver/beaver/moose/framework/build/header_symlinks/MooseBaseErrorInterface.h
FN:32,_ZN23MooseBaseErrorInterfaceD0Ev
FNDA:0,_ZN23MooseBaseErrorInterfaceD0Ev
FN:32,_ZN23MooseBaseErrorInterfaceD2Ev
FNDA:0,_ZN23MooseBaseErrorInterfaceD2Ev
FNF:2
FNH:0
DA:32,0
DA:32,0
DA:32,0
LF:3
LH:0
end_of_record
SF:/usr/share/miniconda3/envs/moose/x86_64-conda-linux-gnu/include/c++/10.4.0/bits/locale_facets.h
FN:872,_ZNKSt5ctypeIcE5widenEc
FNDA:0,_ZNKSt5ctypeIcE5widenEc
FN:1084,_ZNKSt5ctypeIcE8do_widenEc
FNDA:0,_ZNKSt5ctypeIcE8do_widenEc
FNF:2
FNH:0
DA:872,0
DA:874,0
DA:875,0
DA:876,0
DA:877,0
DA:1084,0
DA:1085,0
LF:7
LH:0
end_of_record
SF:/usr/share/miniconda3/envs/moose/x86_64-conda-linux-gnu/include/c++/10.4.0/bits/stl_multimap.h
DA:297,0
LF:1
LH:0
end_of_record
SF:/usr/share/miniconda3/envs/moose/x86_64-conda-linux-gnu/include/c++/10.4.0/bits/stl_set.h
FN:281,_ZNSt3setIsSt4lessIsESaIsEED2Ev
FNDA:0,_ZNSt3setIsSt4lessIsESaIsEED2Ev
FN:281,_ZNSt3setItSt4lessItESaItEED2Ev
FNDA:0,_ZNSt3setItSt4lessItESaItEED2Ev
FN:518,_ZNSt3setIjSt4lessIjESaIjEE6insertEOj
FNDA:0,_ZNSt3setIjSt4lessIjESaIjEE6insertEOj
FNF:3
FNH:0
DA:281,0
DA:281,0
DA:281,0
DA:518,0
DA:521,0
DA:522,0
DA:749,0
LF:7
LH:0
end_of_record
SF:/usr/share/miniconda3/envs/moose/x86_64-conda-linux-gnu/include/c++/10.4.0/bits/std_function.h
FN:242,_ZNSt14_Function_baseD2Ev
FNDA:0,_ZNSt14_Function_baseD2Ev
FNF:1
FNH:0
DA:242,0
DA:243,0
DA:244,0
DA:245,0
DA:246,0
DA:303,0
LF:6
LH:0
end_of_record
SF:/usr/share/miniconda3/envs/moose/libmesh/include/libmesh/parallel_object.h
DA:91,0
LF:1
LH:0
end_of_record
SF:/usr/share/miniconda3/envs/moose/x86_64-conda-linux-gnu/include/c++/10.4.0/bits/allocated_ptr.h
FN:70,_ZNSt15__allocated_ptrISaISt23_Sp_counted_ptr_inplaceI18BVDarcyVelocityAuxSaIS1_ELN9__gnu_cxx12_Lock_policyE2EEEED2Ev
FNDA:8,_ZNSt15__allocated_ptrISaISt23_Sp_counted_ptr_inplaceI18BVDarcyVelocityAuxSaIS1_ELN9__gnu_cxx12_Lock_policyE2EEEED2Ev
FN:70,_ZNSt15__allocated_ptrISaISt23_Sp_counted_ptr_inplaceI14BVEqvStrainAuxSaIS1_ELN9__gnu_cxx12_Lock_policyE2EEEED2Ev
FNDA:4,_ZNSt15__allocated_ptrISaISt23_Sp_counted_ptr_inplaceI14BVEqvStrainAuxSaIS1_ELN9__gnu_cxx12_Lock_policyE2EEEED2Ev
FN:70,_ZNSt15__allocated_ptrISaISt23_Sp_counted_ptr_inplaceI18BVEqvStrainRateAuxSaIS1_ELN9__gnu_cxx12_Lock_policyE2EEEED2Ev
FNDA:4,_ZNSt15__allocated_ptrISaISt23_Sp_counted_ptr_inplaceI18BVEqvStrainRateAuxSaIS1_ELN9__gnu_cxx12_Lock_policyE2EEEED2Ev
FN:70,_ZNSt15__allocated_ptrISaISt23_Sp_counted_ptr_inplaceI16BVMisesStressAuxSaIS1_ELN9__gnu_cxx12_Lock_policyE2EEEED2Ev
FNDA:6,_ZNSt15__allocated_ptrISaISt23_Sp_counted_ptr_inplaceI16BVMisesStressAuxSaIS1_ELN9__gnu_cxx12_Lock_policyE2EEEED2Ev
FN:70,_ZNSt15__allocated_ptrISaISt23_Sp_counted_ptr_inplaceI13BVPressureAuxSaIS1_ELN9__gnu_cxx12_Lock_policyE2EEEED2Ev
FNDA:2,_ZNSt15__allocated_ptrISaISt23_Sp_counted_ptr_inplaceI13BVPressureAuxSaIS1_ELN9__gnu_cxx12_Lock_policyE2EEEED2Ev
FN:70,_ZNSt15__allocated_ptrISaISt23_Sp_counted_ptr_inplaceI20BVStrainComponentAuxSaIS1_ELN9__gnu_cxx12_Lock_policyE2EEEED2Ev
FNDA:12,_ZNSt15__allocated_ptrISaISt23_Sp_counted_ptr_inplaceI20BVStrainComponentAuxSaIS1_ELN9__gnu_cxx12_Lock_policyE2EEEED2Ev
FN:70,_ZNSt15__allocated_ptrISaISt23_Sp_counted_ptr_inplaceI20BVStressComponentAuxSaIS1_ELN9__gnu_cxx12_Lock_policyE2EEEED2Ev
FNDA:13,_ZNSt15__allocated_ptrISaISt23_Sp_counted_ptr_inplaceI20BVStressComponentAuxSaIS1_ELN9__gnu_cxx12_Lock_policyE2EEEED2Ev
FN:70,_ZNSt15__allocated_ptrISaISt23_Sp_counted_ptr_inplaceI13RegistryEntryI20BVStressComponentAuxESaIS3_ELN9__gnu_cxx12_Lock_policyE2EEEED2Ev
FNDA:17,_ZNSt15__allocated_ptrISaISt23_Sp_counted_ptr_inplaceI13RegistryEntryI20BVStressComponentAuxESaIS3_ELN9__gnu_cxx12_Lock_policyE2EEEED2Ev
FN:70,_ZNSt15__allocated_ptrISaISt23_Sp_counted_ptr_inplaceI13RegistryEntryI20BVStrainComponentAuxESaIS3_ELN9__gnu_cxx12_Lock_policyE2EEEED2Ev
FNDA:17,_ZNSt15__allocated_ptrISaISt23_Sp_counted_ptr_inplaceI13RegistryEntryI20BVStrainComponentAuxESaIS3_ELN9__gnu_cxx12_Lock_policyE2EEEED2Ev
FN:70,_ZNSt15__allocated_ptrISaISt23_Sp_counted_ptr_inplaceI13RegistryEntryI13BVPressureAuxESaIS3_ELN9__gnu_cxx12_Lock_policyE2EEEED2Ev
FNDA:17,_ZNSt15__allocated_ptrISaISt23_Sp_counted_ptr_inplaceI13RegistryEntryI13BVPressureAuxESaIS3_ELN9__gnu_cxx12_Lock_policyE2EEEED2Ev
FN:70,_ZNSt15__allocated_ptrISaISt23_Sp_counted_ptr_inplaceI13RegistryEntryI16BVMisesStressAuxESaIS3_ELN9__gnu_cxx12_Lock_policyE2EEEED2Ev
FNDA:17,_ZNSt15__allocated_ptrISaISt23_Sp_counted_ptr_inplaceI13RegistryEntryI16BVMisesStressAuxESaIS3_ELN9__gnu_cxx12_Lock_policyE2EEEED2Ev
FN:70,_ZNSt15__allocated_ptrISaISt23_Sp_counted_ptr_inplaceI13RegistryEntryI18BVEqvStrainRateAuxESaIS3_ELN9__gnu_cxx12_Lock_policyE2EEEED2Ev
FNDA:17,_ZNSt15__allocated_ptrISaISt23_Sp_counted_ptr_inplaceI13RegistryEntryI18BVEqvStrainRateAuxESaIS3_ELN9__gnu_cxx12_Lock_policyE2EEEED2Ev
FN:70,_ZNSt15__allocated_ptrISaISt23_Sp_counted_ptr_inplaceI13RegistryEntryI14BVEqvStrainAuxESaIS3_ELN9__gnu_cxx12_Lock_policyE2EEEED2Ev
FNDA:17,_ZNSt15__allocated_ptrISaISt23_Sp_counted_ptr_inplaceI13RegistryEntryI14BVEqvStrainAuxESaIS3_ELN9__gnu_cxx12_Lock_policyE2EEEED2Ev
FN:70,_ZNSt15__allocated_ptrISaISt23_Sp_counted_ptr_inplaceI13RegistryEntryI18BVDarcyVelocityAuxESaIS3_ELN9__gnu_cxx12_Lock_policyE2EEEED2Ev
FNDA:17,_ZNSt15__allocated_ptrISaISt23_Sp_counted_ptr_inplaceI13RegistryEntryI18BVDarcyVelocityAuxESaIS3_ELN9__gnu_cxx12_Lock_policyE2EEEED2Ev
FN:70,_ZNSt15__allocated_ptrISaISt23_Sp_counted_ptr_inplaceINSt13__future_base13_State_baseV2ESaIS2_ELN9__gnu_cxx12_Lock_policyE2EEEED2Ev
FNDA:0,_ZNSt15__allocated_ptrISaISt23_Sp_counted_ptr_inplaceINSt13__future_base13_State_baseV2ESaIS2_ELN9__gnu_cxx12_Lock_policyE2EEEED2Ev
FN:70,_ZNSt15__allocated_ptrISaISt23_Sp_counted_ptr_inplaceISt5mutexSaIS1_ELN9__gnu_cxx12_Lock_policyE2EEEED2Ev
FNDA:0,_ZNSt15__allocated_ptrISaISt23_Sp_counted_ptr_inplaceISt5mutexSaIS1_ELN9__gnu_cxx12_Lock_policyE2EEEED2Ev
FNF:16
FNH:14
DA:52,24
DA:53,168
DA:70,8
DA:72,8
DA:74,8
DA:70,4
DA:72,4
DA:74,4
DA:70,4
DA:72,4
DA:74,4
DA:70,6
DA:72,6
DA:74,6
DA:70,2
DA:72,2
DA:74,2
DA:70,12
DA:72,12
DA:74,12
DA:70,13
DA:72,13
DA:74,13
DA:70,17
DA:72,17
DA:74,17
DA:70,17
DA:72,17
DA:74,17
DA:70,17
DA:72,17
DA:74,17
DA:70,17
DA:72,17
DA:74,17
DA:70,17
DA:72,17
DA:74,17
DA:70,17
DA:72,17
DA:74,17
DA:70,17
DA:72,17
DA:74,17
DA:70,0
DA:72,0
DA:74,0
DA:70,0
DA:72,0
DA:74,0
DA:80,144
LF:51
LH:45
end_of_record
SF:/home/runner/work/beaver/beaver/moose/framework/build/header_symlinks/MeshChangedInterface.h
FN:34,_ZN20MeshChangedInterface11meshChangedEv
FNDA:0,_ZN20MeshChangedInterface11meshChangedEv
FNF:1
FNH:0
DA:34,0
LF:1
LH:0
end_of_record
SF:/usr/share/miniconda3/envs/moose/libmesh/include/libmesh/int_range.h
DA:64,0
DA:65,0
LF:2
LH:0
end_of_record
SF:/home/runner/work/beaver/beaver/build/header_symlinks/BVStrainComponentAux.h
LF:0
LH:0
end_of_record
SF:/home/runner/work/beaver/beaver/moose/framework/build/header_symlinks/MooseEnumBase.h
FN:51,_ZN13MooseEnumBaseD0Ev
FNDA:0,_ZN13MooseEnumBaseD0Ev
FN:51,_ZN13MooseEnumBaseD2Ev
FNDA:0,_ZN13MooseEnumBaseD2Ev
FNF:2
FNH:0
DA:51,0
DA:51,0
LF:2
LH:0
end_of_record
SF:/usr/share/miniconda3/envs/moose/libmesh/include/Eigen/src/Core/DenseStorage.h
DA:621,0
LF:1
LH:0
end_of_record
SF:/usr/share/miniconda3/envs/moose/x86_64-conda-linux-gnu/include/c++/10.4.0/bits/unordered_map.h
DA:102,0
DA:985,0
LF:2
LH:0
end_of_record
SF:/usr/share/miniconda3/envs/moose/libmesh/include/metaphysicl/raw_type.h
DA:73,36080
DA:88,0
LF:2
LH:1
end_of_record
SF:/usr/share/miniconda3/envs/moose/x86_64-conda-linux-gnu/include/c++/10.4.0/ostream
DA:113,0
DA:196,0
DA:246,0
DA:518,0
LF:4
LH:0
end_of_record
SF:/usr/share/miniconda3/envs/moose/x86_64-conda-linux-gnu/include/c++/10.4.0/initializer_list
DA:71,0
DA:79,0
LF:2
LH:0
end_of_record
SF:/usr/share/miniconda3/envs/moose/x86_64-conda-linux-gnu/include/c++/10.4.0/ext/aligned_buffer.h
DA:65,28
DA:69,0
DA:104,168
LF:3
LH:2
end_of_record
SF:/usr/share/miniconda3/envs/moose/libmesh/include/libmesh/parameters.h
FN:85,_ZN7libMesh10ParametersD0Ev
FNDA:0,_ZN7libMesh10ParametersD0Ev
FN:85,_ZN7libMesh10ParametersD2Ev
FNDA:0,_ZN7libMesh10ParametersD2Ev
FN:138,_ZN7libMesh10Parameters14set_attributesERKNSt7__cxx1112basic_stringIcSt11char_traitsIcESaIcEEEb
FNDA:0,_ZN7libMesh10Parameters14set_attributesERKNSt7__cxx1112basic_stringIcSt11char_traitsIcESaIcEEEb
FN:295,_ZNK7libMesh10Parameters9ParameterIP13FEProblemBaseE4typeB5cxx11Ev
FNDA:0,_ZNK7libMesh10Parameters9ParameterIP13FEProblemBaseE4typeB5cxx11Ev
FN:303,_ZNK7libMesh10Parameters9ParameterIP13FEProblemBaseE5printERSo
FNDA:0,_ZNK7libMesh10Parameters9ParameterIP13FEProblemBaseE5printERSo
FN:311,_ZNK7libMesh10Parameters9ParameterIP13FEProblemBaseE5cloneEv
FNDA:21065,_ZNK7libMesh10Parameters9ParameterIP13FEProblemBaseE5cloneEv
FN:324,_ZN7libMesh10Parameters5clearEv
FNDA:0,_ZN7libMesh10Parameters5clearEv
FN:332,_ZN7libMesh10ParametersaSERKS0_
FNDA:0,_ZN7libMesh10ParametersaSERKS0_
FN:341,_ZN7libMesh10ParameterspLERKS0_
FNDA:0,_ZN7libMesh10ParameterspLERKS0_
FNF:9
FNH:1
DA:85,0
DA:85,0
DA:85,0
DA:138,0
DA:206,21065
DA:295,0
DA:297,0
DA:303,0
DA:307,0
DA:311,21065
DA:313,21065
DA:315,21065
DA:317,21065
DA:324,0
DA:327,0
DA:332,0
DA:335,0
DA:337,0
DA:341,0
DA:344,0
DA:345,0
DA:347,0
DA:537,0
LF:23
LH:5
end_of_record
SF:/home/runner/work/beaver/beaver/src/auxkernels/BVPressureAux.C
FN:20,_ZN13BVPressureAux11validParamsEv
FNDA:118,_ZN13BVPressureAux11validParamsEv
FN:27,_ZN13BVPressureAuxC2ERK15InputParameters
FNDA:1,_ZN13BVPressureAuxC2ERK15InputParameters
FN:30,_ZN13BVPressureAux12computeValueEv
FNDA:3072,_ZN13BVPressureAux12computeValueEv
FNF:3
FNH:3
DA:20,118
DA:22,118
DA:23,118
DA:24,118
DA:27,1
DA:30,3072
DA:32,3072
LF:7
LH:7
end_of_record
SF:/home/runner/work/beaver/beaver/moose/framework/build/header_symlinks/MooseFunctorArguments.h
FN:126,_ZN5MooseltERKNS_7FaceArgES2_
FNDA:0,_ZN5MooseltERKNS_7FaceArgES2_
FNF:1
FNH:0
DA:126,0
DA:128,0
DA:130,0
LF:3
LH:0
end_of_record
SF:/usr/share/miniconda3/envs/moose/libmesh/include/metaphysicl/dualnumber_decl.h
DA:59,0
LF:1
LH:0
end_of_record
SF:/usr/share/miniconda3/envs/moose/x86_64-conda-linux-gnu/include/c++/10.4.0/string_view
DA:623,0
LF:1
LH:0
end_of_record
SF:/home/runner/work/beaver/beaver/moose/framework/build/header_symlinks/VectorPostprocessorInterface.h
LF:0
LH:0
end_of_record
SF:/usr/share/miniconda3/envs/moose/libmesh/include/metaphysicl/dynamicsparsenumberbase_decl.h
FN:75,_ZN11MetaPhysicL23DynamicSparseNumberBaseINS_22DynamicStdArrayWrapperIdNS_8NWrapperILm64EEEEENS1_ImS3_EENS_28SemiDynamicSparseNumberArrayEJdmS3_EEaSEOS7_
FNDA:0,_ZN11MetaPhysicL23DynamicSparseNumberBaseINS_22DynamicStdArrayWrapperIdNS_8NWrapperILm64EEEEENS1_ImS3_EENS_28SemiDynamicSparseNumberArrayEJdmS3_EEaSEOS7_
FN:81,_ZN11MetaPhysicL23DynamicSparseNumberBaseINS_22DynamicStdArrayWrapperIdNS_8NWrapperILm64EEEEENS1_ImS3_EENS_28SemiDynamicSparseNumberArrayEJdmS3_EEaSERKS7_
FNDA:0,_ZN11MetaPhysicL23DynamicSparseNumberBaseINS_22DynamicStdArrayWrapperIdNS_8NWrapperILm64EEEEENS1_ImS3_EENS_28SemiDynamicSparseNumberArrayEJdmS3_EEaSERKS7_
FNF:2
FNH:0
DA:75,0
DA:81,0
LF:2
LH:0
end_of_record
SF:/usr/share/miniconda3/envs/moose/x86_64-conda-linux-gnu/include/c++/10.4.0/bits/stl_uninitialized.h
FN:84,_ZNSt20__uninitialized_copyILb0EE13__uninit_copyIPKSt4pairIbN11MetaPhysicL10DualNumberIdNS3_28SemiDynamicSparseNumberArrayIdmNS3_8NWrapperILm64EEEEELb1EEEEPSA_EET0_T_SF_SE_
FNDA:0,_ZNSt20__uninitialized_copyILb0EE13__uninit_copyIPKSt4pairIbN11MetaPhysicL10DualNumberIdNS3_28SemiDynamicSparseNumberArrayIdmNS3_8NWrapperILm64EEEEELb1EEEEPSA_EET0_T_SF_SE_
FN:84,_ZNSt20__uninitialized_copyILb0EE13__uninit_copyISt13move_iteratorIPSt4pairIbN11MetaPhysicL10DualNumberIdNS4_28SemiDynamicSparseNumberArrayIdmNS4_8NWrapperILm64EEEEELb1EEEEESC_EET0_T_SF_SE_
FNDA:0,_ZNSt20__uninitialized_copyILb0EE13__uninit_copyISt13move_iteratorIPSt4pairIbN11MetaPhysicL10DualNumberIdNS4_28SemiDynamicSparseNumberArrayIdmNS4_8NWrapperILm64EEEEELb1EEEEESC_EET0_T_SF_SE_
FN:84,_ZNSt20__uninitialized_copyILb0EE13__uninit_copyIPKNSt7__cxx1112basic_stringIcSt11char_traitsIcESaIcEEEPS7_EET0_T_SC_SB_
FNDA:0,_ZNSt20__uninitialized_copyILb0EE13__uninit_copyIPKNSt7__cxx1112basic_stringIcSt11char_traitsIcESaIcEEEPS7_EET0_T_SC_SB_
FN:229,_ZNSt22__uninitialized_fill_nILb0EE15__uninit_fill_nIPSt4pairIbN11MetaPhysicL10DualNumberIdNS3_28SemiDynamicSparseNumberArrayIdmNS3_8NWrapperILm64EEEEELb1EEEEmSA_EET_SC_T0_RKT1_
FNDA:0,_ZNSt22__uninitialized_fill_nILb0EE15__uninit_fill_nIPSt4pairIbN11MetaPhysicL10DualNumberIdNS3_28SemiDynamicSparseNumberArrayIdmNS3_8NWrapperILm64EEEEELb1EEEEmSA_EET_SC_T0_RKT1_
FN:1000,_ZSt14__relocate_a_1IPSt6vectorISt4pairIbdESaIS2_EES5_SaIS4_EET0_T_S8_S7_RT1_
FNDA:0,_ZSt14__relocate_a_1IPSt6vectorISt4pairIbdESaIS2_EES5_SaIS4_EET0_T_S8_S7_RT1_
FN:1000,_ZSt14__relocate_a_1IPSt6vectorISt4pairIbN11MetaPhysicL10DualNumberIdNS2_28SemiDynamicSparseNumberArrayIdmNS2_8NWrapperILm64EEEEELb1EEEESaIS9_EESC_SaISB_EET0_T_SF_SE_RT1_
FNDA:0,_ZSt14__relocate_a_1IPSt6vectorISt4pairIbN11MetaPhysicL10DualNumberIdNS2_28SemiDynamicSparseNumberArrayIdmNS2_8NWrapperILm64EEEEELb1EEEESaIS9_EESC_SaISB_EET0_T_SF_SE_RT1_
FNF:6
FNH:0
DA:84,0
DA:90,0
DA:92,0
DA:84,0
DA:90,0
DA:92,0
DA:84,0
DA:90,0
DA:92,0
DA:94,0
DA:97,0
DA:90,0
DA:150,0
DA:229,0
DA:235,0
DA:237,0
DA:289,0
DA:325,0
DA:566,0
DA:1000,0
DA:1013,0
DA:1016,0
DA:1000,0
DA:1013,0
DA:1016,0
DA:1013,0
DA:1028,0
LF:27
LH:0
end_of_record
SF:/home/runner/work/beaver/beaver/moose/framework/build/header_symlinks/Assembly.h
DA:310,4
LF:1
LH:1
end_of_record
SF:/home/runner/work/beaver/beaver/moose/framework/build/header_symlinks/MaterialProperty.h
FN:117,_ZNK20MaterialPropertyBaseIdLb0EE4isADEv
FNDA:0,_ZNK20MaterialPropertyBaseIdLb0EE4isADEv
FN:117,_ZNK20MaterialPropertyBaseIdLb1EE4isADEv
FNDA:0,_ZNK20MaterialPropertyBaseIdLb1EE4isADEv
FN:117,_ZNK20MaterialPropertyBaseI18RankTwoTensorTemplIdELb0EE4isADEv
FNDA:0,_ZNK20MaterialPropertyBaseI18RankTwoTensorTemplIdELb0EE4isADEv
FN:117,_ZNK20MaterialPropertyBaseI18RankTwoTensorTemplIdELb1EE4isADEv
FNDA:0,_ZNK20MaterialPropertyBaseI18RankTwoTensorTemplIdELb1EE4isADEv
FN:139,_ZNK20MaterialPropertyBaseIdLb1EE4sizeEv
FNDA:0,_ZNK20MaterialPropertyBaseIdLb1EE4sizeEv
FN:139,_ZNK20MaterialPropertyBaseIdLb0EE4sizeEv
FNDA:0,_ZNK20MaterialPropertyBaseIdLb0EE4sizeEv
FN:139,_ZNK20MaterialPropertyBaseI18RankTwoTensorTemplIdELb0EE4sizeEv
FNDA:0,_ZNK20MaterialPropertyBaseI18RankTwoTensorTemplIdELb0EE4sizeEv
FN:139,_ZNK20MaterialPropertyBaseI18RankTwoTensorTemplIdELb1EE4sizeEv
FNDA:0,_ZNK20MaterialPropertyBaseI18RankTwoTensorTemplIdELb1EE4sizeEv
FN:217,_ZN5moose8internal22rawValueEqualityHelperI18RankTwoTensorTemplIdES2_IN11MetaPhysicL10DualNumberIdNS4_28SemiDynamicSparseNumberArrayIdmNS4_8NWrapperILm64EEEEELb1EEEEEEvRT_RKT0_
FNDA:0,_ZN5moose8internal22rawValueEqualityHelperI18RankTwoTensorTemplIdES2_IN11MetaPhysicL10DualNumberIdNS4_28SemiDynamicSparseNumberArrayIdmNS4_8NWrapperILm64EEEEELb1EEEEEEvRT_RKT0_
FN:217,_ZN5moose8internal22rawValueEqualityHelperI18RankTwoTensorTemplIN11MetaPhysicL10DualNumberIdNS3_28SemiDynamicSparseNumberArrayIdmNS3_8NWrapperILm64EEEEELb1EEEES2_IdEEEvRT_RKT0_
FNDA:0,_ZN5moose8internal22rawValueEqualityHelperI18RankTwoTensorTemplIN11MetaPhysicL10DualNumberIdNS3_28SemiDynamicSparseNumberArrayIdmNS3_8NWrapperILm64EEEEELb1EEEES2_IdEEEvRT_RKT0_
FN:243,_ZNK20MaterialPropertyBaseIdLb1EE4typeB5cxx11Ev
FNDA:0,_ZNK20MaterialPropertyBaseIdLb1EE4typeB5cxx11Ev
FN:243,_ZNK20MaterialPropertyBaseI18RankTwoTensorTemplIdELb0EE4typeB5cxx11Ev
FNDA:0,_ZNK20MaterialPropertyBaseI18RankTwoTensorTemplIdELb0EE4typeB5cxx11Ev
FN:243,_ZNK20MaterialPropertyBaseI18RankTwoTensorTemplIdELb1EE4typeB5cxx11Ev
FNDA:0,_ZNK20MaterialPropertyBaseI18RankTwoTensorTemplIdELb1EE4typeB5cxx11Ev
FN:243,_ZNK20MaterialPropertyBaseIdLb0EE4typeB5cxx11Ev
FNDA:0,_ZNK20MaterialPropertyBaseIdLb0EE4typeB5cxx11Ev
FN:251,_ZN20MaterialPropertyBaseI18RankTwoTensorTemplIdELb0EE6resizeEm
FNDA:0,_ZN20MaterialPropertyBaseI18RankTwoTensorTemplIdELb0EE6resizeEm
FN:251,_ZN20MaterialPropertyBaseI18RankTwoTensorTemplIdELb1EE6resizeEm
FNDA:0,_ZN20MaterialPropertyBaseI18RankTwoTensorTemplIdELb1EE6resizeEm
FN:251,_ZN20MaterialPropertyBaseIdLb0EE6resizeEm
FNDA:0,_ZN20MaterialPropertyBaseIdLb0EE6resizeEm
FN:251,_ZN20MaterialPropertyBaseIdLb1EE6resizeEm
FNDA:0,_ZN20MaterialPropertyBaseIdLb1EE6resizeEm
FN:258,_ZN20MaterialPropertyBaseI18RankTwoTensorTemplIdELb1EE6qpCopyEjRK13PropertyValuej
FNDA:0,_ZN20MaterialPropertyBaseI18RankTwoTensorTemplIdELb1EE6qpCopyEjRK13PropertyValuej
FN:258,_ZN20MaterialPropertyBaseIdLb0EE6qpCopyEjRK13PropertyValuej
FNDA:0,_ZN20MaterialPropertyBaseIdLb0EE6qpCopyEjRK13PropertyValuej
FN:258,_ZN20MaterialPropertyBaseIdLb1EE6qpCopyEjRK13PropertyValuej
FNDA:0,_ZN20MaterialPropertyBaseIdLb1EE6qpCopyEjRK13PropertyValuej
FN:258,_ZN20MaterialPropertyBaseI18RankTwoTensorTemplIdELb0EE6qpCopyEjRK13PropertyValuej
FNDA:0,_ZN20MaterialPropertyBaseI18RankTwoTensorTemplIdELb0EE6qpCopyEjRK13PropertyValuej
FN:272,_ZN20MaterialPropertyBaseIdLb0EE5storeERSo
FNDA:0,_ZN20MaterialPropertyBaseIdLb0EE5storeERSo
FN:272,_ZN20MaterialPropertyBaseI18RankTwoTensorTemplIdELb1EE5storeERSo
FNDA:0,_ZN20MaterialPropertyBaseI18RankTwoTensorTemplIdELb1EE5storeERSo
FN:272,_ZN20MaterialPropertyBaseIdLb1EE5storeERSo
FNDA:0,_ZN20MaterialPropertyBaseIdLb1EE5storeERSo
FN:272,_ZN20MaterialPropertyBaseI18RankTwoTensorTemplIdELb0EE5storeERSo
FNDA:0,_ZN20MaterialPropertyBaseI18RankTwoTensorTemplIdELb0EE5storeERSo
FN:280,_ZN20MaterialPropertyBaseIdLb0EE4loadERSi
FNDA:0,_ZN20MaterialPropertyBaseIdLb0EE4loadERSi
FN:280,_ZN20MaterialPropertyBaseI18RankTwoTensorTemplIdELb1EE4loadERSi
FNDA:0,_ZN20MaterialPropertyBaseI18RankTwoTensorTemplIdELb1EE4loadERSi
FN:280,_ZN20MaterialPropertyBaseIdLb1EE4loadERSi
FNDA:0,_ZN20MaterialPropertyBaseIdLb1EE4loadERSi
FN:280,_ZN20MaterialPropertyBaseI18RankTwoTensorTemplIdELb0EE4loadERSi
FNDA:0,_ZN20MaterialPropertyBaseI18RankTwoTensorTemplIdELb0EE4loadERSi
FN:288,_ZN20MaterialPropertyBaseIdLb1EE4swapER13PropertyValue
FNDA:0,_ZN20MaterialPropertyBaseIdLb1EE4swapER13PropertyValue
FN:288,_ZN20MaterialPropertyBaseI18RankTwoTensorTemplIdELb1EE4swapER13PropertyValue
FNDA:0,_ZN20MaterialPropertyBaseI18RankTwoTensorTemplIdELb1EE4swapER13PropertyValue
FN:288,_ZN20MaterialPropertyBaseI18RankTwoTensorTemplIdELb0EE4swapER13PropertyValue
FNDA:0,_ZN20MaterialPropertyBaseI18RankTwoTensorTemplIdELb0EE4swapER13PropertyValue
FN:288,_ZN20MaterialPropertyBaseIdLb0EE4swapER13PropertyValue
FNDA:0,_ZN20MaterialPropertyBaseIdLb0EE4swapER13PropertyValue
FN:324,_ZNK20MaterialPropertyBaseI18RankTwoTensorTemplIdELb0EE6typeIDEv
FNDA:0,_ZNK20MaterialPropertyBaseI18RankTwoTensorTemplIdELb0EE6typeIDEv
FN:324,_ZNK20MaterialPropertyBaseI18RankTwoTensorTemplIdELb1EE6typeIDEv
FNDA:0,_ZNK20MaterialPropertyBaseI18RankTwoTensorTemplIdELb1EE6typeIDEv
FN:324,_ZNK20MaterialPropertyBaseIdLb0EE6typeIDEv
FNDA:0,_ZNK20MaterialPropertyBaseIdLb0EE6typeIDEv
FN:324,_ZNK20MaterialPropertyBaseIdLb1EE6typeIDEv
FNDA:0,_ZNK20MaterialPropertyBaseIdLb1EE6typeIDEv
FN:332,_ZNK20MaterialPropertyBaseI18RankTwoTensorTemplIdELb0EE5cloneEm
FNDA:0,_ZNK20MaterialPropertyBaseI18RankTwoTensorTemplIdELb0EE5cloneEm
FN:332,_ZNK20MaterialPropertyBaseIdLb1EE5cloneEm
FNDA:0,_ZNK20MaterialPropertyBaseIdLb1EE5cloneEm
FN:332,_ZNK20MaterialPropertyBaseI18RankTwoTensorTemplIdELb1EE5cloneEm
FNDA:0,_ZNK20MaterialPropertyBaseI18RankTwoTensorTemplIdELb1EE5cloneEm
FN:332,_ZNK20MaterialPropertyBaseIdLb0EE5cloneEm
FNDA:0,_ZNK20MaterialPropertyBaseIdLb0EE5cloneEm
FNF:42
FNH:0
DA:44,0
DA:56,0
DA:115,0
DA:117,0
DA:117,0
DA:117,0
DA:117,0
DA:139,0
DA:139,0
DA:139,0
DA:139,0
DA:217,0
DA:219,0
DA:220,0
DA:217,0
DA:219,0
DA:220,0
DA:219,0
DA:220,0
DA:243,0
DA:245,0
DA:246,0
DA:243,0
DA:245,0
DA:246,0
DA:243,0
DA:245,0
DA:246,0
DA:243,0
DA:245,0
DA:246,0
DA:251,0
DA:253,0
DA:254,0
DA:251,0
DA:253,0
DA:254,0
DA:251,0
DA:253,0
DA:254,0
DA:251,0
DA:253,0
DA:254,0
DA:253,0
DA:254,0
DA:258,0
DA:263,0
DA:264,0
DA:266,0
DA:268,0
DA:258,0
DA:263,0
DA:264,0
DA:268,0
DA:258,0
DA:263,0
DA:264,0
DA:268,0
DA:258,0
DA:263,0
DA:264,0
DA:266,0
DA:268,0
DA:272,0
DA:274,0
DA:276,0
DA:272,0
DA:274,0
DA:276,0
DA:272,0
DA:274,0
DA:276,0
DA:272,0
DA:274,0
DA:276,0
DA:280,0
DA:282,0
DA:284,0
DA:280,0
DA:282,0
DA:284,0
DA:280,0
DA:282,0
DA:284,0
DA:280,0
DA:282,0
DA:284,0
DA:288,0
DA:294,0
DA:298,0
DA:313,0
DA:318,0
DA:319,0
DA:288,0
DA:294,0
DA:298,0
DA:313,0
DA:318,0
DA:288,0
DA:294,0
DA:298,0
DA:313,0
DA:318,0
DA:288,0
DA:294,0
DA:298,0
DA:313,0
DA:318,0
DA:319,0
DA:324,0
DA:327,0
DA:324,0
DA:327,0
DA:324,0
DA:327,0
DA:324,0
DA:327,0
DA:332,0
DA:334,0
DA:335,0
DA:337,0
DA:332,0
DA:334,0
DA:335,0
DA:337,0
DA:332,0
DA:334,0
DA:335,0
DA:337,0
DA:332,0
DA:334,0
DA:335,0
DA:337,0
DA:345,0
DA:368,0
DA:419,0
LF:136
LH:0
end_of_record
SF:/home/runner/work/beaver/beaver/build/header_symlinks/BVStressComponentAux.h
LF:0
LH:0
end_of_record
SF:/home/runner/work/beaver/beaver/moose/framework/contrib/hit/parse.h
LF:0
LH:0
end_of_record
SF:/home/runner/work/beaver/beaver/moose/framework/build/header_symlinks/MaterialPropertyInterface.h
FN:589,_ZN25MaterialPropertyInterface30defaultGenericMaterialPropertyIdLb1EEEPKN29GenericMaterialPropertyStructIT_XT0_EE4typeERKNSt7__cxx1112basic_stringIcSt11char_traitsIcESaIcEEE
FNDA:0,_ZN25MaterialPropertyInterface30defaultGenericMaterialPropertyIdLb1EEEPKN29GenericMaterialPropertyStructIT_XT0_EE4typeERKNSt7__cxx1112basic_stringIcSt11char_traitsIcESaIcEEE
FN:737,_ZN25MaterialPropertyInterface26getGenericMaterialPropertyI18RankTwoTensorTemplIdELb1EEERKN29GenericMaterialPropertyStructIT_XT0_EE4typeERKNSt7__cxx1112basic_stringIcSt11char_traitsIcESaIcEEER12MaterialDataj
FNDA:0,_ZN25MaterialPropertyInterface26getGenericMaterialPropertyI18RankTwoTensorTemplIdELb1EEERKN29GenericMaterialPropertyStructIT_XT0_EE4typeERKNSt7__cxx1112basic_stringIcSt11char_traitsIcESaIcEEER12MaterialDataj
FN:737,_ZN25MaterialPropertyInterface26getGenericMaterialPropertyIdLb1EEERKN29GenericMaterialPropertyStructIT_XT0_EE4typeERKNSt7__cxx1112basic_stringIcSt11char_traitsIcESaIcEEER12MaterialDataj
FNDA:0,_ZN25MaterialPropertyInterface26getGenericMaterialPropertyIdLb1EEERKN29GenericMaterialPropertyStructIT_XT0_EE4typeERKNSt7__cxx1112basic_stringIcSt11char_traitsIcESaIcEEER12MaterialDataj
FN:761,_ZN25MaterialPropertyInterface32getGenericMaterialPropertyByNameI18RankTwoTensorTemplIdELb1EEERKN29GenericMaterialPropertyStructIT_XT0_EE4typeERK20MaterialPropertyNameR12MaterialDataj
FNDA:0,_ZN25MaterialPropertyInterface32getGenericMaterialPropertyByNameI18RankTwoTensorTemplIdELb1EEERKN29GenericMaterialPropertyStructIT_XT0_EE4typeERK20MaterialPropertyNameR12MaterialDataj
FN:761,_ZN25MaterialPropertyInterface32getGenericMaterialPropertyByNameIdLb1EEERKN29GenericMaterialPropertyStructIT_XT0_EE4typeERK20MaterialPropertyNameR12MaterialDataj
FNDA:0,_ZN25MaterialPropertyInterface32getGenericMaterialPropertyByNameIdLb1EEERKN29GenericMaterialPropertyStructIT_XT0_EE4typeERK20MaterialPropertyNameR12MaterialDataj
FNF:5
FNH:0
DA:88,25
DA:589,0
DA:593,0
DA:597,0
DA:603,0
DA:607,0
DA:608,0
DA:610,0
DA:614,0
DA:737,0
DA:742,0
DA:748,0
DA:749,0
DA:756,0
DA:737,0
DA:742,0
DA:745,0
DA:748,0
DA:749,0
DA:756,0
DA:761,0
DA:765,0
DA:767,0
DA:769,0
DA:770,0
DA:773,0
DA:776,0
DA:779,0
DA:782,0
DA:784,0
DA:785,0
DA:787,0
DA:761,0
DA:765,0
DA:767,0
DA:769,0
DA:770,0
DA:773,0
DA:776,0
DA:779,0
DA:782,0
DA:784,0
DA:785,0
DA:787,0
LF:44
LH:1
end_of_record
SF:/usr/share/miniconda3/envs/moose/x86_64-conda-linux-gnu/include/c++/10.4.0/bits/stl_construct.h
FN:149,_ZNSt12_Destroy_auxILb0EE9__destroyIPSt10shared_ptrI17RegistryEntryBaseEEEvT_S6_
FNDA:0,_ZNSt12_Destroy_auxILb0EE9__destroyIPSt10shared_ptrI17RegistryEntryBaseEEEvT_S6_
FN:149,_ZNSt12_Destroy_auxILb0EE9__destroyIPSt5tupleIJNSt7__cxx1112basic_stringIcSt11char_traitsIcESaIcEEEN5Moose23RelationshipManagerTypeESt8functionIFvRK15InputParametersRSC_EEEEEEvT_SK_
FNDA:0,_ZNSt12_Destroy_auxILb0EE9__destroyIPSt5tupleIJNSt7__cxx1112basic_stringIcSt11char_traitsIcESaIcEEEN5Moose23RelationshipManagerTypeESt8functionIFvRK15InputParametersRSC_EEEEEEvT_SK_
FN:149,_ZNSt12_Destroy_auxILb0EE9__destroyIPSt10unique_ptrIN5Moose15FunctorEnvelopeIN11MetaPhysicL10DualNumberIdNS5_28SemiDynamicSparseNumberArrayIdmNS5_8NWrapperILm64EEEEELb1EEEEESt14default_deleteISC_EEEEvT_SH_
FNDA:24,_ZNSt12_Destroy_auxILb0EE9__destroyIPSt10unique_ptrIN5Moose15FunctorEnvelopeIN11MetaPhysicL10DualNumberIdNS5_28SemiDynamicSparseNumberArrayIdmNS5_8NWrapperILm64EEEEELb1EEEEESt14default_deleteISC_EEEEvT_SH_
FN:149,_ZNSt12_Destroy_auxILb0EE9__destroyIPSt10unique_ptrIN5Moose15FunctorEnvelopeIdEESt14default_deleteIS5_EEEEvT_SA_
FNDA:24,_ZNSt12_Destroy_auxILb0EE9__destroyIPSt10unique_ptrIN5Moose15FunctorEnvelopeIdEESt14default_deleteIS5_EEEEvT_SA_
FN:149,_ZNSt12_Destroy_auxILb0EE9__destroyIPSt3setIP18MooseVariableFieldIdESt4lessIS5_ESaIS5_EEEEvT_SB_
FNDA:0,_ZNSt12_Destroy_auxILb0EE9__destroyIPSt3setIP18MooseVariableFieldIdESt4lessIS5_ESaIS5_EEEEvT_SB_
FNF:5
FNH:2
DA:109,0
DA:140,0
DA:149,0
DA:151,0
DA:153,0
DA:149,0
DA:151,0
DA:153,0
DA:149,24
DA:151,24
DA:153,24
DA:149,24
DA:151,24
DA:153,24
DA:149,0
DA:151,0
DA:153,0
DA:151,0
DA:185,48
LF:19
LH:7
end_of_record
SF:/home/runner/work/beaver/beaver/src/auxkernels/BVStressAuxBase.C
FN:17,_ZN15BVStressAuxBase11validParamsEv
FNDA:370,_ZN15BVStressAuxBase11validParamsEv
FN:24,_ZN15BVStressAuxBaseC2ERK15InputParameters
FNDA:11,_ZN15BVStressAuxBaseC2ERK15InputParameters
FNF:2
FNH:2
DA:17,370
DA:19,370
DA:20,370
DA:21,370
DA:24,11
DA:25,22
DA:27,11
LF:7
LH:7
end_of_record
SF:/home/runner/work/beaver/beaver/moose/framework/build/header_symlinks/MooseEnumItem.h
FN:72,_ZNK13MooseEnumItemltERKS_
FNDA:0,_ZNK13MooseEnumItemltERKS_
FNF:1
FNH:0
DA:24,0
DA:72,0
DA:74,0
LF:3
LH:0
end_of_record
SF:/home/runner/work/beaver/beaver/src/auxkernels/BVStrainComponentAux.C
FN:20,_ZN20BVStrainComponentAux11validParamsEv
FNDA:128,_ZN20BVStrainComponentAux11validParamsEv
FN:32,_ZN20BVStrainComponentAuxC2ERK15InputParameters
FNDA:6,_ZN20BVStrainComponentAuxC2ERK15InputParameters
FN:41,_ZN20BVStrainComponentAux12computeValueEv
FNDA:45056,_ZN20BVStrainComponentAux12computeValueEv
FNF:3
FNH:3
DA:20,128
DA:22,128
DA:23,128
DA:24,256
DA:25,256
DA:27,256
DA:29,128
DA:32,6
DA:34,6
DA:35,12
DA:36,18
DA:38,6
DA:41,45056
DA:43,45056
LF:14
LH:14
end_of_record
SF:/usr/share/miniconda3/envs/moose/x86_64-conda-linux-gnu/include/c++/10.4.0/iostream
LF:0
LH:0
end_of_record
SF:/home/runner/work/beaver/beaver/moose/framework/build/header_symlinks/InfixIterator.h
FN:46,_ZN22infix_ostream_iteratorINSt7__cxx1112basic_stringIcSt11char_traitsIcESaIcEEEcS3_EaSERKS5_
FNDA:0,_ZN22infix_ostream_iteratorINSt7__cxx1112basic_stringIcSt11char_traitsIcESaIcEEEcS3_EaSERKS5_
FNF:1
FNH:0
DA:46,0
DA:50,0
DA:51,0
DA:52,0
DA:53,0
DA:54,0
LF:6
LH:0
end_of_record
SF:/usr/share/miniconda3/envs/moose/x86_64-conda-linux-gnu/include/c++/10.4.0/bits/stl_algobase.h
FN:375,_ZNSt11__copy_moveILb0ELb0ESt26random_access_iterator_tagE8__copy_mIPKNSt7__cxx1112basic_stringIcSt11char_traitsIcESaIcEEE22infix_ostream_iteratorIS8_cS6_EEET0_T_SE_SD_
FNDA:0,_ZNSt11__copy_moveILb0ELb0ESt26random_access_iterator_tagE8__copy_mIPKNSt7__cxx1112basic_stringIcSt11char_traitsIcESaIcEEE22infix_ostream_iteratorIS8_cS6_EEET0_T_SE_SD_
FN:505,_ZSt14__copy_move_a1ILb0EPKNSt7__cxx1112basic_stringIcSt11char_traitsIcESaIcEEE22infix_ostream_iteratorIS5_cS3_EET1_T0_SB_SA_
FNDA:0,_ZSt14__copy_move_a1ILb0EPKNSt7__cxx1112basic_stringIcSt11char_traitsIcESaIcEEE22infix_ostream_iteratorIS5_cS3_EET1_T0_SB_SA_
FN:511,_ZSt13__copy_move_aILb0EN9__gnu_cxx17__normal_iteratorIPKNSt7__cxx1112basic_stringIcSt11char_traitsIcESaIcEEESt6vectorIS7_SaIS7_EEEE22infix_ostream_iteratorIS7_cS5_EET1_T0_SH_SG_
FNDA:0,_ZSt13__copy_move_aILb0EN9__gnu_cxx17__normal_iteratorIPKNSt7__cxx1112basic_stringIcSt11char_traitsIcESaIcEEESt6vectorIS7_SaIS7_EEEE22infix_ostream_iteratorIS7_cS5_EET1_T0_SH_SG_
FN:560,_ZSt4copyIPKmPmET0_T_S4_S3_
FNDA:0,_ZSt4copyIPKmPmET0_T_S4_S3_
FN:560,_ZSt4copyIPKdPdET0_T_S4_S3_
FNDA:0,_ZSt4copyIPKdPdET0_T_S4_S3_
FN:663,_ZNSt20__copy_move_backwardILb1ELb0ESt26random_access_iterator_tagE13__copy_move_bIPSt4pairIbN11MetaPhysicL10DualNumberIdNS4_28SemiDynamicSparseNumberArrayIdmNS4_8NWrapperILm64EEEEELb1EEEESC_EET0_T_SE_SD_
FNDA:0,_ZNSt20__copy_move_backwardILb1ELb0ESt26random_access_iterator_tagE13__copy_move_bIPSt4pairIbN11MetaPhysicL10DualNumberIdNS4_28SemiDynamicSparseNumberArrayIdmNS4_8NWrapperILm64EEEEELb1EEEESC_EET0_T_SE_SD_
FN:833,_ZSt13move_backwardIPSt4pairIbdES2_ET0_T_S4_S3_
FNDA:0,_ZSt13move_backwardIPSt4pairIbdES2_ET0_T_S4_S3_
FN:857,_ZSt9__fill_a1IPSt4pairIbN11MetaPhysicL10DualNumberIdNS1_28SemiDynamicSparseNumberArrayIdmNS1_8NWrapperILm64EEEEELb1EEEES8_EN9__gnu_cxx11__enable_ifIXntsrSt11__is_scalarIT0_E7__valueEvE6__typeET_SH_RKSD_
FNDA:0,_ZSt9__fill_a1IPSt4pairIbN11MetaPhysicL10DualNumberIdNS1_28SemiDynamicSparseNumberArrayIdmNS1_8NWrapperILm64EEEEELb1EEEES8_EN9__gnu_cxx11__enable_ifIXntsrSt11__is_scalarIT0_E7__valueEvE6__typeET_SH_RKSD_
FNF:8
FNH:0
DA:259,0
DA:260,0
DA:315,0
DA:331,0
DA:375,0
DA:378,0
DA:380,0
DA:381,0
DA:384,0
DA:424,0
DA:425,0
DA:426,0
DA:427,0
DA:472,0
DA:505,0
DA:506,0
DA:511,0
DA:513,0
DA:516,0
DA:560,0
DA:569,0
DA:560,0
DA:569,0
DA:569,0
DA:663,0
DA:666,0
DA:667,0
DA:668,0
DA:669,0
DA:709,0
DA:833,0
DA:845,0
DA:857,0
DA:860,0
DA:862,0
DA:872,0
DA:873,0
DA:914,0
DA:945,0
LF:39
LH:0
end_of_record
SF:/home/runner/work/beaver/beaver/moose/framework/build/header_symlinks/MooseVariableDependencyInterface.h
LF:0
LH:0
end_of_record
SF:/home/runner/work/beaver/beaver/build/header_symlinks/BVMisesStressAux.h
LF:0
LH:0
end_of_record
SF:/usr/share/miniconda3/envs/moose/x86_64-conda-linux-gnu/include/c++/10.4.0/utility
DA:189,0
LF:1
LH:0
end_of_record
SF:/home/runner/work/beaver/beaver/build/header_symlinks/BVPressureAux.h
LF:0
LH:0
end_of_record
SF:/usr/share/miniconda3/envs/moose/x86_64-conda-linux-gnu/include/c++/10.4.0/sstream
DA:678,0
DA:832,0
LF:2
LH:0
end_of_record
SF:/usr/share/miniconda3/envs/moose/x86_64-conda-linux-gnu/include/c++/10.4.0/bits/shared_ptr.h
FN:407,_ZNSt10shared_ptrI18BVDarcyVelocityAuxEC2ISaIS0_EJRK15InputParametersEEESt20_Sp_alloc_shared_tagIT_EDpOT0_
FNDA:4,_ZNSt10shared_ptrI18BVDarcyVelocityAuxEC2ISaIS0_EJRK15InputParametersEEESt20_Sp_alloc_shared_tagIT_EDpOT0_
FN:407,_ZNSt10shared_ptrI14BVEqvStrainAuxEC2ISaIS0_EJRK15InputParametersEEESt20_Sp_alloc_shared_tagIT_EDpOT0_
FNDA:2,_ZNSt10shared_ptrI14BVEqvStrainAuxEC2ISaIS0_EJRK15InputParametersEEESt20_Sp_alloc_shared_tagIT_EDpOT0_
FN:407,_ZNSt10shared_ptrI18BVEqvStrainRateAuxEC2ISaIS0_EJRK15InputParametersEEESt20_Sp_alloc_shared_tagIT_EDpOT0_
FNDA:2,_ZNSt10shared_ptrI18BVEqvStrainRateAuxEC2ISaIS0_EJRK15InputParametersEEESt20_Sp_alloc_shared_tagIT_EDpOT0_
FN:407,_ZNSt10shared_ptrI16BVMisesStressAuxEC2ISaIS0_EJRK15InputParametersEEESt20_Sp_alloc_shared_tagIT_EDpOT0_
FNDA:3,_ZNSt10shared_ptrI16BVMisesStressAuxEC2ISaIS0_EJRK15InputParametersEEESt20_Sp_alloc_shared_tagIT_EDpOT0_
FN:407,_ZNSt10shared_ptrI13BVPressureAuxEC2ISaIS0_EJRK15InputParametersEEESt20_Sp_alloc_shared_tagIT_EDpOT0_
FNDA:1,_ZNSt10shared_ptrI13BVPressureAuxEC2ISaIS0_EJRK15InputParametersEEESt20_Sp_alloc_shared_tagIT_EDpOT0_
FN:407,_ZNSt10shared_ptrI20BVStrainComponentAuxEC2ISaIS0_EJRK15InputParametersEEESt20_Sp_alloc_shared_tagIT_EDpOT0_
FNDA:6,_ZNSt10shared_ptrI20BVStrainComponentAuxEC2ISaIS0_EJRK15InputParametersEEESt20_Sp_alloc_shared_tagIT_EDpOT0_
FN:407,_ZNSt10shared_ptrI20BVStressComponentAuxEC2ISaIS0_EJRK15InputParametersEEESt20_Sp_alloc_shared_tagIT_EDpOT0_
FNDA:7,_ZNSt10shared_ptrI20BVStressComponentAuxEC2ISaIS0_EJRK15InputParametersEEESt20_Sp_alloc_shared_tagIT_EDpOT0_
FN:407,_ZNSt10shared_ptrI13RegistryEntryI20BVStressComponentAuxEEC2ISaIS2_EJRK17RegistryEntryDataEEESt20_Sp_alloc_shared_tagIT_EDpOT0_
FNDA:17,_ZNSt10shared_ptrI13RegistryEntryI20BVStressComponentAuxEEC2ISaIS2_EJRK17RegistryEntryDataEEESt20_Sp_alloc_shared_tagIT_EDpOT0_
FN:407,_ZNSt10shared_ptrI13RegistryEntryI20BVStrainComponentAuxEEC2ISaIS2_EJRK17RegistryEntryDataEEESt20_Sp_alloc_shared_tagIT_EDpOT0_
FNDA:17,_ZNSt10shared_ptrI13RegistryEntryI20BVStrainComponentAuxEEC2ISaIS2_EJRK17RegistryEntryDataEEESt20_Sp_alloc_shared_tagIT_EDpOT0_
FN:407,_ZNSt10shared_ptrI13RegistryEntryI13BVPressureAuxEEC2ISaIS2_EJRK17RegistryEntryDataEEESt20_Sp_alloc_shared_tagIT_EDpOT0_
FNDA:17,_ZNSt10shared_ptrI13RegistryEntryI13BVPressureAuxEEC2ISaIS2_EJRK17RegistryEntryDataEEESt20_Sp_alloc_shared_tagIT_EDpOT0_
FN:407,_ZNSt10shared_ptrI13RegistryEntryI16BVMisesStressAuxEEC2ISaIS2_EJRK17RegistryEntryDataEEESt20_Sp_alloc_shared_tagIT_EDpOT0_
FNDA:17,_ZNSt10shared_ptrI13RegistryEntryI16BVMisesStressAuxEEC2ISaIS2_EJRK17RegistryEntryDataEEESt20_Sp_alloc_shared_tagIT_EDpOT0_
FN:407,_ZNSt10shared_ptrI13RegistryEntryI18BVEqvStrainRateAuxEEC2ISaIS2_EJRK17RegistryEntryDataEEESt20_Sp_alloc_shared_tagIT_EDpOT0_
FNDA:17,_ZNSt10shared_ptrI13RegistryEntryI18BVEqvStrainRateAuxEEC2ISaIS2_EJRK17RegistryEntryDataEEESt20_Sp_alloc_shared_tagIT_EDpOT0_
FN:407,_ZNSt10shared_ptrI13RegistryEntryI14BVEqvStrainAuxEEC2ISaIS2_EJRK17RegistryEntryDataEEESt20_Sp_alloc_shared_tagIT_EDpOT0_
FNDA:17,_ZNSt10shared_ptrI13RegistryEntryI14BVEqvStrainAuxEEC2ISaIS2_EJRK17RegistryEntryDataEEESt20_Sp_alloc_shared_tagIT_EDpOT0_
FN:407,_ZNSt10shared_ptrI13RegistryEntryI18BVDarcyVelocityAuxEEC2ISaIS2_EJRK17RegistryEntryDataEEESt20_Sp_alloc_shared_tagIT_EDpOT0_
FNDA:17,_ZNSt10shared_ptrI13RegistryEntryI18BVDarcyVelocityAuxEEC2ISaIS2_EJRK17RegistryEntryDataEEESt20_Sp_alloc_shared_tagIT_EDpOT0_
FNF:14
FNH:14
DA:121,238
DA:407,4
DA:408,4
DA:409,4
DA:407,2
DA:408,2
DA:409,2
DA:407,2
DA:408,2
DA:409,2
DA:407,3
DA:408,3
DA:409,3
DA:407,1
DA:408,1
DA:409,1
DA:407,6
DA:408,6
DA:409,6
DA:407,7
DA:408,7
DA:409,7
DA:407,17
DA:408,17
DA:409,17
DA:407,17
DA:408,17
DA:409,17
DA:407,17
DA:408,17
DA:409,17
DA:407,17
DA:408,17
DA:409,17
DA:407,17
DA:408,17
DA:409,17
DA:407,17
DA:408,17
DA:409,17
DA:407,17
DA:408,17
DA:409,17
DA:862,144
DA:877,119
LF:45
LH:45
end_of_record
SF:/usr/share/miniconda3/envs/moose/x86_64-conda-linux-gnu/include/c++/10.4.0/bits/stl_iterator.h
DA:244,0
DA:245,0
DA:293,0
DA:315,0
DA:996,0
DA:1001,0
DA:1005,0
DA:1022,0
DA:1023,0
DA:1069,119
DA:1134,0
DA:1239,0
DA:1397,0
DA:1423,0
LF:14
LH:1
end_of_record
SF:/usr/share/miniconda3/envs/moose/libmesh/include/libmesh/libmesh_exceptions.h
FN:51,_ZN7libMesh14NotImplementedC2ENSt7__cxx1112basic_stringIcSt11char_traitsIcESaIcEEE
FNDA:0,_ZN7libMesh14NotImplementedC2ENSt7__cxx1112basic_stringIcSt11char_traitsIcESaIcEEE
FNF:1
FNH:0
DA:39,0
DA:51,0
LF:2
LH:0
end_of_record
SF:/usr/share/miniconda3/envs/moose/libmesh/include/libmesh/type_vector.h
FN:874,_ZNK7libMesh10TypeVectorIN11MetaPhysicL10DualNumberIdNS1_28SemiDynamicSparseNumberArrayIdmNS1_8NWrapperILm64EEEEELb1EEEEmlIdEENS_12CompareTypesIS7_T_E9supertypeERKNS0_ISB_EE
FNDA:0,_ZNK7libMesh10TypeVectorIN11MetaPhysicL10DualNumberIdNS1_28SemiDynamicSparseNumberArrayIdmNS1_8NWrapperILm64EEEEELb1EEEEmlIdEENS_12CompareTypesIS7_T_E9supertypeERKNS0_ISB_EE
FNF:1
FNH:0
DA:421,0
DA:422,0
DA:570,36080
DA:874,0
DA:886,0
DA:887,0
DA:888,0
LF:7
LH:1
end_of_record
SF:/home/runner/work/beaver/beaver/moose/framework/build/header_symlinks/MooseEnum.h
FN:66,_ZN9MooseEnumD0Ev
FNDA:0,_ZN9MooseEnumD0Ev
FN:66,_ZN9MooseEnumD2Ev
FNDA:0,_ZN9MooseEnumD2Ev
FNF:2
FNH:0
DA:66,0
DA:66,0
DA:72,30
LF:3
LH:1
end_of_record
SF:/home/runner/work/beaver/beaver/moose/framework/build/header_symlinks/RankTwoTensor.h
FN:1383,_ZN11MetaPhysicL7RawTypeI18RankTwoTensorTemplINS_10DualNumberIdNS_28SemiDynamicSparseNumberArrayIdmNS_8NWrapperILm64EEEEELb1EEEEvE5valueERKS8_
FNDA:0,_ZN11MetaPhysicL7RawTypeI18RankTwoTensorTemplINS_10DualNumberIdNS_28SemiDynamicSparseNumberArrayIdmNS_8NWrapperILm64EEEEELb1EEEEvE5valueERKS8_
FN:1383,_ZN11MetaPhysicL7RawTypeI18RankTwoTensorTemplIdEvE5valueERKS2_
FNDA:0,_ZN11MetaPhysicL7RawTypeI18RankTwoTensorTemplIdEvE5valueERKS2_
FN:1438,_ZNK18RankTwoTensorTemplIN11MetaPhysicL10DualNumberIdNS0_28SemiDynamicSparseNumberArrayIdmNS0_8NWrapperILm64EEEEELb1EEEEdvIdLi0EEES_IN7libMesh12CompareTypesIS6_T_E9supertypeEERKSB_
FNDA:20480,_ZNK18RankTwoTensorTemplIN11MetaPhysicL10DualNumberIdNS0_28SemiDynamicSparseNumberArrayIdmNS0_8NWrapperILm64EEEEELb1EEEEdvIdLi0EEES_IN7libMesh12CompareTypesIS6_T_E9supertypeEERKSB_
FNF:3
FNH:1
DA:79,20480
DA:1383,0
DA:1385,0
DA:1386,0
DA:1387,0
DA:1388,0
DA:1390,0
DA:1383,0
DA:1385,0
DA:1386,0
DA:1387,0
DA:1388,0
DA:1390,0
DA:1438,20480
DA:1440,20480
LF:15
LH:3
end_of_record
SF:/home/runner/work/beaver/beaver/moose/framework/build/header_symlinks/InputParameters.h
FN:53,_ZN15InputParametersD0Ev
FNDA:0,_ZN15InputParametersD0Ev
FN:53,_ZN15InputParametersD2Ev
FNDA:0,_ZN15InputParametersD2Ev
FN:1074,_ZNK15InputParameters2atERKNSt7__cxx1112basic_stringIcSt11char_traitsIcESaIcEEE
FNDA:0,_ZNK15InputParameters2atERKNSt7__cxx1112basic_stringIcSt11char_traitsIcESaIcEEE
FNF:3
FNH:0
DA:53,0
DA:53,0
DA:840,0
DA:1074,0
DA:1076,0
DA:1078,0
DA:1079,0
LF:7
LH:0
end_of_record
SF:/usr/share/miniconda3/envs/moose/x86_64-conda-linux-gnu/include/c++/10.4.0/bits/alloc_traits.h
FN:459,_ZNSt16allocator_traitsISaISt4pairIbdEEE8allocateERS2_m
FNDA:0,_ZNSt16allocator_traitsISaISt4pairIbdEEE8allocateERS2_m
FN:459,_ZNSt16allocator_traitsISaISt4pairIbN11MetaPhysicL10DualNumberIdNS1_28SemiDynamicSparseNumberArrayIdmNS1_8NWrapperILm64EEEEELb1EEEEEE8allocateERS9_m
FNDA:0,_ZNSt16allocator_traitsISaISt4pairIbN11MetaPhysicL10DualNumberIdNS1_28SemiDynamicSparseNumberArrayIdmNS1_8NWrapperILm64EEEEELb1EEEEEE8allocateERS9_m
FN:459,_ZNSt16allocator_traitsISaISt6vectorISt4pairIbdESaIS2_EEEE8allocateERS5_m
FNDA:0,_ZNSt16allocator_traitsISaISt6vectorISt4pairIbdESaIS2_EEEE8allocateERS5_m
FN:459,_ZNSt16allocator_traitsISaISt6vectorISt4pairIbN11MetaPhysicL10DualNumberIdNS2_28SemiDynamicSparseNumberArrayIdmNS2_8NWrapperILm64EEEEELb1EEEESaIS9_EEEE8allocateERSC_m
FNDA:0,_ZNSt16allocator_traitsISaISt6vectorISt4pairIbN11MetaPhysicL10DualNumberIdNS2_28SemiDynamicSparseNumberArrayIdmNS2_8NWrapperILm64EEEEELb1EEEESaIS9_EEEE8allocateERSC_m
FN:459,_ZNSt16allocator_traitsISaIPNSt8__detail15_Hash_node_baseEEE8allocateERS3_m
FNDA:0,_ZNSt16allocator_traitsISaIPNSt8__detail15_Hash_node_baseEEE8allocateERS3_m
FN:459,_ZNSt16allocator_traitsISaISt10shared_ptrI17RegistryEntryBaseEEE8allocateERS3_m
FNDA:0,_ZNSt16allocator_traitsISaISt10shared_ptrI17RegistryEntryBaseEEE8allocateERS3_m
FN:459,_ZNSt16allocator_traitsISaISt10unique_ptrI13PropertyValueSt14default_deleteIS1_EEEE8allocateERS5_m
FNDA:0,_ZNSt16allocator_traitsISaISt10unique_ptrI13PropertyValueSt14default_deleteIS1_EEEE8allocateERS5_m
FN:459,_ZNSt16allocator_traitsISaINSt7__cxx1112basic_stringIcSt11char_traitsIcESaIcEEEEE8allocateERS6_m
FNDA:0,_ZNSt16allocator_traitsISaINSt7__cxx1112basic_stringIcSt11char_traitsIcESaIcEEEEE8allocateERS6_m
FNF:8
FNH:0
DA:459,0
DA:460,0
DA:459,0
DA:460,0
DA:459,0
DA:460,0
DA:459,0
DA:460,0
DA:459,0
DA:460,0
DA:459,0
DA:460,0
DA:459,0
DA:460,0
DA:459,0
DA:460,0
DA:492,307
DA:512,0
LF:18
LH:1
end_of_record
SF:/usr/share/miniconda3/envs/moose/libmesh/include/Eigen/src/Core/Matrix.h
DA:178,0
LF:1
LH:0
end_of_record
SF:/home/runner/work/beaver/beaver/src/auxkernels/BVStrainAuxBase.C
FN:17,_ZN15BVStrainAuxBase11validParamsEv
FNDA:368,_ZN15BVStrainAuxBase11validParamsEv
FN:24,_ZN15BVStrainAuxBaseC2ERK15InputParameters
FNDA:10,_ZN15BVStrainAuxBaseC2ERK15InputParameters
FNF:2
FNH:2
DA:17,368
DA:19,368
DA:20,368
DA:21,368
DA:24,10
DA:26,20
DA:28,10
LF:7
LH:7
end_of_record
SF:/home/runner/work/beaver/beaver/build/header_symlinks/BVStressAuxBase.h
LF:0
LH:0
end_of_record
SF:/home/runner/work/beaver/beaver/moose/framework/build/header_symlinks/FunctorInterface.h
LF:0
LH:0
end_of_record
SF:/usr/share/miniconda3/envs/moose/x86_64-conda-linux-gnu/include/c++/10.4.0/bits/basic_string.h
FN:533,_ZNSt7__cxx1112basic_stringIcSt11char_traitsIcESaIcEEC2IS3_EEPKcRKS3_
FNDA:4941,_ZNSt7__cxx1112basic_stringIcSt11char_traitsIcESaIcEEC2IS3_EEPKcRKS3_
FN:1483,_ZNSt7__cxx1112basic_stringIcSt11char_traitsIcESaIcEE6assignIPcvEERS4_T_S8_
FNDA:0,_ZNSt7__cxx1112basic_stringIcSt11char_traitsIcESaIcEE6assignIPcvEERS4_T_S8_
FN:6044,_ZStplIcSt11char_traitsIcESaIcEENSt7__cxx1112basic_stringIT_T0_T1_EERKS8_SA_
FNDA:0,_ZStplIcSt11char_traitsIcESaIcEENSt7__cxx1112basic_stringIT_T0_T1_EERKS8_SA_
FN:6109,_ZStplIcSt11char_traitsIcESaIcEENSt7__cxx1112basic_stringIT_T0_T1_EEOS8_RKS8_
FNDA:0,_ZStplIcSt11char_traitsIcESaIcEENSt7__cxx1112basic_stringIT_T0_T1_EEOS8_RKS8_
FN:6121,_ZStplIcSt11char_traitsIcESaIcEENSt7__cxx1112basic_stringIT_T0_T1_EEOS8_S9_
FNDA:0,_ZStplIcSt11char_traitsIcESaIcEENSt7__cxx1112basic_stringIT_T0_T1_EEOS8_S9_
FN:6143,_ZStplIcSt11char_traitsIcESaIcEENSt7__cxx1112basic_stringIT_T0_T1_EEPKS5_OS8_
FNDA:0,_ZStplIcSt11char_traitsIcESaIcEENSt7__cxx1112basic_stringIT_T0_T1_EEPKS5_OS8_
FN:6155,_ZStplIcSt11char_traitsIcESaIcEENSt7__cxx1112basic_stringIT_T0_T1_EEOS8_PKS5_
FNDA:0,_ZStplIcSt11char_traitsIcESaIcEENSt7__cxx1112basic_stringIT_T0_T1_EEOS8_PKS5_
FNF:7
FNH:1
DA:164,4941
DA:165,4941
DA:167,0
DA:168,0
DA:187,2697
DA:191,4941
DA:195,0
DA:201,0
DA:211,0
DA:219,2697
DA:225,4941
DA:401,0
DA:406,4941
DA:439,0
DA:533,4941
DA:536,4941
DA:539,4941
DA:540,4941
DA:565,0
DA:568,0
DA:576,0
DA:585,0
DA:671,2956
DA:680,0
DA:689,0
DA:827,0
DA:915,0
DA:921,0
DA:979,0
DA:1054,0
DA:1153,0
DA:1162,0
DA:1206,0
DA:1379,0
DA:1483,0
DA:1484,0
DA:1653,0
DA:6044,0
DA:6047,0
DA:6049,0
DA:6109,0
DA:6111,0
DA:6121,0
DA:6134,0
DA:6135,0
DA:6143,0
DA:6145,0
DA:6155,0
DA:6157,0
DA:6292,0
DA:6485,0
LF:51
LH:12
end_of_record
SF:/usr/share/miniconda3/envs/moose/libmesh/include/libmesh/elem.h
FN:569,_ZNK7libMesh4Elem9is_remoteEv
FNDA:0,_ZNK7libMesh4Elem9is_remoteEv
FN:627,_ZNK7libMesh4Elem16n_nodes_in_childEj
FNDA:0,_ZNK7libMesh4Elem16n_nodes_in_childEj
FN:713,_ZNK7libMesh4Elem18is_vertex_on_childEjj
FNDA:0,_ZNK7libMesh4Elem18is_vertex_on_childEjj
FN:911,_ZNK7libMesh4Elem18default_side_orderEv
FNDA:0,_ZNK7libMesh4Elem18default_side_orderEv
FN:955,_ZNK7libMesh4Elem17quasicircumcenterEv
FNDA:0,_ZNK7libMesh4Elem17quasicircumcenterEv
FN:999,_ZNK7libMesh4Elem11qual_boundsENS_11ElemQualityE
FNDA:0,_ZNK7libMesh4Elem11qual_boundsENS_11ElemQualityE
FN:1039,_ZNK7libMesh4Elem14has_affine_mapEv
FNDA:0,_ZNK7libMesh4Elem14has_affine_mapEv
FN:1055,_ZNK7libMesh4Elem9is_linearEv
FNDA:0,_ZNK7libMesh4Elem9is_linearEv
FN:1660,_ZNK7libMesh4Elem19local_singular_nodeERKNS_5PointEd
FNDA:0,_ZNK7libMesh4Elem19local_singular_nodeERKNS_5PointEd
FN:1667,_ZNK7libMesh4Elem16is_singular_nodeEj
FNDA:0,_ZNK7libMesh4Elem16is_singular_nodeEj
FN:1868,_ZNK7libMesh4Elem24embedding_matrix_versionEv
FNDA:0,_ZNK7libMesh4Elem24embedding_matrix_versionEv
FN:2027,_ZNK7libMesh4Elem26_get_bracketing_node_cacheEv
FNDA:0,_ZNK7libMesh4Elem26_get_bracketing_node_cacheEv
FN:2041,_ZNK7libMesh4Elem25_get_parent_indices_cacheEv
FNDA:0,_ZNK7libMesh4Elem25_get_parent_indices_cacheEv
FN:2357,_ZN7libMesh4Elem8set_nodeEj
FNDA:0,_ZN7libMesh4Elem8set_nodeEj
FNF:14
FNH:0
DA:569,0
DA:570,0
DA:627,0
DA:628,0
DA:713,0
DA:715,0
DA:911,0
DA:955,0
DA:956,0
DA:999,0
DA:1000,0
DA:1039,0
DA:1055,0
DA:1660,0
DA:1661,0
DA:1667,0
DA:1868,0
DA:2027,0
DA:2029,0
DA:2030,0
DA:2041,0
DA:2043,0
DA:2044,0
DA:2357,0
DA:2361,0
DA:2369,0
LF:26
LH:0
end_of_record
SF:/home/runner/work/beaver/beaver/moose/framework/build/header_symlinks/Conversion.h
FN:62,_ZN5Moose9stringifyIN7libMesh5PointEEENSt7__cxx1112basic_stringIcSt11char_traitsIcESaIcEEERKT_
FNDA:0,_ZN5Moose9stringifyIN7libMesh5PointEEENSt7__cxx1112basic_stringIcSt11char_traitsIcESaIcEEERKT_
FNF:1
FNH:0
DA:62,0
DA:64,0
DA:65,0
DA:66,0
LF:4
LH:0
end_of_record
SF:/home/runner/work/beaver/beaver/moose/framework/build/header_symlinks/DataIO.h
DA:170,0
DA:384,0
DA:385,0
DA:432,0
DA:476,0
DA:679,0
DA:680,0
DA:728,0
DA:771,0
DA:835,0
LF:10
LH:0
end_of_record
SF:/home/runner/work/beaver/beaver/moose/framework/build/header_symlinks/NonADFunctorInterface.h
FN:27,_ZNK21NonADFunctorInterface10isADObjectEv
FNDA:0,_ZNK21NonADFunctorInterface10isADObjectEv
FNF:1
FNH:0
DA:27,0
LF:1
LH:0
end_of_record
SF:/home/runner/work/beaver/beaver/moose/framework/build/header_symlinks/BoundaryRestrictable.h
FN:179,_ZNK20BoundaryRestrictable30checkVariableBoundaryIntegrityEv
FNDA:0,_ZNK20BoundaryRestrictable30checkVariableBoundaryIntegrityEv
FNF:1
FNH:0
DA:179,0
LF:1
LH:0
end_of_record
SF:/usr/share/miniconda3/envs/moose/x86_64-conda-linux-gnu/include/c++/10.4.0/bits/stl_map.h
FN:492,_ZNSt3mapINSt7__cxx1112basic_stringIcSt11char_traitsIcESaIcEEESt6vectorISt10shared_ptrI17RegistryEntryBaseESaIS9_EESt4lessIS5_ESaISt4pairIKS5_SB_EEEixERSF_
FNDA:0,_ZNSt3mapINSt7__cxx1112basic_stringIcSt11char_traitsIcESaIcEEESt6vectorISt10shared_ptrI17RegistryEntryBaseESaIS9_EESt4lessIS5_ESaISt4pairIKS5_SB_EEEixERSF_
FN:492,_ZNSt3mapINSt7__cxx1112basic_stringIcSt11char_traitsIcESaIcEEESt10unique_ptrIN7libMesh10Parameters5ValueESt14default_deleteIS9_EESt4lessIvESaISt4pairIKS5_SC_EEEixERSG_
FNDA:0,_ZNSt3mapINSt7__cxx1112basic_stringIcSt11char_traitsIcESaIcEEESt10unique_ptrIN7libMesh10Parameters5ValueESt14default_deleteIS9_EESt4lessIvESaISt4pairIKS5_SC_EEEixERSG_
FN:512,_ZNSt3mapINSt7__cxx1112basic_stringIcSt11char_traitsIcESaIcEEES5_St4lessIS5_ESaISt4pairIKS5_S5_EEEixEOS5_
FNDA:0,_ZNSt3mapINSt7__cxx1112basic_stringIcSt11char_traitsIcESaIcEEES5_St4lessIS5_ESaISt4pairIKS5_S5_EEEixEOS5_
FN:546,_ZNKSt3mapINSt7__cxx1112basic_stringIcSt11char_traitsIcESaIcEEEN15InputParameters8MetadataESt4lessIS5_ESaISt4pairIKS5_S7_EEE2atERSB_
FNDA:0,_ZNKSt3mapINSt7__cxx1112basic_stringIcSt11char_traitsIcESaIcEEEN15InputParameters8MetadataESt4lessIS5_ESaISt4pairIKS5_S7_EEE2atERSB_
FN:691,_ZNSt3mapIN5Moose7FaceArgEdSt4lessIS1_ESaISt4pairIKS1_dEEE11try_emplaceIJdEEES4_ISt17_Rb_tree_iteratorIS6_EbERS5_DpOT_
FNDA:0,_ZNSt3mapIN5Moose7FaceArgEdSt4lessIS1_ESaISt4pairIKS1_dEEE11try_emplaceIJdEEES4_ISt17_Rb_tree_iteratorIS6_EbERS5_DpOT_
FN:691,_ZNSt3mapIN5Moose7ElemArgEdSt4lessIS1_ESaISt4pairIKS1_dEEE11try_emplaceIJdEEES4_ISt17_Rb_tree_iteratorIS6_EbERS5_DpOT_
FNDA:0,_ZNSt3mapIN5Moose7ElemArgEdSt4lessIS1_ESaISt4pairIKS1_dEEE11try_emplaceIJdEEES4_ISt17_Rb_tree_iteratorIS6_EbERS5_DpOT_
FN:691,_ZNSt3mapIN5Moose7FaceArgEN11MetaPhysicL10DualNumberIdNS2_28SemiDynamicSparseNumberArrayIdmNS2_8NWrapperILm64EEEEELb1EEESt4lessIS1_ESaISt4pairIKS1_S8_EEE11try_emplaceIJS8_EEESB_ISt17_Rb_tree_iteratorISD_EbERSC_DpOT_
FNDA:0,_ZNSt3mapIN5Moose7FaceArgEN11MetaPhysicL10DualNumberIdNS2_28SemiDynamicSparseNumberArrayIdmNS2_8NWrapperILm64EEEEELb1EEESt4lessIS1_ESaISt4pairIKS1_S8_EEE11try_emplaceIJS8_EEESB_ISt17_Rb_tree_iteratorISD_EbERSC_DpOT_
FN:691,_ZNSt3mapIN5Moose7ElemArgEN11MetaPhysicL10DualNumberIdNS2_28SemiDynamicSparseNumberArrayIdmNS2_8NWrapperILm64EEEEELb1EEESt4lessIS1_ESaISt4pairIKS1_S8_EEE11try_emplaceIJS8_EEESB_ISt17_Rb_tree_iteratorISD_EbERSC_DpOT_
FNDA:0,_ZNSt3mapIN5Moose7ElemArgEN11MetaPhysicL10DualNumberIdNS2_28SemiDynamicSparseNumberArrayIdmNS2_8NWrapperILm64EEEEELb1EEESt4lessIS1_ESaISt4pairIKS1_S8_EEE11try_emplaceIJS8_EEESB_ISt17_Rb_tree_iteratorISD_EbERSC_DpOT_
FN:1258,_ZNSt3mapIN5Moose7FaceArgEdSt4lessIS1_ESaISt4pairIKS1_dEEE11lower_boundERS5_
FNDA:0,_ZNSt3mapIN5Moose7FaceArgEdSt4lessIS1_ESaISt4pairIKS1_dEEE11lower_boundERS5_
FN:1258,_ZNSt3mapIN5Moose7ElemArgEdSt4lessIS1_ESaISt4pairIKS1_dEEE11lower_boundERS5_
FNDA:0,_ZNSt3mapIN5Moose7ElemArgEdSt4lessIS1_ESaISt4pairIKS1_dEEE11lower_boundERS5_
FN:1258,_ZNSt3mapIN5Moose7FaceArgEN11MetaPhysicL10DualNumberIdNS2_28SemiDynamicSparseNumberArrayIdmNS2_8NWrapperILm64EEEEELb1EEESt4lessIS1_ESaISt4pairIKS1_S8_EEE11lower_boundERSC_
FNDA:0,_ZNSt3mapIN5Moose7FaceArgEN11MetaPhysicL10DualNumberIdNS2_28SemiDynamicSparseNumberArrayIdmNS2_8NWrapperILm64EEEEELb1EEESt4lessIS1_ESaISt4pairIKS1_S8_EEE11lower_boundERSC_
FN:1258,_ZNSt3mapIN5Moose7ElemArgEN11MetaPhysicL10DualNumberIdNS2_28SemiDynamicSparseNumberArrayIdmNS2_8NWrapperILm64EEEEELb1EEESt4lessIS1_ESaISt4pairIKS1_S8_EEE11lower_boundERSC_
FNDA:0,_ZNSt3mapIN5Moose7ElemArgEN11MetaPhysicL10DualNumberIdNS2_28SemiDynamicSparseNumberArrayIdmNS2_8NWrapperILm64EEEEELb1EEESt4lessIS1_ESaISt4pairIKS1_S8_EEE11lower_boundERSC_
FN:1258,_ZNSt3mapINSt7__cxx1112basic_stringIcSt11char_traitsIcESaIcEEES5_St4lessIS5_ESaISt4pairIKS5_S5_EEE11lower_boundERS9_
FNDA:0,_ZNSt3mapINSt7__cxx1112basic_stringIcSt11char_traitsIcESaIcEEES5_St4lessIS5_ESaISt4pairIKS5_S5_EEE11lower_boundERS9_
FN:1258,_ZNSt3mapINSt7__cxx1112basic_stringIcSt11char_traitsIcESaIcEEESt6vectorISt10shared_ptrI17RegistryEntryBaseESaIS9_EESt4lessIS5_ESaISt4pairIKS5_SB_EEE11lower_boundERSF_
FNDA:0,_ZNSt3mapINSt7__cxx1112basic_stringIcSt11char_traitsIcESaIcEEESt6vectorISt10shared_ptrI17RegistryEntryBaseESaIS9_EESt4lessIS5_ESaISt4pairIKS5_SB_EEE11lower_boundERSF_
FN:1258,_ZNSt3mapINSt7__cxx1112basic_stringIcSt11char_traitsIcESaIcEEESt10unique_ptrIN7libMesh10Parameters5ValueESt14default_deleteIS9_EESt4lessIvESaISt4pairIKS5_SC_EEE11lower_boundERSG_
FNDA:0,_ZNSt3mapINSt7__cxx1112basic_stringIcSt11char_traitsIcESaIcEEESt10unique_ptrIN7libMesh10Parameters5ValueESt14default_deleteIS9_EESt4lessIvESaISt4pairIKS5_SC_EEE11lower_boundERSG_
FN:1283,_ZNKSt3mapINSt7__cxx1112basic_stringIcSt11char_traitsIcESaIcEEEN15InputParameters8MetadataESt4lessIS5_ESaISt4pairIKS5_S7_EEE11lower_boundERSB_
FNDA:0,_ZNKSt3mapINSt7__cxx1112basic_stringIcSt11char_traitsIcESaIcEEEN15InputParameters8MetadataESt4lessIS5_ESaISt4pairIKS5_S7_EEE11lower_boundERSB_
FNF:16
FNH:0
DA:302,0
DA:492,0
DA:497,0
DA:499,0
DA:501,0
DA:502,0
DA:503,0
DA:507,0
DA:492,0
DA:497,0
DA:499,0
DA:501,0
DA:502,0
DA:503,0
DA:507,0
DA:512,0
DA:517,0
DA:519,0
DA:520,0
DA:522,0
DA:523,0
DA:546,0
DA:548,0
DA:549,0
DA:550,0
DA:551,0
DA:608,0
DA:691,0
DA:693,0
DA:694,0
DA:696,0
DA:700,0
DA:702,0
DA:691,0
DA:693,0
DA:694,0
DA:696,0
DA:700,0
DA:702,0
DA:691,0
DA:693,0
DA:694,0
DA:696,0
DA:700,0
DA:702,0
DA:691,0
DA:693,0
DA:694,0
DA:696,0
DA:700,0
DA:702,0
DA:1134,0
DA:1216,0
DA:1258,0
DA:1259,0
DA:1258,0
DA:1259,0
DA:1258,0
DA:1259,0
DA:1258,0
DA:1259,0
DA:1258,0
DA:1259,0
DA:1258,0
DA:1259,0
DA:1258,0
DA:1259,0
DA:1283,0
DA:1284,0
LF:69
LH:0
end_of_record
SF:/usr/share/miniconda3/envs/moose/x86_64-conda-linux-gnu/include/c++/10.4.0/array
DA:56,0
DA:235,0
DA:239,0
LF:3
LH:0
end_of_record
SF:/home/runner/work/beaver/beaver/moose/framework/build/header_symlinks/AuxKernel.h
FN:132,_ZN14AuxKernelTemplIdE17precalculateValueEv
FNDA:24229,_ZN14AuxKernelTemplIdE17precalculateValueEv
FNF:1
FNH:1
DA:132,24229
LF:1
LH:1
end_of_record
SF:/usr/share/miniconda3/envs/moose/x86_64-conda-linux-gnu/include/c++/10.4.0/bits/stl_vector.h
FN:333,_ZNSt12_Vector_baseISt6vectorIaSaIaEESaIS2_EED2Ev
FNDA:0,_ZNSt12_Vector_baseISt6vectorIaSaIaEESaIS2_EED2Ev
FN:333,_ZNSt12_Vector_baseIP15MooseVariableFEIdESaIS2_EED2Ev
FNDA:0,_ZNSt12_Vector_baseIP15MooseVariableFEIdESaIS2_EED2Ev
FN:333,_ZNSt12_Vector_baseIP15MooseVariableFEIN7libMesh11VectorValueIdEEESaIS5_EED2Ev
FNDA:0,_ZNSt12_Vector_baseIP15MooseVariableFEIN7libMesh11VectorValueIdEEESaIS5_EED2Ev
FN:333,_ZNSt12_Vector_baseIaSaIaEED2Ev
FNDA:0,_ZNSt12_Vector_baseIaSaIaEED2Ev
FN:333,_ZNSt12_Vector_baseISt6vectorISt4pairIhhESaIS2_EESaIS4_EED2Ev
FNDA:0,_ZNSt12_Vector_baseISt6vectorISt4pairIhhESaIS2_EESaIS4_EED2Ev
FN:333,_ZNSt12_Vector_baseIP15MooseVariableFEIN5Eigen6MatrixIdLin1ELi1ELi0ELin1ELi1EEEESaIS5_EED2Ev
FNDA:0,_ZNSt12_Vector_baseIP15MooseVariableFEIN5Eigen6MatrixIdLin1ELi1ELi0ELin1ELi1EEEESaIS5_EED2Ev
FN:333,_ZNSt12_Vector_baseISt10unique_ptrI10MooseArrayIdESt14default_deleteIS2_EESaIS5_EED2Ev
FNDA:0,_ZNSt12_Vector_baseISt10unique_ptrI10MooseArrayIdESt14default_deleteIS2_EESaIS5_EED2Ev
FN:333,_ZNSt12_Vector_baseISt10shared_ptrI17RegistryEntryBaseESaIS2_EED2Ev
FNDA:0,_ZNSt12_Vector_baseISt10shared_ptrI17RegistryEntryBaseESaIS2_EED2Ev
FN:333,_ZNSt12_Vector_baseIP15MooseVariableFVIdESaIS2_EED2Ev
FNDA:0,_ZNSt12_Vector_baseIP15MooseVariableFVIdESaIS2_EED2Ev
FN:333,_ZNSt12_Vector_baseISt4pairIbdESaIS1_EED2Ev
FNDA:0,_ZNSt12_Vector_baseISt4pairIbdESaIS1_EED2Ev
FN:333,_ZNSt12_Vector_baseISt6vectorIS0_ISt4pairIhhESaIS2_EESaIS4_EESaIS6_EED2Ev
FNDA:0,_ZNSt12_Vector_baseISt6vectorIS0_ISt4pairIhhESaIS2_EESaIS4_EESaIS6_EED2Ev
FN:333,_ZNSt12_Vector_baseISt3setIP18MooseVariableFieldIdESt4lessIS3_ESaIS3_EESaIS7_EED2Ev
FNDA:0,_ZNSt12_Vector_baseISt3setIP18MooseVariableFieldIdESt4lessIS3_ESaIS3_EESaIS7_EED2Ev
FN:333,_ZNSt12_Vector_baseIP19MooseVariableScalarSaIS1_EED2Ev
FNDA:0,_ZNSt12_Vector_baseIP19MooseVariableScalarSaIS1_EED2Ev
FN:333,_ZNSt12_Vector_baseISt10unique_ptrI13PropertyValueSt14default_deleteIS1_EESaIS4_EED2Ev
FNDA:0,_ZNSt12_Vector_baseISt10unique_ptrI13PropertyValueSt14default_deleteIS1_EESaIS4_EED2Ev
FN:333,_ZNSt12_Vector_baseISt10unique_ptrI33OptionalMaterialPropertyProxyBaseI25MaterialPropertyInterfaceESt14default_deleteIS3_EESaIS6_EED2Ev
FNDA:0,_ZNSt12_Vector_baseISt10unique_ptrI33OptionalMaterialPropertyProxyBaseI25MaterialPropertyInterfaceESt14default_deleteIS3_EESaIS6_EED2Ev
FN:333,_ZNSt12_Vector_baseISt10unique_ptrIN5Moose15FunctorEnvelopeIdEESt14default_deleteIS3_EESaIS6_EED2Ev
FNDA:24,_ZNSt12_Vector_baseISt10unique_ptrIN5Moose15FunctorEnvelopeIdEESt14default_deleteIS3_EESaIS6_EED2Ev
FN:333,_ZNSt12_Vector_baseISt10unique_ptrIN5Moose15FunctorEnvelopeIN11MetaPhysicL10DualNumberIdNS3_28SemiDynamicSparseNumberArrayIdmNS3_8NWrapperILm64EEEEELb1EEEEESt14default_deleteISA_EESaISD_EED2Ev
FNDA:24,_ZNSt12_Vector_baseISt10unique_ptrIN5Moose15FunctorEnvelopeIN11MetaPhysicL10DualNumberIdNS3_28SemiDynamicSparseNumberArrayIdmNS3_8NWrapperILm64EEEEELb1EEEEESt14default_deleteISA_EESaISD_EED2Ev
FN:333,_ZNSt12_Vector_baseISt6vectorISt4pairIbdESaIS2_EESaIS4_EED2Ev
FNDA:0,_ZNSt12_Vector_baseISt6vectorISt4pairIbdESaIS2_EESaIS4_EED2Ev
FN:333,_ZNSt12_Vector_baseISt4pairIbN11MetaPhysicL10DualNumberIdNS1_28SemiDynamicSparseNumberArrayIdmNS1_8NWrapperILm64EEEEELb1EEEESaIS8_EED2Ev
FNDA:0,_ZNSt12_Vector_baseISt4pairIbN11MetaPhysicL10DualNumberIdNS1_28SemiDynamicSparseNumberArrayIdmNS1_8NWrapperILm64EEEEELb1EEEESaIS8_EED2Ev
FN:333,_ZNSt12_Vector_baseISt6vectorISt4pairIbN11MetaPhysicL10DualNumberIdNS2_28SemiDynamicSparseNumberArrayIdmNS2_8NWrapperILm64EEEEELb1EEEESaIS9_EESaISB_EED2Ev
FNDA:0,_ZNSt12_Vector_baseISt6vectorISt4pairIbN11MetaPhysicL10DualNumberIdNS2_28SemiDynamicSparseNumberArrayIdmNS2_8NWrapperILm64EEEEELb1EEEESaIS9_EESaISB_EED2Ev
FN:333,_ZNSt12_Vector_baseISt4pairIhhESaIS1_EED2Ev
FNDA:0,_ZNSt12_Vector_baseISt4pairIhhESaIS1_EED2Ev
FN:333,_ZNSt12_Vector_baseIP22MooseVariableFieldBaseSaIS1_EED2Ev
FNDA:0,_ZNSt12_Vector_baseIP22MooseVariableFieldBaseSaIS1_EED2Ev
FN:333,_ZNSt12_Vector_baseISt5tupleIJNSt7__cxx1112basic_stringIcSt11char_traitsIcESaIcEEEN5Moose23RelationshipManagerTypeESt8functionIFvRK15InputParametersRSA_EEEESaISG_EED2Ev
FNDA:0,_ZNSt12_Vector_baseISt5tupleIJNSt7__cxx1112basic_stringIcSt11char_traitsIcESaIcEEEN5Moose23RelationshipManagerTypeESt8functionIFvRK15InputParametersRSA_EEEESaISG_EED2Ev
FN:333,_ZNSt12_Vector_baseI13SubdomainNameSaIS0_EED2Ev
FNDA:0,_ZNSt12_Vector_baseI13SubdomainNameSaIS0_EED2Ev
FN:333,_ZNSt12_Vector_baseItSaItEED2Ev
FNDA:0,_ZNSt12_Vector_baseItSaItEED2Ev
FN:333,_ZNSt12_Vector_baseIiSaIiEED2Ev
FNDA:1884,_ZNSt12_Vector_baseIiSaIiEED2Ev
FN:333,_ZNSt12_Vector_baseIdSaIdEED2Ev
FNDA:2223,_ZNSt12_Vector_baseIdSaIdEED2Ev
FN:333,_ZNSt12_Vector_baseIjSaIjEED2Ev
FNDA:0,_ZNSt12_Vector_baseIjSaIjEED2Ev
FN:333,_ZNSt12_Vector_baseISt6vectorIS0_IaSaIaEESaIS2_EESaIS4_EED2Ev
FNDA:0,_ZNSt12_Vector_baseISt6vectorIS0_IaSaIaEESaIS2_EESaIS4_EED2Ev
FN:333,_ZNSt12_Vector_baseISt6vectorIS0_IS0_ISt4pairIhhESaIS2_EESaIS4_EESaIS6_EESaIS8_EED2Ev
FNDA:0,_ZNSt12_Vector_baseISt6vectorIS0_IS0_ISt4pairIhhESaIS2_EESaIS4_EESaIS6_EESaIS8_EED2Ev
FN:333,_ZNSt12_Vector_baseImSaImEED2Ev
FNDA:24,_ZNSt12_Vector_baseImSaImEED2Ev
FN:333,_ZNSt12_Vector_baseINSt7__cxx1112basic_stringIcSt11char_traitsIcESaIcEEESaIS5_EED2Ev
FNDA:0,_ZNSt12_Vector_baseINSt7__cxx1112basic_stringIcSt11char_traitsIcESaIcEEESaIS5_EED2Ev
FN:465,_ZNSt6vectorISt10unique_ptrI13PropertyValueSt14default_deleteIS1_EESaIS4_EE11_S_relocateEPS4_S7_S7_RS5_
FNDA:0,_ZNSt6vectorISt10unique_ptrI13PropertyValueSt14default_deleteIS1_EESaIS4_EE11_S_relocateEPS4_S7_S7_RS5_
FN:625,_ZNSt6vectorINSt7__cxx1112basic_stringIcSt11char_traitsIcESaIcEEESaIS5_EEC2ESt16initializer_listIS5_ERKS6_
FNDA:0,_ZNSt6vectorINSt7__cxx1112basic_stringIcSt11char_traitsIcESaIcEEESaIS5_EEC2ESt16initializer_listIS5_ERKS6_
FN:678,_ZNSt6vectorIS_ISt4pairIhhESaIS1_EESaIS3_EED2Ev
FNDA:0,_ZNSt6vectorIS_ISt4pairIhhESaIS1_EESaIS3_EED2Ev
FN:678,_ZNSt6vectorISt10unique_ptrI13PropertyValueSt14default_deleteIS1_EESaIS4_EED2Ev
FNDA:0,_ZNSt6vectorISt10unique_ptrI13PropertyValueSt14default_deleteIS1_EESaIS4_EED2Ev
FN:678,_ZNSt6vectorISt10unique_ptrI33OptionalMaterialPropertyProxyBaseI25MaterialPropertyInterfaceESt14default_deleteIS3_EESaIS6_EED2Ev
FNDA:0,_ZNSt6vectorISt10unique_ptrI33OptionalMaterialPropertyProxyBaseI25MaterialPropertyInterfaceESt14default_deleteIS3_EESaIS6_EED2Ev
FN:678,_ZNSt6vectorISt10unique_ptrIN5Moose15FunctorEnvelopeIdEESt14default_deleteIS3_EESaIS6_EED2Ev
FNDA:24,_ZNSt6vectorISt10unique_ptrIN5Moose15FunctorEnvelopeIdEESt14default_deleteIS3_EESaIS6_EED2Ev
FN:678,_ZNSt6vectorISt10unique_ptrIN5Moose15FunctorEnvelopeIN11MetaPhysicL10DualNumberIdNS3_28SemiDynamicSparseNumberArrayIdmNS3_8NWrapperILm64EEEEELb1EEEEESt14default_deleteISA_EESaISD_EED2Ev
FNDA:24,_ZNSt6vectorISt10unique_ptrIN5Moose15FunctorEnvelopeIN11MetaPhysicL10DualNumberIdNS3_28SemiDynamicSparseNumberArrayIdmNS3_8NWrapperILm64EEEEELb1EEEEESt14default_deleteISA_EESaISD_EED2Ev
FN:678,_ZNSt6vectorISt3setIP18MooseVariableFieldIdESt4lessIS3_ESaIS3_EESaIS7_EED2Ev
FNDA:0,_ZNSt6vectorISt3setIP18MooseVariableFieldIdESt4lessIS3_ESaIS3_EESaIS7_EED2Ev
FN:678,_ZNSt6vectorISt5tupleIJNSt7__cxx1112basic_stringIcSt11char_traitsIcESaIcEEEN5Moose23RelationshipManagerTypeESt8functionIFvRK15InputParametersRSA_EEEESaISG_EED2Ev
FNDA:0,_ZNSt6vectorISt5tupleIJNSt7__cxx1112basic_stringIcSt11char_traitsIcESaIcEEEN5Moose23RelationshipManagerTypeESt8functionIFvRK15InputParametersRSA_EEEESaISG_EED2Ev
FN:678,_ZNSt6vectorIS_ISt4pairIbN11MetaPhysicL10DualNumberIdNS1_28SemiDynamicSparseNumberArrayIdmNS1_8NWrapperILm64EEEEELb1EEEESaIS8_EESaISA_EED2Ev
FNDA:0,_ZNSt6vectorIS_ISt4pairIbN11MetaPhysicL10DualNumberIdNS1_28SemiDynamicSparseNumberArrayIdmNS1_8NWrapperILm64EEEEELb1EEEESaIS8_EESaISA_EED2Ev
FN:678,_ZNSt6vectorIS_ISt4pairIbdESaIS1_EESaIS3_EED2Ev
FNDA:0,_ZNSt6vectorIS_ISt4pairIbdESaIS1_EESaIS3_EED2Ev
FN:678,_ZNSt6vectorISt10unique_ptrI10MooseArrayIdESt14default_deleteIS2_EESaIS5_EED2Ev
FNDA:0,_ZNSt6vectorISt10unique_ptrI10MooseArrayIdESt14default_deleteIS2_EESaIS5_EED2Ev
FN:678,_ZNSt6vectorISt10shared_ptrI17RegistryEntryBaseESaIS2_EED2Ev
FNDA:0,_ZNSt6vectorISt10shared_ptrI17RegistryEntryBaseESaIS2_EED2Ev
FN:678,_ZNSt6vectorI13SubdomainNameSaIS0_EED2Ev
FNDA:0,_ZNSt6vectorI13SubdomainNameSaIS0_EED2Ev
FN:678,_ZNSt6vectorIS_IaSaIaEESaIS1_EED2Ev
FNDA:0,_ZNSt6vectorIS_IaSaIaEESaIS1_EED2Ev
FN:678,_ZNSt6vectorIS_IS_ISt4pairIhhESaIS1_EESaIS3_EESaIS5_EED2Ev
FNDA:0,_ZNSt6vectorIS_IS_ISt4pairIhhESaIS1_EESaIS3_EESaIS5_EED2Ev
FN:678,_ZNSt6vectorIS_IS_IaSaIaEESaIS1_EESaIS3_EED2Ev
FNDA:0,_ZNSt6vectorIS_IS_IaSaIaEESaIS1_EESaIS3_EED2Ev
FN:678,_ZNSt6vectorINSt7__cxx1112basic_stringIcSt11char_traitsIcESaIcEEESaIS5_EED2Ev
FNDA:0,_ZNSt6vectorINSt7__cxx1112basic_stringIcSt11char_traitsIcESaIcEEESaIS5_EED2Ev
FN:678,_ZNSt6vectorIS_IS_IS_ISt4pairIhhESaIS1_EESaIS3_EESaIS5_EESaIS7_EED2Ev
FNDA:0,_ZNSt6vectorIS_IS_IS_ISt4pairIhhESaIS1_EESaIS3_EESaIS5_EESaIS7_EED2Ev
FN:937,_ZNSt6vectorIS_ISt4pairIbN11MetaPhysicL10DualNumberIdNS1_28SemiDynamicSparseNumberArrayIdmNS1_8NWrapperILm64EEEEELb1EEEESaIS8_EESaISA_EE6resizeEm
FNDA:0,_ZNSt6vectorIS_ISt4pairIbN11MetaPhysicL10DualNumberIdNS1_28SemiDynamicSparseNumberArrayIdmNS1_8NWrapperILm64EEEEELb1EEEESaIS8_EESaISA_EE6resizeEm
FN:937,_ZNSt6vectorIS_ISt4pairIbdESaIS1_EESaIS3_EE6resizeEm
FNDA:0,_ZNSt6vectorIS_ISt4pairIbdESaIS1_EESaIS3_EE6resizeEm
FN:937,_ZNSt6vectorISt10unique_ptrI13PropertyValueSt14default_deleteIS1_EESaIS4_EE6resizeEm
FNDA:0,_ZNSt6vectorISt10unique_ptrI13PropertyValueSt14default_deleteIS1_EESaIS4_EE6resizeEm
FN:957,_ZNSt6vectorISt4pairIbN11MetaPhysicL10DualNumberIdNS1_28SemiDynamicSparseNumberArrayIdmNS1_8NWrapperILm64EEEEELb1EEEESaIS8_EE6resizeEmRKS8_
FNDA:0,_ZNSt6vectorISt4pairIbN11MetaPhysicL10DualNumberIdNS1_28SemiDynamicSparseNumberArrayIdmNS1_8NWrapperILm64EEEEELb1EEEESaIS8_EE6resizeEmRKS8_
FN:957,_ZNSt6vectorISt4pairIbdESaIS1_EE6resizeEmRKS1_
FNDA:0,_ZNSt6vectorISt4pairIbdESaIS1_EE6resizeEmRKS1_
FN:1577,_ZNSt6vectorINSt7__cxx1112basic_stringIcSt11char_traitsIcESaIcEEESaIS5_EE19_M_range_initializeIPKS5_EEvT_SB_St20forward_iterator_tag
FNDA:0,_ZNSt6vectorINSt7__cxx1112basic_stringIcSt11char_traitsIcESaIcEEESaIS5_EE19_M_range_initializeIPKS5_EEvT_SB_St20forward_iterator_tag
FN:1756,_ZNKSt6vectorISt4pairIbN11MetaPhysicL10DualNumberIdNS1_28SemiDynamicSparseNumberArrayIdmNS1_8NWrapperILm64EEEEELb1EEEESaIS8_EE12_M_check_lenEmPKc
FNDA:0,_ZNKSt6vectorISt4pairIbN11MetaPhysicL10DualNumberIdNS1_28SemiDynamicSparseNumberArrayIdmNS1_8NWrapperILm64EEEEELb1EEEESaIS8_EE12_M_check_lenEmPKc
FN:1756,_ZNKSt6vectorIS_ISt4pairIbN11MetaPhysicL10DualNumberIdNS1_28SemiDynamicSparseNumberArrayIdmNS1_8NWrapperILm64EEEEELb1EEEESaIS8_EESaISA_EE12_M_check_lenEmPKc
FNDA:0,_ZNKSt6vectorIS_ISt4pairIbN11MetaPhysicL10DualNumberIdNS1_28SemiDynamicSparseNumberArrayIdmNS1_8NWrapperILm64EEEEELb1EEEESaIS8_EESaISA_EE12_M_check_lenEmPKc
FN:1756,_ZNKSt6vectorIS_ISt4pairIbdESaIS1_EESaIS3_EE12_M_check_lenEmPKc
FNDA:0,_ZNKSt6vectorIS_ISt4pairIbdESaIS1_EESaIS3_EE12_M_check_lenEmPKc
FN:1756,_ZNKSt6vectorISt4pairIbdESaIS1_EE12_M_check_lenEmPKc
FNDA:0,_ZNKSt6vectorISt4pairIbdESaIS1_EE12_M_check_lenEmPKc
FN:1756,_ZNKSt6vectorISt10shared_ptrI17RegistryEntryBaseESaIS2_EE12_M_check_lenEmPKc
FNDA:0,_ZNKSt6vectorISt10shared_ptrI17RegistryEntryBaseESaIS2_EE12_M_check_lenEmPKc
FN:1756,_ZNKSt6vectorISt10unique_ptrI13PropertyValueSt14default_deleteIS1_EESaIS4_EE12_M_check_lenEmPKc
FNDA:0,_ZNKSt6vectorISt10unique_ptrI13PropertyValueSt14default_deleteIS1_EESaIS4_EE12_M_check_lenEmPKc
FN:1792,_ZNSt6vectorIS_ISt4pairIbdESaIS1_EESaIS3_EE15_M_erase_at_endEPS3_
FNDA:0,_ZNSt6vectorIS_ISt4pairIbdESaIS1_EESaIS3_EE15_M_erase_at_endEPS3_
FN:1792,_ZNSt6vectorIS_ISt4pairIbN11MetaPhysicL10DualNumberIdNS1_28SemiDynamicSparseNumberArrayIdmNS1_8NWrapperILm64EEEEELb1EEEESaIS8_EESaISA_EE15_M_erase_at_endEPSA_
FNDA:0,_ZNSt6vectorIS_ISt4pairIbN11MetaPhysicL10DualNumberIdNS1_28SemiDynamicSparseNumberArrayIdmNS1_8NWrapperILm64EEEEELb1EEEESaIS8_EESaISA_EE15_M_erase_at_endEPSA_
FN:1792,_ZNSt6vectorISt10unique_ptrI13PropertyValueSt14default_deleteIS1_EESaIS4_EE15_M_erase_at_endEPS4_
FNDA:0,_ZNSt6vectorISt10unique_ptrI13PropertyValueSt14default_deleteIS1_EESaIS4_EE15_M_erase_at_endEPS4_
FNF:66
FNH:7
DA:97,0
DA:98,0
DA:102,0
DA:103,0
DA:104,0
DA:105,0
DA:277,0
DA:333,0
DA:336,0
DA:337,0
DA:333,0
DA:336,0
DA:337,0
DA:333,24
DA:336,24
DA:337,24
DA:333,0
DA:336,0
DA:337,0
DA:333,0
DA:336,0
DA:337,0
DA:333,0
DA:336,0
DA:337,0
DA:333,2223
DA:336,2223
DA:337,2223
DA:333,1884
DA:336,1884
DA:337,1884
DA:333,0
DA:336,0
DA:337,0
DA:333,0
DA:336,0
DA:337,0
DA:333,0
DA:336,0
DA:337,0
DA:333,0
DA:336,0
DA:337,0
DA:333,0
DA:336,0
DA:337,0
DA:333,0
DA:336,0
DA:337,0
DA:333,0
DA:336,0
DA:337,0
DA:333,0
DA:336,0
DA:337,0
DA:333,0
DA:336,0
DA:337,0
DA:333,0
DA:336,0
DA:337,0
DA:333,0
DA:336,0
DA:337,0
DA:333,24
DA:336,24
DA:337,24
DA:333,24
DA:336,24
DA:337,24
DA:333,0
DA:336,0
DA:337,0
DA:333,0
DA:336,0
DA:337,0
DA:333,0
DA:336,0
DA:337,0
DA:333,0
DA:336,0
DA:337,0
DA:333,0
DA:336,0
DA:337,0
DA:333,0
DA:335,0
DA:336,0
DA:337,0
DA:333,0
DA:336,0
DA:337,0
DA:333,0
DA:336,0
DA:337,0
DA:333,0
DA:336,0
DA:337,0
DA:333,0
DA:336,0
DA:337,0
DA:333,0
DA:336,0
DA:337,0
DA:346,0
DA:353,4179
DA:465,0
DA:469,0
DA:625,0
DA:627,0
DA:629,0
DA:631,0
DA:678,24
DA:680,24
DA:683,24
DA:678,0
DA:680,0
DA:683,0
DA:678,0
DA:680,0
DA:683,0
DA:678,0
DA:680,0
DA:683,0
DA:678,0
DA:680,0
DA:683,0
DA:678,0
DA:680,0
DA:683,0
DA:678,0
DA:680,0
DA:683,0
DA:678,0
DA:680,0
DA:683,0
DA:678,24
DA:680,24
DA:683,24
DA:678,0
DA:680,0
DA:683,0
DA:678,0
DA:680,0
DA:683,0
DA:678,0
DA:680,0
DA:683,0
DA:678,0
DA:680,0
DA:683,0
DA:678,0
DA:680,0
DA:683,0
DA:678,0
DA:680,0
DA:683,0
DA:678,0
DA:680,0
DA:683,0
DA:678,0
DA:680,0
DA:683,0
DA:683,2175
DA:919,0
DA:937,0
DA:939,0
DA:940,0
DA:941,0
DA:942,0
DA:943,0
DA:937,0
DA:939,0
DA:940,0
DA:941,0
DA:942,0
DA:943,0
DA:937,0
DA:939,0
DA:940,0
DA:941,0
DA:942,0
DA:943,0
DA:957,0
DA:959,0
DA:960,0
DA:961,0
DA:962,0
DA:963,0
DA:957,0
DA:959,0
DA:960,0
DA:961,0
DA:962,0
DA:963,0
DA:1046,0
DA:1064,0
DA:1204,119
DA:1577,0
DA:1580,0
DA:1582,0
DA:1583,0
DA:1584,0
DA:1588,0
DA:1709,0
DA:1716,0
DA:1756,0
DA:1758,0
DA:1759,0
DA:1761,0
DA:1762,0
DA:1756,0
DA:1758,0
DA:1759,0
DA:1761,0
DA:1762,0
DA:1756,0
DA:1758,0
DA:1759,0
DA:1761,0
DA:1762,0
DA:1756,0
DA:1758,0
DA:1759,0
DA:1761,0
DA:1762,0
DA:1756,0
DA:1758,0
DA:1759,0
DA:1761,0
DA:1762,0
DA:1756,0
DA:1758,0
DA:1759,0
DA:1761,0
DA:1762,0
DA:1769,0
DA:1770,0
DA:1792,0
DA:1794,0
DA:1798,0
DA:1801,0
DA:1792,0
DA:1794,0
DA:1798,0
DA:1801,0
DA:1792,0
DA:1794,0
DA:1798,0
DA:1801,0
DA:1794,0
DA:1798,0
LF:252
LH:24
end_of_record
SF:/usr/share/miniconda3/envs/moose/x86_64-conda-linux-gnu/include/c++/10.4.0/bits/vector.tcc
FN:109,_ZNSt6vectorISt10unique_ptrI13PropertyValueSt14default_deleteIS1_EESaIS4_EE12emplace_backIJS0_I18ADMaterialPropertyIdES2_IS9_EEEEERS4_DpOT_
FNDA:0,_ZNSt6vectorISt10unique_ptrI13PropertyValueSt14default_deleteIS1_EESaIS4_EE12emplace_backIJS0_I18ADMaterialPropertyIdES2_IS9_EEEEERS4_DpOT_
FN:109,_ZNSt6vectorISt10shared_ptrI17RegistryEntryBaseESaIS2_EE12emplace_backIJS2_EEERS2_DpOT_
FNDA:119,_ZNSt6vectorISt10shared_ptrI17RegistryEntryBaseESaIS2_EE12emplace_backIJS2_EEERS2_DpOT_
FN:426,_ZNSt6vectorISt10unique_ptrI13PropertyValueSt14default_deleteIS1_EESaIS4_EE17_M_realloc_insertIJS0_I18ADMaterialPropertyIdES2_IS9_EEEEEvN9__gnu_cxx17__normal_iteratorIPS4_S6_EEDpOT_
FNDA:0,_ZNSt6vectorISt10unique_ptrI13PropertyValueSt14default_deleteIS1_EESaIS4_EE17_M_realloc_insertIJS0_I18ADMaterialPropertyIdES2_IS9_EEEEEvN9__gnu_cxx17__normal_iteratorIPS4_S6_EEDpOT_
FN:426,_ZNSt6vectorISt10shared_ptrI17RegistryEntryBaseESaIS2_EE17_M_realloc_insertIJS2_EEEvN9__gnu_cxx17__normal_iteratorIPS2_S4_EEDpOT_
FNDA:0,_ZNSt6vectorISt10shared_ptrI17RegistryEntryBaseESaIS2_EE17_M_realloc_insertIJS2_EEEvN9__gnu_cxx17__normal_iteratorIPS2_S4_EEDpOT_
FN:509,_ZNSt6vectorISt4pairIbdESaIS1_EE14_M_fill_insertEN9__gnu_cxx17__normal_iteratorIPS1_S3_EEmRKS1_
FNDA:0,_ZNSt6vectorISt4pairIbdESaIS1_EE14_M_fill_insertEN9__gnu_cxx17__normal_iteratorIPS1_S3_EEmRKS1_
FN:509,_ZNSt6vectorISt4pairIbN11MetaPhysicL10DualNumberIdNS1_28SemiDynamicSparseNumberArrayIdmNS1_8NWrapperILm64EEEEELb1EEEESaIS8_EE14_M_fill_insertEN9__gnu_cxx17__normal_iteratorIPS8_SA_EEmRKS8_
FNDA:0,_ZNSt6vectorISt4pairIbN11MetaPhysicL10DualNumberIdNS1_28SemiDynamicSparseNumberArrayIdmNS1_8NWrapperILm64EEEEELb1EEEESaIS8_EE14_M_fill_insertEN9__gnu_cxx17__normal_iteratorIPS8_SA_EEmRKS8_
FN:611,_ZNSt6vectorIS_ISt4pairIbdESaIS1_EESaIS3_EE17_M_default_appendEm
FNDA:0,_ZNSt6vectorIS_ISt4pairIbdESaIS1_EESaIS3_EE17_M_default_appendEm
FN:611,_ZNSt6vectorIS_ISt4pairIbN11MetaPhysicL10DualNumberIdNS1_28SemiDynamicSparseNumberArrayIdmNS1_8NWrapperILm64EEEEELb1EEEESaIS8_EESaISA_EE17_M_default_appendEm
FNDA:0,_ZNSt6vectorIS_ISt4pairIbN11MetaPhysicL10DualNumberIdNS1_28SemiDynamicSparseNumberArrayIdmNS1_8NWrapperILm64EEEEELb1EEEESaIS8_EESaISA_EE17_M_default_appendEm
FN:611,_ZNSt6vectorISt10unique_ptrI13PropertyValueSt14default_deleteIS1_EESaIS4_EE17_M_default_appendEm
FNDA:0,_ZNSt6vectorISt10unique_ptrI13PropertyValueSt14default_deleteIS1_EESaIS4_EE17_M_default_appendEm
FNF:9
FNH:1
DA:109,0
DA:112,0
DA:117,0
DA:121,0
DA:123,0
DA:109,119
DA:112,119
DA:117,102
DA:121,17
DA:123,119
DA:426,0
DA:436,0
DA:437,0
DA:438,0
DA:449,0
DA:450,0
DA:464,0
DA:501,0
DA:502,0
DA:503,0
DA:504,0
DA:505,0
DA:426,0
DA:436,0
DA:437,0
DA:438,0
DA:449,0
DA:450,0
DA:464,0
DA:501,0
DA:502,0
DA:503,0
DA:504,0
DA:505,0
DA:509,0
DA:512,0
DA:514,0
DA:515,0
DA:523,0
DA:525,0
DA:528,0
DA:532,0
DA:534,0
DA:536,0
DA:543,0
DA:551,0
DA:559,0
DA:566,0
DA:573,0
DA:576,0
DA:580,0
DA:599,0
DA:600,0
DA:601,0
DA:602,0
DA:603,0
DA:606,0
DA:509,0
DA:512,0
DA:514,0
DA:515,0
DA:523,0
DA:525,0
DA:528,0
DA:532,0
DA:536,0
DA:542,0
DA:543,0
DA:551,0
DA:559,0
DA:566,0
DA:573,0
DA:576,0
DA:580,0
DA:595,0
DA:599,0
DA:600,0
DA:601,0
DA:602,0
DA:603,0
DA:606,0
DA:611,0
DA:614,0
DA:617,0
DA:618,0
DA:620,0
DA:621,0
DA:623,0
DA:626,0
DA:634,0
DA:640,0
DA:648,0
DA:676,0
DA:677,0
DA:678,0
DA:679,0
DA:680,0
DA:683,0
DA:611,0
DA:614,0
DA:617,0
DA:618,0
DA:620,0
DA:621,0
DA:623,0
DA:626,0
DA:634,0
DA:640,0
DA:648,0
DA:676,0
DA:677,0
DA:678,0
DA:679,0
DA:680,0
DA:683,0
DA:611,0
DA:614,0
DA:617,0
DA:618,0
DA:620,0
DA:621,0
DA:623,0
DA:626,0
DA:634,0
DA:640,0
DA:648,0
DA:676,0
DA:677,0
DA:678,0
DA:679,0
DA:680,0
DA:683,0
LF:132
LH:5
end_of_record
SF:/home/runner/work/beaver/beaver/build/header_symlinks/BVEqvStrainAux.h
LF:0
LH:0
end_of_record
SF:/usr/share/miniconda3/envs/moose/x86_64-conda-linux-gnu/include/c++/10.4.0/bits/unique_ptr.h
FN:79,_ZNKSt14default_deleteI10MooseArrayIN11MetaPhysicL10DualNumberIdNS1_28SemiDynamicSparseNumberArrayIdmNS1_8NWrapperILm64EEEEELb1EEEEEclEPS8_
FNDA:0,_ZNKSt14default_deleteI10MooseArrayIN11MetaPhysicL10DualNumberIdNS1_28SemiDynamicSparseNumberArrayIdmNS1_8NWrapperILm64EEEEELb1EEEEEclEPS8_
FN:79,_ZNKSt14default_deleteI10MooseArrayIN7libMesh11VectorValueIdEEEEclEPS4_
FNDA:0,_ZNKSt14default_deleteI10MooseArrayIN7libMesh11VectorValueIdEEEEclEPS4_
FN:79,_ZNKSt14default_deleteI10MooseArrayIN5Eigen6MatrixIdLin1ELi1ELi0ELin1ELi1EEEEEclEPS4_
FNDA:0,_ZNKSt14default_deleteI10MooseArrayIN5Eigen6MatrixIdLin1ELi1ELi0ELin1ELi1EEEEEclEPS4_
FN:79,_ZNKSt14default_deleteI10MooseArrayIN7libMesh11VectorValueIN11MetaPhysicL10DualNumberIdNS3_28SemiDynamicSparseNumberArrayIdmNS3_8NWrapperILm64EEEEELb1EEEEEEEclEPSB_
FNDA:0,_ZNKSt14default_deleteI10MooseArrayIN7libMesh11VectorValueIN11MetaPhysicL10DualNumberIdNS3_28SemiDynamicSparseNumberArrayIdmNS3_8NWrapperILm64EEEEELb1EEEEEEEclEPSB_
FN:79,_ZNKSt14default_deleteI10MooseArrayIdEEclEPS1_
FNDA:0,_ZNKSt14default_deleteI10MooseArrayIdEEclEPS1_
FN:116,_ZNKSt14default_deleteIA_18RankTwoTensorTemplIdEEclIS1_EENSt9enable_ifIXsrSt14is_convertibleIPA_T_PS2_E5valueEvE4typeEPS7_
FNDA:0,_ZNKSt14default_deleteIA_18RankTwoTensorTemplIdEEclIS1_EENSt9enable_ifIXsrSt14is_convertibleIPA_T_PS2_E5valueEvE4typeEPS7_
FN:116,_ZNKSt14default_deleteIA_N5Eigen6MatrixIdLin1ELi3ELi0ELin1ELi3EEEEclIS2_EENSt9enable_ifIXsrSt14is_convertibleIPA_T_PS3_E5valueEvE4typeEPS8_
FNDA:0,_ZNKSt14default_deleteIA_N5Eigen6MatrixIdLin1ELi3ELi0ELin1ELi3EEEEclIS2_EENSt9enable_ifIXsrSt14is_convertibleIPA_T_PS3_E5valueEvE4typeEPS8_
FN:116,_ZNKSt14default_deleteIA_N11MetaPhysicL10DualNumberIdNS0_28SemiDynamicSparseNumberArrayIdmNS0_8NWrapperILm64EEEEELb1EEEEclIS6_EENSt9enable_ifIXsrSt14is_convertibleIPA_T_PS7_E5valueEvE4typeEPSC_
FNDA:0,_ZNKSt14default_deleteIA_N11MetaPhysicL10DualNumberIdNS0_28SemiDynamicSparseNumberArrayIdmNS0_8NWrapperILm64EEEEELb1EEEEclIS6_EENSt9enable_ifIXsrSt14is_convertibleIPA_T_PS7_E5valueEvE4typeEPSC_
FN:116,_ZNKSt14default_deleteIA_N5Eigen6MatrixIdLin1ELi1ELi0ELin1ELi1EEEEclIS2_EENSt9enable_ifIXsrSt14is_convertibleIPA_T_PS3_E5valueEvE4typeEPS8_
FNDA:0,_ZNKSt14default_deleteIA_N5Eigen6MatrixIdLin1ELi1ELi0ELin1ELi1EEEEclIS2_EENSt9enable_ifIXsrSt14is_convertibleIPA_T_PS3_E5valueEvE4typeEPS8_
FN:116,_ZNKSt14default_deleteIA_N7libMesh11TensorValueIdEEEclIS2_EENSt9enable_ifIXsrSt14is_convertibleIPA_T_PS3_E5valueEvE4typeEPS8_
FNDA:0,_ZNKSt14default_deleteIA_N7libMesh11TensorValueIdEEEclIS2_EENSt9enable_ifIXsrSt14is_convertibleIPA_T_PS3_E5valueEvE4typeEPS8_
FN:116,_ZNKSt14default_deleteIA_N7libMesh11TensorValueIN11MetaPhysicL10DualNumberIdNS2_28SemiDynamicSparseNumberArrayIdmNS2_8NWrapperILm64EEEEELb1EEEEEEclIS9_EENSt9enable_ifIXsrSt14is_convertibleIPA_T_PSA_E5valueEvE4typeEPSF_
FNDA:0,_ZNKSt14default_deleteIA_N7libMesh11TensorValueIN11MetaPhysicL10DualNumberIdNS2_28SemiDynamicSparseNumberArrayIdmNS2_8NWrapperILm64EEEEELb1EEEEEEclIS9_EENSt9enable_ifIXsrSt14is_convertibleIPA_T_PSA_E5valueEvE4typeEPSF_
FN:116,_ZNKSt14default_deleteIA_18RankTwoTensorTemplIN11MetaPhysicL10DualNumberIdNS1_28SemiDynamicSparseNumberArrayIdmNS1_8NWrapperILm64EEEEELb1EEEEEclIS8_EENSt9enable_ifIXsrSt14is_convertibleIPA_T_PS9_E5valueEvE4typeEPSE_
FNDA:0,_ZNKSt14default_deleteIA_18RankTwoTensorTemplIN11MetaPhysicL10DualNumberIdNS1_28SemiDynamicSparseNumberArrayIdmNS1_8NWrapperILm64EEEEELb1EEEEEclIS8_EENSt9enable_ifIXsrSt14is_convertibleIPA_T_PS9_E5valueEvE4typeEPSE_
FN:116,_ZNKSt14default_deleteIA_N7libMesh11VectorValueIN11MetaPhysicL10DualNumberIdNS2_28SemiDynamicSparseNumberArrayIdmNS2_8NWrapperILm64EEEEELb1EEEEEEclIS9_EENSt9enable_ifIXsrSt14is_convertibleIPA_T_PSA_E5valueEvE4typeEPSF_
FNDA:0,_ZNKSt14default_deleteIA_N7libMesh11VectorValueIN11MetaPhysicL10DualNumberIdNS2_28SemiDynamicSparseNumberArrayIdmNS2_8NWrapperILm64EEEEELb1EEEEEEclIS9_EENSt9enable_ifIXsrSt14is_convertibleIPA_T_PSA_E5valueEvE4typeEPSF_
FN:165,_ZNSt15__uniq_ptr_implI13PropertyValueSt14default_deleteIS0_EEaSEOS3_
FNDA:0,_ZNSt15__uniq_ptr_implI13PropertyValueSt14default_deleteIS0_EEaSEOS3_
FN:165,_ZNSt15__uniq_ptr_implIN7libMesh10Parameters5ValueESt14default_deleteIS2_EEaSEOS5_
FNDA:0,_ZNSt15__uniq_ptr_implIN7libMesh10Parameters5ValueESt14default_deleteIS2_EEaSEOS5_
FN:355,_ZNSt10unique_ptrINSt13__future_base12_Result_baseENS1_8_DeleterEED2Ev
FNDA:0,_ZNSt10unique_ptrINSt13__future_base12_Result_baseENS1_8_DeleterEED2Ev
FN:355,_ZNSt10unique_ptrIN7libMesh10Parameters5ValueESt14default_deleteIS2_EED2Ev
FNDA:0,_ZNSt10unique_ptrIN7libMesh10Parameters5ValueESt14default_deleteIS2_EED2Ev
FN:355,_ZNSt10unique_ptrIN7libMesh10Parameters9ParameterIP13FEProblemBaseEESt14default_deleteIS5_EED2Ev
FNDA:21065,_ZNSt10unique_ptrIN7libMesh10Parameters9ParameterIP13FEProblemBaseEESt14default_deleteIS5_EED2Ev
FN:355,_ZNSt10unique_ptrI18ADMaterialPropertyIdESt14default_deleteIS1_EED2Ev
FNDA:0,_ZNSt10unique_ptrI18ADMaterialPropertyIdESt14default_deleteIS1_EED2Ev
FN:355,_ZNSt10unique_ptrI13PropertyValueSt14default_deleteIS0_EED2Ev
FNDA:0,_ZNSt10unique_ptrI13PropertyValueSt14default_deleteIS0_EED2Ev
FN:355,_ZNSt10unique_ptrI33OptionalMaterialPropertyProxyBaseI25MaterialPropertyInterfaceESt14default_deleteIS2_EED2Ev
FNDA:0,_ZNSt10unique_ptrI33OptionalMaterialPropertyProxyBaseI25MaterialPropertyInterfaceESt14default_deleteIS2_EED2Ev
FN:355,_ZNSt10unique_ptrI10MooseArrayIN11MetaPhysicL10DualNumberIdNS1_28SemiDynamicSparseNumberArrayIdmNS1_8NWrapperILm64EEEEELb1EEEESt14default_deleteIS8_EED2Ev
FNDA:0,_ZNSt10unique_ptrI10MooseArrayIN11MetaPhysicL10DualNumberIdNS1_28SemiDynamicSparseNumberArrayIdmNS1_8NWrapperILm64EEEEELb1EEEESt14default_deleteIS8_EED2Ev
FN:355,_ZNSt10unique_ptrI10MooseArrayIN7libMesh11VectorValueIdEEESt14default_deleteIS4_EED2Ev
FNDA:0,_ZNSt10unique_ptrI10MooseArrayIN7libMesh11VectorValueIdEEESt14default_deleteIS4_EED2Ev
FN:355,_ZNSt10unique_ptrI10MooseArrayIN7libMesh11VectorValueIN11MetaPhysicL10DualNumberIdNS3_28SemiDynamicSparseNumberArrayIdmNS3_8NWrapperILm64EEEEELb1EEEEEESt14default_deleteISB_EED2Ev
FNDA:0,_ZNSt10unique_ptrI10MooseArrayIN7libMesh11VectorValueIN11MetaPhysicL10DualNumberIdNS3_28SemiDynamicSparseNumberArrayIdmNS3_8NWrapperILm64EEEEELb1EEEEEESt14default_deleteISB_EED2Ev
FN:355,_ZNSt10unique_ptrI10MooseArrayIdESt14default_deleteIS1_EED2Ev
FNDA:0,_ZNSt10unique_ptrI10MooseArrayIdESt14default_deleteIS1_EED2Ev
FN:355,_ZNSt10unique_ptrIdSt14default_deleteIdEED2Ev
FNDA:0,_ZNSt10unique_ptrIdSt14default_deleteIdEED2Ev
FN:355,_ZNSt10unique_ptrI16MaterialPropertyIdESt14default_deleteIS1_EED2Ev
FNDA:0,_ZNSt10unique_ptrI16MaterialPropertyIdESt14default_deleteIS1_EED2Ev
FN:355,_ZNSt10unique_ptrI18ADMaterialPropertyI18RankTwoTensorTemplIdEESt14default_deleteIS3_EED2Ev
FNDA:0,_ZNSt10unique_ptrI18ADMaterialPropertyI18RankTwoTensorTemplIdEESt14default_deleteIS3_EED2Ev
FN:355,_ZNSt10unique_ptrIN5Moose11FunctorBaseIdEESt14default_deleteIS2_EED2Ev
FNDA:0,_ZNSt10unique_ptrIN5Moose11FunctorBaseIdEESt14default_deleteIS2_EED2Ev
FN:355,_ZNSt10unique_ptrIN5Moose11FunctorBaseIN11MetaPhysicL10DualNumberIdNS2_28SemiDynamicSparseNumberArrayIdmNS2_8NWrapperILm64EEEEELb1EEEEESt14default_deleteIS9_EED2Ev
FNDA:0,_ZNSt10unique_ptrIN5Moose11FunctorBaseIN11MetaPhysicL10DualNumberIdNS2_28SemiDynamicSparseNumberArrayIdmNS2_8NWrapperILm64EEEEELb1EEEEESt14default_deleteIS9_EED2Ev
FN:355,_ZNSt10unique_ptrI10MooseArrayIN5Eigen6MatrixIdLin1ELi1ELi0ELin1ELi1EEEESt14default_deleteIS4_EED2Ev
FNDA:0,_ZNSt10unique_ptrI10MooseArrayIN5Eigen6MatrixIdLin1ELi1ELi0ELin1ELi1EEEESt14default_deleteIS4_EED2Ev
FN:355,_ZNSt10unique_ptrI16MaterialPropertyI18RankTwoTensorTemplIdEESt14default_deleteIS3_EED2Ev
FNDA:0,_ZNSt10unique_ptrI16MaterialPropertyI18RankTwoTensorTemplIdEESt14default_deleteIS3_EED2Ev
FN:608,_ZNSt10unique_ptrIA_18RankTwoTensorTemplIN11MetaPhysicL10DualNumberIdNS1_28SemiDynamicSparseNumberArrayIdmNS1_8NWrapperILm64EEEEELb1EEEESt14default_deleteIS9_EED2Ev
FNDA:0,_ZNSt10unique_ptrIA_18RankTwoTensorTemplIN11MetaPhysicL10DualNumberIdNS1_28SemiDynamicSparseNumberArrayIdmNS1_8NWrapperILm64EEEEELb1EEEESt14default_deleteIS9_EED2Ev
FN:608,_ZNSt10unique_ptrIA_18RankTwoTensorTemplIdESt14default_deleteIS2_EED2Ev
FNDA:0,_ZNSt10unique_ptrIA_18RankTwoTensorTemplIdESt14default_deleteIS2_EED2Ev
FN:608,_ZNSt10unique_ptrIA_N7libMesh11VectorValueIN11MetaPhysicL10DualNumberIdNS2_28SemiDynamicSparseNumberArrayIdmNS2_8NWrapperILm64EEEEELb1EEEEESt14default_deleteISA_EED2Ev
FNDA:0,_ZNSt10unique_ptrIA_N7libMesh11VectorValueIN11MetaPhysicL10DualNumberIdNS2_28SemiDynamicSparseNumberArrayIdmNS2_8NWrapperILm64EEEEELb1EEEEESt14default_deleteISA_EED2Ev
FN:608,_ZNSt10unique_ptrIA_N7libMesh11TensorValueIN11MetaPhysicL10DualNumberIdNS2_28SemiDynamicSparseNumberArrayIdmNS2_8NWrapperILm64EEEEELb1EEEEESt14default_deleteISA_EED2Ev
FNDA:0,_ZNSt10unique_ptrIA_N7libMesh11TensorValueIN11MetaPhysicL10DualNumberIdNS2_28SemiDynamicSparseNumberArrayIdmNS2_8NWrapperILm64EEEEELb1EEEEESt14default_deleteISA_EED2Ev
FN:608,_ZNSt10unique_ptrIA_N7libMesh11TensorValueIdEESt14default_deleteIS3_EED2Ev
FNDA:0,_ZNSt10unique_ptrIA_N7libMesh11TensorValueIdEESt14default_deleteIS3_EED2Ev
FN:608,_ZNSt10unique_ptrIA_N5Eigen6MatrixIdLin1ELi1ELi0ELin1ELi1EEESt14default_deleteIS3_EED2Ev
FNDA:0,_ZNSt10unique_ptrIA_N5Eigen6MatrixIdLin1ELi1ELi0ELin1ELi1EEESt14default_deleteIS3_EED2Ev
FN:608,_ZNSt10unique_ptrIA_N5Eigen6MatrixIdLin1ELi3ELi0ELin1ELi3EEESt14default_deleteIS3_EED2Ev
FNDA:0,_ZNSt10unique_ptrIA_N5Eigen6MatrixIdLin1ELi3ELi0ELin1ELi3EEESt14default_deleteIS3_EED2Ev
FN:608,_ZNSt10unique_ptrIA_N11MetaPhysicL10DualNumberIdNS0_28SemiDynamicSparseNumberArrayIdmNS0_8NWrapperILm64EEEEELb1EEESt14default_deleteIS7_EED2Ev
FNDA:0,_ZNSt10unique_ptrIA_N11MetaPhysicL10DualNumberIdNS0_28SemiDynamicSparseNumberArrayIdmNS0_8NWrapperILm64EEEEELb1EEESt14default_deleteIS7_EED2Ev
FN:961,_ZSt11make_uniqueI16MaterialPropertyI18RankTwoTensorTemplIdEEJjEENSt9_MakeUniqIT_E15__single_objectEDpOT0_
FNDA:0,_ZSt11make_uniqueI16MaterialPropertyI18RankTwoTensorTemplIdEEJjEENSt9_MakeUniqIT_E15__single_objectEDpOT0_
FN:961,_ZSt11make_uniqueIN7libMesh10Parameters9ParameterIP13FEProblemBaseEEJEENSt9_MakeUniqIT_E15__single_objectEDpOT0_
FNDA:21065,_ZSt11make_uniqueIN7libMesh10Parameters9ParameterIP13FEProblemBaseEEJEENSt9_MakeUniqIT_E15__single_objectEDpOT0_
FN:961,_ZSt11make_uniqueI18ADMaterialPropertyI18RankTwoTensorTemplIdEEJRKjEENSt9_MakeUniqIT_E15__single_objectEDpOT0_
FNDA:0,_ZSt11make_uniqueI18ADMaterialPropertyI18RankTwoTensorTemplIdEEJRKjEENSt9_MakeUniqIT_E15__single_objectEDpOT0_
FN:961,_ZSt11make_uniqueI16MaterialPropertyIdEJjEENSt9_MakeUniqIT_E15__single_objectEDpOT0_
FNDA:0,_ZSt11make_uniqueI16MaterialPropertyIdEJjEENSt9_MakeUniqIT_E15__single_objectEDpOT0_
FN:961,_ZSt11make_uniqueI18ADMaterialPropertyIdEJRKjEENSt9_MakeUniqIT_E15__single_objectEDpOT0_
FNDA:0,_ZSt11make_uniqueI18ADMaterialPropertyIdEJRKjEENSt9_MakeUniqIT_E15__single_objectEDpOT0_
FNF:45
FNH:2
DA:79,0
DA:85,0
DA:86,0
DA:79,0
DA:85,0
DA:86,0
DA:79,0
DA:85,0
DA:86,0
DA:79,0
DA:85,0
DA:86,0
DA:79,0
DA:85,0
DA:86,0
DA:85,0
DA:86,0
DA:116,0
DA:120,0
DA:121,0
DA:116,0
DA:120,0
DA:121,0
DA:116,0
DA:120,0
DA:121,0
DA:116,0
DA:120,0
DA:121,0
DA:116,0
DA:120,0
DA:121,0
DA:116,0
DA:120,0
DA:121,0
DA:116,0
DA:120,0
DA:121,0
DA:116,0
DA:120,0
DA:121,0
DA:120,0
DA:121,0
DA:155,21065
DA:163,0
DA:165,0
DA:169,0
DA:165,0
DA:169,0
DA:173,0
DA:174,0
DA:179,0
DA:180,0
DA:181,0
DA:182,0
DA:187,0
DA:188,21065
DA:212,0
DA:355,0
DA:360,0
DA:361,0
DA:363,0
DA:355,0
DA:360,0
DA:363,0
DA:355,0
DA:360,0
DA:363,0
DA:355,21065
DA:360,21065
DA:363,21065
DA:355,0
DA:360,0
DA:363,0
DA:355,0
DA:360,0
DA:363,0
DA:355,0
DA:360,0
DA:363,0
DA:355,0
DA:360,0
DA:361,0
DA:363,0
DA:355,0
DA:360,0
DA:361,0
DA:363,0
DA:355,0
DA:360,0
DA:363,0
DA:355,0
DA:360,0
DA:361,0
DA:363,0
DA:355,0
DA:360,0
DA:361,0
DA:363,0
DA:355,0
DA:360,0
DA:363,0
DA:355,0
DA:360,0
DA:363,0
DA:355,0
DA:360,0
DA:363,0
DA:355,0
DA:360,0
DA:363,0
DA:355,0
DA:360,0
DA:363,0
DA:360,0
DA:363,0
DA:608,0
DA:611,0
DA:612,0
DA:614,0
DA:608,0
DA:611,0
DA:612,0
DA:614,0
DA:608,0
DA:611,0
DA:612,0
DA:614,0
DA:608,0
DA:611,0
DA:612,0
DA:614,0
DA:608,0
DA:611,0
DA:612,0
DA:614,0
DA:608,0
DA:611,0
DA:612,0
DA:614,0
DA:608,0
DA:611,0
DA:612,0
DA:614,0
DA:608,0
DA:611,0
DA:612,0
DA:614,0
DA:611,0
DA:961,0
DA:962,0
DA:961,0
DA:962,0
DA:961,0
DA:962,0
DA:961,0
DA:962,0
DA:961,21065
DA:962,21065
LF:159
LH:7
end_of_record
SF:/usr/share/miniconda3/envs/moose/x86_64-conda-linux-gnu/include/c++/10.4.0/typeinfo
FN:120,_ZNKSt9type_infoeqERKS_
FNDA:0,_ZNKSt9type_infoeqERKS_
FNF:1
FNH:0
DA:100,0
DA:120,0
DA:122,0
DA:123,0
DA:124,0
LF:5
LH:0
end_of_record
SF:/home/runner/work/beaver/beaver/moose/framework/build/header_symlinks/MooseUtils.h
FN:132,_ZN10MooseUtils4joinISt6vectorINSt7__cxx1112basic_stringIcSt11char_traitsIcESaIcEEESaIS7_EEEES7_RKT_RKS7_
FNDA:0,_ZN10MooseUtils4joinISt6vectorINSt7__cxx1112basic_stringIcSt11char_traitsIcESaIcEEESaIS7_EEEES7_RKT_RKS7_
FN:304,_ZN10MooseUtils13prettyCppTypeI18RankTwoTensorTemplIdEEENSt7__cxx1112basic_stringIcSt11char_traitsIcESaIcEEEPKT_
FNDA:0,_ZN10MooseUtils13prettyCppTypeI18RankTwoTensorTemplIdEEENSt7__cxx1112basic_stringIcSt11char_traitsIcESaIcEEEPKT_
FN:304,_ZN10MooseUtils13prettyCppTypeIdEENSt7__cxx1112basic_stringIcSt11char_traitsIcESaIcEEEPKT_
FNDA:0,_ZN10MooseUtils13prettyCppTypeIdEENSt7__cxx1112basic_stringIcSt11char_traitsIcESaIcEEEPKT_
FNF:3
FNH:0
DA:132,0
DA:134,0
DA:135,0
DA:137,0
DA:304,0
DA:306,0
DA:304,0
DA:306,0
LF:8
LH:0
end_of_record
SF:/home/runner/work/beaver/beaver/src/auxkernels/BVMisesStressAux.C
FN:20,_ZN16BVMisesStressAux11validParamsEv
FNDA:122,_ZN16BVMisesStressAux11validParamsEv
FN:27,_ZN16BVMisesStressAuxC2ERK15InputParameters
FNDA:3,_ZN16BVMisesStressAuxC2ERK15InputParameters
FN:32,_ZN16BVMisesStressAux12computeValueEv
FNDA:23552,_ZN16BVMisesStressAux12computeValueEv
FNF:3
FNH:3
DA:20,122
DA:22,122
DA:23,122
DA:24,122
DA:27,3
DA:29,3
DA:32,23552
DA:34,23552
DA:35,23552
LF:9
LH:9
end_of_record
SF:/usr/share/miniconda3/envs/moose/x86_64-conda-linux-gnu/include/c++/10.4.0/bits/char_traits.h
DA:357,0
DA:399,4941
LF:2
LH:1
end_of_record
SF:/home/runner/work/beaver/beaver/moose/framework/build/header_symlinks/Registry.h
FN:121,_ZNK17RegistryEntryBase4nameB5cxx11Ev
FNDA:0,_ZNK17RegistryEntryBase4nameB5cxx11Ev
FN:162,_ZN8Registry3addI18BVDarcyVelocityAuxEEcRK17RegistryEntryData
FNDA:17,_ZN8Registry3addI18BVDarcyVelocityAuxEEcRK17RegistryEntryData
FN:162,_ZN8Registry3addI14BVEqvStrainAuxEEcRK17RegistryEntryData
FNDA:17,_ZN8Registry3addI14BVEqvStrainAuxEEcRK17RegistryEntryData
FN:162,_ZN8Registry3addI18BVEqvStrainRateAuxEEcRK17RegistryEntryData
FNDA:17,_ZN8Registry3addI18BVEqvStrainRateAuxEEcRK17RegistryEntryData
FN:162,_ZN8Registry3addI16BVMisesStressAuxEEcRK17RegistryEntryData
FNDA:17,_ZN8Registry3addI16BVMisesStressAuxEEcRK17RegistryEntryData
FN:162,_ZN8Registry3addI13BVPressureAuxEEcRK17RegistryEntryData
FNDA:17,_ZN8Registry3addI13BVPressureAuxEEcRK17RegistryEntryData
FN:162,_ZN8Registry3addI20BVStrainComponentAuxEEcRK17RegistryEntryData
FNDA:17,_ZN8Registry3addI20BVStrainComponentAuxEEcRK17RegistryEntryData
FN:162,_ZN8Registry3addI20BVStressComponentAuxEEcRK17RegistryEntryData
FNDA:17,_ZN8Registry3addI20BVStressComponentAuxEEcRK17RegistryEntryData
FN:264,_ZN13RegistryEntryI13BVPressureAuxE5buildERK15InputParameters
FNDA:1,_ZN13RegistryEntryI13BVPressureAuxE5buildERK15InputParameters
FN:264,_ZN13RegistryEntryI20BVStressComponentAuxE5buildERK15InputParameters
FNDA:7,_ZN13RegistryEntryI20BVStressComponentAuxE5buildERK15InputParameters
FN:264,_ZN13RegistryEntryI20BVStrainComponentAuxE5buildERK15InputParameters
FNDA:6,_ZN13RegistryEntryI20BVStrainComponentAuxE5buildERK15InputParameters
FN:264,_ZN13RegistryEntryI18BVDarcyVelocityAuxE5buildERK15InputParameters
FNDA:4,_ZN13RegistryEntryI18BVDarcyVelocityAuxE5buildERK15InputParameters
FN:264,_ZN13RegistryEntryI16BVMisesStressAuxE5buildERK15InputParameters
FNDA:3,_ZN13RegistryEntryI16BVMisesStressAuxE5buildERK15InputParameters
FN:264,_ZN13RegistryEntryI18BVEqvStrainRateAuxE5buildERK15InputParameters
FNDA:2,_ZN13RegistryEntryI18BVEqvStrainRateAuxE5buildERK15InputParameters
FN:264,_ZN13RegistryEntryI14BVEqvStrainAuxE5buildERK15InputParameters
FNDA:2,_ZN13RegistryEntryI14BVEqvStrainAuxE5buildERK15InputParameters
FN:274,_ZN13RegistryEntryI18BVDarcyVelocityAuxE11buildActionERK15InputParameters
FNDA:0,_ZN13RegistryEntryI18BVDarcyVelocityAuxE11buildActionERK15InputParameters
FN:274,_ZN13RegistryEntryI13BVPressureAuxE11buildActionERK15InputParameters
FNDA:0,_ZN13RegistryEntryI13BVPressureAuxE11buildActionERK15InputParameters
FN:274,_ZN13RegistryEntryI20BVStrainComponentAuxE11buildActionERK15InputParameters
FNDA:0,_ZN13RegistryEntryI20BVStrainComponentAuxE11buildActionERK15InputParameters
FN:274,_ZN13RegistryEntryI16BVMisesStressAuxE11buildActionERK15InputParameters
FNDA:0,_ZN13RegistryEntryI16BVMisesStressAuxE11buildActionERK15InputParameters
FN:274,_ZN13RegistryEntryI14BVEqvStrainAuxE11buildActionERK15InputParameters
FNDA:0,_ZN13RegistryEntryI14BVEqvStrainAuxE11buildActionERK15InputParameters
FN:274,_ZN13RegistryEntryI20BVStressComponentAuxE11buildActionERK15InputParameters
FNDA:0,_ZN13RegistryEntryI20BVStressComponentAuxE11buildActionERK15InputParameters
FN:274,_ZN13RegistryEntryI18BVEqvStrainRateAuxE11buildActionERK15InputParameters
FNDA:0,_ZN13RegistryEntryI18BVEqvStrainRateAuxE11buildActionERK15InputParameters
FN:284,_ZN13RegistryEntryI16BVMisesStressAuxE15buildParametersEv
FNDA:122,_ZN13RegistryEntryI16BVMisesStressAuxE15buildParametersEv
FN:284,_ZN13RegistryEntryI14BVEqvStrainAuxE15buildParametersEv
FNDA:120,_ZN13RegistryEntryI14BVEqvStrainAuxE15buildParametersEv
FN:284,_ZN13RegistryEntryI18BVEqvStrainRateAuxE15buildParametersEv
FNDA:120,_ZN13RegistryEntryI18BVEqvStrainRateAuxE15buildParametersEv
FN:284,_ZN13RegistryEntryI20BVStressComponentAuxE15buildParametersEv
FNDA:130,_ZN13RegistryEntryI20BVStressComponentAuxE15buildParametersEv
FN:284,_ZN13RegistryEntryI20BVStrainComponentAuxE15buildParametersEv
FNDA:128,_ZN13RegistryEntryI20BVStrainComponentAuxE15buildParametersEv
FN:284,_ZN13RegistryEntryI18BVDarcyVelocityAuxE15buildParametersEv
FNDA:124,_ZN13RegistryEntryI18BVDarcyVelocityAuxE15buildParametersEv
FN:284,_ZN13RegistryEntryI13BVPressureAuxE15buildParametersEv
FNDA:118,_ZN13RegistryEntryI13BVPressureAuxE15buildParametersEv
FNF:29
FNH:21
DA:114,119
DA:121,0
DA:123,0
DA:124,0
DA:125,0
DA:126,0
DA:127,0
DA:128,0
DA:135,119
DA:162,17
DA:165,34
DA:166,34
DA:167,17
DA:162,17
DA:165,34
DA:166,34
DA:167,17
DA:162,17
DA:165,34
DA:166,34
DA:167,17
DA:162,17
DA:165,34
DA:166,34
DA:167,17
DA:162,17
DA:165,34
DA:166,34
DA:167,17
DA:162,17
DA:165,34
DA:166,34
DA:167,17
DA:162,17
DA:165,34
DA:166,34
DA:167,17
DA:264,4
DA:269,4
DA:264,2
DA:269,2
DA:264,2
DA:269,2
DA:264,3
DA:269,3
DA:264,1
DA:269,1
DA:264,6
DA:269,6
DA:264,7
DA:269,7
DA:274,0
DA:277,0
DA:274,0
DA:277,0
DA:274,0
DA:277,0
DA:274,0
DA:277,0
DA:274,0
DA:277,0
DA:274,0
DA:277,0
DA:274,0
DA:277,0
DA:284,124
DA:286,124
DA:287,124
DA:284,120
DA:286,120
DA:287,120
DA:284,120
DA:286,120
DA:287,120
DA:284,122
DA:286,122
DA:287,122
DA:284,118
DA:286,118
DA:287,118
DA:284,128
DA:286,128
DA:287,128
DA:284,130
DA:286,130
DA:287,130
LF:86
LH:65
end_of_record
SF:/home/runner/work/beaver/beaver/build/header_symlinks/BVEqvStrainRateAux.h
LF:0
LH:0
end_of_record
SF:/usr/share/miniconda3/envs/moose/x86_64-conda-linux-gnu/include/c++/10.4.0/future
FN:328,_ZNSt13__future_base13_State_baseV2D0Ev
FNDA:0,_ZNSt13__future_base13_State_baseV2D0Ev
FN:328,_ZNSt13__future_base13_State_baseV2D2Ev
FNDA:0,_ZNSt13__future_base13_State_baseV2D2Ev
FN:581,_ZNSt13__future_base13_State_baseV217_M_complete_asyncEv
FNDA:0,_ZNSt13__future_base13_State_baseV217_M_complete_asyncEv
FN:584,_ZNKSt13__future_base13_State_baseV221_M_is_deferred_futureEv
FNDA:0,_ZNKSt13__future_base13_State_baseV221_M_is_deferred_futureEv
FN:663,_ZNSt13__future_base7_ResultIvE10_M_destroyEv
FNDA:0,_ZNSt13__future_base7_ResultIvE10_M_destroyEv
FNF:5
FNH:0
DA:213,0
DA:328,0
DA:328,0
DA:581,0
DA:584,0
DA:663,0
LF:6
LH:0
end_of_record
SF:/home/runner/work/beaver/beaver/moose/framework/build/header_symlinks/MooseBaseParameterInterface.h
FN:171,_ZNK27MooseBaseParameterInterface13paramErrorMsgIJPKcEEENSt7__cxx1112basic_stringIcSt11char_traitsIcESaIcEEERKS8_DpT_
FNDA:0,_ZNK27MooseBaseParameterInterface13paramErrorMsgIJPKcEEENSt7__cxx1112basic_stringIcSt11char_traitsIcESaIcEEERKS8_DpT_
FN:233,_ZNK27MooseBaseParameterInterface10paramErrorIJPKcEEEvRKNSt7__cxx1112basic_stringIcSt11char_traitsIcESaIcEEEDpT_
FNDA:0,_ZNK27MooseBaseParameterInterface10paramErrorIJPKcEEEvRKNSt7__cxx1112basic_stringIcSt11char_traitsIcESaIcEEEDpT_
FNF:2
FNH:0
DA:102,0
DA:171,0
DA:173,0
DA:176,0
DA:177,0
DA:179,0
DA:180,0
DA:187,0
DA:188,0
DA:190,0
DA:192,0
DA:194,0
DA:202,34
DA:233,0
DA:235,0
DA:236,0
DA:237,0
LF:17
LH:1
end_of_record
SF:/home/runner/work/beaver/beaver/moose/framework/build/header_symlinks/ScalarCoupleable.h
LF:0
LH:0
end_of_record
SF:/home/runner/work/beaver/beaver/moose/framework/build/header_symlinks/FaceInfo.h
DA:70,0
DA:80,0
DA:81,0
DA:83,0
LF:4
LH:0
end_of_record
SF:/usr/share/miniconda3/envs/moose/x86_64-conda-linux-gnu/include/c++/10.4.0/bits/basic_string.tcc
FN:206,_ZNSt7__cxx1112basic_stringIcSt11char_traitsIcESaIcEE12_M_constructIPcEEvT_S7_St20forward_iterator_tag
FNDA:0,_ZNSt7__cxx1112basic_stringIcSt11char_traitsIcESaIcEE12_M_constructIPcEEvT_S7_St20forward_iterator_tag
FN:206,_ZNSt7__cxx1112basic_stringIcSt11char_traitsIcESaIcEE12_M_constructIPKcEEvT_S8_St20forward_iterator_tag
FNDA:4941,_ZNSt7__cxx1112basic_stringIcSt11char_traitsIcESaIcEE12_M_constructIPKcEEvT_S8_St20forward_iterator_tag
FN:1152,_ZStplIcSt11char_traitsIcESaIcEENSt7__cxx1112basic_stringIT_T0_T1_EEPKS5_RKS8_
FNDA:0,_ZStplIcSt11char_traitsIcESaIcEENSt7__cxx1112basic_stringIT_T0_T1_EEPKS5_RKS8_
FNF:3
FNH:1
DA:206,0
DA:211,0
DA:212,0
DA:215,0
DA:217,0
DA:219,0
DA:220,0
DA:232,0
DA:233,0
DA:206,4941
DA:211,4941
DA:212,0
DA:215,4941
DA:217,4941
DA:219,2697
DA:220,2697
DA:232,4941
DA:233,4941
DA:1152,0
DA:1164,0
DA:1165,0
DA:1167,0
LF:22
LH:8
end_of_record
SF:/home/runner/work/beaver/beaver/moose/framework/build/header_symlinks/MooseObjectName.h
FN:56,_ZN15MooseObjectNameD0Ev
FNDA:0,_ZN15MooseObjectNameD0Ev
FN:56,_ZN15MooseObjectNameD2Ev
FNDA:0,_ZN15MooseObjectNameD2Ev
FNF:2
FNH:0
DA:56,0
DA:56,0
LF:2
LH:0
end_of_record
SF:/usr/share/miniconda3/envs/moose/x86_64-conda-linux-gnu/include/c++/10.4.0/bits/stl_function.h
DA:356,0
DA:386,0
DA:1156,0
LF:3
LH:0
end_of_record
SF:/usr/share/miniconda3/envs/moose/x86_64-conda-linux-gnu/include/c++/10.4.0/bits/ios_base.h
DA:166,0
LF:1
LH:0
end_of_record
SF:/home/runner/work/beaver/beaver/src/auxkernels/BVDarcyVelocityAux.C
FN:21,_ZN18BVDarcyVelocityAux11validParamsEv
FNDA:124,_ZN18BVDarcyVelocityAux11validParamsEv
FN:32,_ZN18BVDarcyVelocityAuxC2ERK15InputParameters
FNDA:4,_ZN18BVDarcyVelocityAuxC2ERK15InputParameters
FN:45,_ZN18BVDarcyVelocityAux12computeValueEv
FNDA:36080,_ZN18BVDarcyVelocityAux12computeValueEv
FNF:3
FNH:3
DA:21,124
DA:23,124
DA:24,124
DA:25,248
DA:26,248
DA:28,248
DA:29,124
DA:32,4
DA:34,4
DA:35,4
DA:36,4
DA:37,4
DA:38,20
DA:40,4
DA:41,0
DA:42,4
DA:45,36080
DA:47,36080
DA:48,36080
DA:50,36080
LF:20
LH:19
end_of_record
SF:/home/runner/work/beaver/beaver/moose/framework/build/header_symlinks/CoupleableMooseVariableDependencyIntermediateInterface.h
LF:0
LH:0
end_of_record
SF:/usr/share/miniconda3/envs/moose/x86_64-conda-linux-gnu/include/c++/10.4.0/bits/basic_ios.h
DA:138,0
LF:1
LH:0
end_of_record
SF:/usr/share/miniconda3/envs/moose/libmesh/include/libmesh/libmesh_common.h
DA:618,0
LF:1
LH:0
end_of_record
SF:/usr/share/miniconda3/envs/moose/libmesh/include/libmesh/dense_vector.h
FN:102,_ZN7libMesh11DenseVectorIdED0Ev
FNDA:0,_ZN7libMesh11DenseVectorIdED0Ev
FN:102,_ZN7libMesh11DenseVectorIdED2Ev
FNDA:291,_ZN7libMesh11DenseVectorIdED2Ev
FN:104,_ZNK7libMesh11DenseVectorIdE4sizeEv
FNDA:0,_ZNK7libMesh11DenseVectorIdE4sizeEv
FN:109,_ZNK7libMesh11DenseVectorIdE5emptyEv
FNDA:0,_ZNK7libMesh11DenseVectorIdE5emptyEv
FN:124,_ZNK7libMesh11DenseVectorIdE2elEj
FNDA:0,_ZNK7libMesh11DenseVectorIdE2elEj
FN:127,_ZN7libMesh11DenseVectorIdE2elEj
FNDA:0,_ZN7libMesh11DenseVectorIdE2elEj
FN:398,_ZN7libMesh11DenseVectorIdE4zeroEv
FNDA:0,_ZN7libMesh11DenseVectorIdE4zeroEv
FNF:7
FNH:1
DA:102,0
DA:102,291
DA:104,0
DA:106,0
DA:109,0
DA:110,0
DA:124,0
DA:125,0
DA:127,0
DA:128,0
DA:398,0
DA:403,0
DA:413,0
DA:424,0
LF:14
LH:1
end_of_record
SF:/home/runner/work/beaver/beaver/moose/framework/build/header_symlinks/Postprocessor.h
FN:74,_ZNK13Postprocessor9hasBlocksEt
FNDA:0,_ZNK13Postprocessor9hasBlocksEt
FNF:1
FNH:0
DA:74,0
LF:1
LH:0
end_of_record
SF:/home/runner/work/beaver/beaver/moose/framework/build/header_symlinks/MaterialData.h
FN:256,_ZN12MaterialData17getPropertyHelperI18RankTwoTensorTemplIdELb1ELb0EEERN29GenericMaterialPropertyStructIT_XT0_EE4typeERKNSt7__cxx1112basic_stringIcSt11char_traitsIcESaIcEEEjRK11MooseObject
FNDA:0,_ZN12MaterialData17getPropertyHelperI18RankTwoTensorTemplIdELb1ELb0EEERN29GenericMaterialPropertyStructIT_XT0_EE4typeERKNSt7__cxx1112basic_stringIcSt11char_traitsIcESaIcEEEjRK11MooseObject
FN:256,_ZN12MaterialData17getPropertyHelperIdLb1ELb0EEERN29GenericMaterialPropertyStructIT_XT0_EE4typeERKNSt7__cxx1112basic_stringIcSt11char_traitsIcESaIcEEEjRK11MooseObject
FNDA:0,_ZN12MaterialData17getPropertyHelperIdLb1ELb0EEERN29GenericMaterialPropertyStructIT_XT0_EE4typeERKNSt7__cxx1112basic_stringIcSt11char_traitsIcESaIcEEEjRK11MooseObject
FNF:2
FNH:0
DA:113,0
DA:235,0
DA:256,0
DA:266,0
DA:269,0
DA:270,0
DA:273,0
DA:275,0
DA:277,0
DA:279,0
DA:280,0
DA:285,0
DA:289,0
DA:290,0
DA:294,0
DA:297,0
DA:300,0
DA:301,0
DA:302,0
DA:305,0
DA:256,0
DA:266,0
DA:269,0
DA:270,0
DA:273,0
DA:275,0
DA:277,0
DA:279,0
DA:280,0
DA:285,0
DA:289,0
DA:290,0
DA:294,0
DA:297,0
DA:300,0
DA:301,0
DA:302,0
DA:305,0
LF:38
LH:0
end_of_record
SF:/usr/share/miniconda3/envs/moose/libmesh/include/metaphysicl/dualnumber.h
FN:99,_ZN11MetaPhysicL10DualNumberIdNS_28SemiDynamicSparseNumberArrayIdmNS_8NWrapperILm64EEEEELb1EEaSERKS5_
FNDA:0,_ZN11MetaPhysicL10DualNumberIdNS_28SemiDynamicSparseNumberArrayIdmNS_8NWrapperILm64EEEEELb1EEaSERKS5_
FN:113,_ZN11MetaPhysicL10DualNumberIdNS_28SemiDynamicSparseNumberArrayIdmNS_8NWrapperILm64EEEEELb1EEaSEOS5_
FNDA:0,_ZN11MetaPhysicL10DualNumberIdNS_28SemiDynamicSparseNumberArrayIdmNS_8NWrapperILm64EEEEELb1EEaSEOS5_
FN:140,_ZN11MetaPhysicL10DualNumberIdNS_28SemiDynamicSparseNumberArrayIdmNS_8NWrapperILm64EEEEELb1EEC2ERKS5_
FNDA:0,_ZN11MetaPhysicL10DualNumberIdNS_28SemiDynamicSparseNumberArrayIdmNS_8NWrapperILm64EEEEELb1EEC2ERKS5_
FN:150,_ZN11MetaPhysicL10DualNumberIdNS_28SemiDynamicSparseNumberArrayIdmNS_8NWrapperILm64EEEEELb1EEC2EOS5_
FNDA:0,_ZN11MetaPhysicL10DualNumberIdNS_28SemiDynamicSparseNumberArrayIdmNS_8NWrapperILm64EEEEELb1EEC2EOS5_
FN:193,_ZN11MetaPhysicL10DualNumberIdNS_28SemiDynamicSparseNumberArrayIdmNS_8NWrapperILm64EEEEELb1EEaSIdEERS5_RKT_
FNDA:0,_ZN11MetaPhysicL10DualNumberIdNS_28SemiDynamicSparseNumberArrayIdmNS_8NWrapperILm64EEEEELb1EEaSIdEERS5_RKT_
FN:470,_ZN11MetaPhysicL10DualNumberIdNS_28SemiDynamicSparseNumberArrayIdmNS_8NWrapperILm64EEEEELb1EEpLIdS4_EERS5_RKNS0_IT_T0_Lb1EEE
FNDA:0,_ZN11MetaPhysicL10DualNumberIdNS_28SemiDynamicSparseNumberArrayIdmNS_8NWrapperILm64EEEEELb1EEpLIdS4_EERS5_RKNS0_IT_T0_Lb1EEE
FN:474,_ZN11MetaPhysicL10DualNumberIdNS_28SemiDynamicSparseNumberArrayIdmNS_8NWrapperILm64EEEEELb1EEmLIdEERS5_RKT_
FNDA:0,_ZN11MetaPhysicL10DualNumberIdNS_28SemiDynamicSparseNumberArrayIdmNS_8NWrapperILm64EEEEELb1EEmLIdEERS5_RKT_
FN:479,_ZN11MetaPhysicL10DualNumberIdNS_28SemiDynamicSparseNumberArrayIdmNS_8NWrapperILm64EEEEELb1EEdVIdEERS5_RKT_
FNDA:184320,_ZN11MetaPhysicL10DualNumberIdNS_28SemiDynamicSparseNumberArrayIdmNS_8NWrapperILm64EEEEELb1EEdVIdEERS5_RKT_
FNF:8
FNH:1
DA:65,0
DA:99,0
DA:101,0
DA:103,0
DA:106,0
DA:113,0
DA:115,0
DA:117,0
DA:120,0
DA:140,0
DA:141,0
DA:143,0
DA:145,0
DA:150,0
DA:151,0
DA:153,0
DA:155,0
DA:193,0
DA:195,0
DA:196,0
DA:197,0
DA:198,0
DA:470,0
DA:474,0
DA:479,204800
LF:25
LH:1
end_of_record
SF:/home/runner/work/beaver/beaver/moose/framework/build/header_symlinks/SetupInterface.h
FN:61,_ZN14SetupInterface11customSetupERK13MooseEnumItem
FNDA:0,_ZN14SetupInterface11customSetupERK13MooseEnumItem
FNF:1
FNH:0
DA:61,0
LF:1
LH:0
end_of_record
SF:/usr/share/miniconda3/envs/moose/x86_64-conda-linux-gnu/include/c++/10.4.0/bits/stl_iterator_base_funcs.h
DA:104,4941
LF:1
LH:1
end_of_record
SF:/home/runner/work/beaver/beaver/src/auxkernels/BVStressComponentAux.C
FN:20,_ZN20BVStressComponentAux11validParamsEv
FNDA:130,_ZN20BVStressComponentAux11validParamsEv
FN:32,_ZN20BVStressComponentAuxC2ERK15InputParameters
FNDA:7,_ZN20BVStressComponentAuxC2ERK15InputParameters
FN:40,_ZN20BVStressComponentAux12computeValueEv
FNDA:25112,_ZN20BVStressComponentAux12computeValueEv
FNF:3
FNH:3
DA:20,130
DA:22,130
DA:23,130
DA:24,260
DA:25,260
DA:27,260
DA:29,130
DA:32,7
DA:34,14
DA:35,21
DA:37,7
DA:40,25112
DA:42,25112
LF:13
LH:13
end_of_record
TN:
SF:/home/runner/work/beaver/beaver/moose/framework/build/header_symlinks/ConsoleStream.h
FN:105,_ZNK13ConsoleStreamlsINSt7__cxx1112basic_stringIcSt11char_traitsIcESaIcEEEEERKS_RKT_
FNDA:0,_ZNK13ConsoleStreamlsINSt7__cxx1112basic_stringIcSt11char_traitsIcESaIcEEEEERKS_RKT_
FNF:1
FNH:0
DA:105,0
DA:109,0
DA:110,0
LF:3
LH:0
end_of_record
SF:/home/runner/work/beaver/beaver/build/header_symlinks/BVPoroMechanicsMaterial.h
LF:0
LH:0
end_of_record
SF:/usr/share/miniconda3/envs/moose/libmesh/include/metaphysicl/metaphysicl_exceptions.h
DA:45,0
LF:1
LH:0
end_of_record
SF:/home/runner/work/beaver/beaver/src/materials/BVPermeabilityBase.C
FN:17,_ZN18BVPermeabilityBase11validParamsEv
FNDA:140,_ZN18BVPermeabilityBase11validParamsEv
FN:25,_ZN18BVPermeabilityBaseC2ERK15InputParameters
FNDA:18,_ZN18BVPermeabilityBaseC2ERK15InputParameters
FNF:2
FNH:2
DA:17,140
DA:19,140
DA:20,140
DA:22,140
DA:25,18
DA:26,18
DA:28,18
LF:7
LH:7
end_of_record
SF:/home/runner/work/beaver/beaver/moose/framework/build/header_symlinks/ElemInfo.h
DA:34,0
LF:1
LH:0
end_of_record
SF:/usr/share/miniconda3/envs/moose/x86_64-conda-linux-gnu/include/c++/10.4.0/streambuf
LF:0
LH:0
end_of_record
SF:/usr/share/miniconda3/envs/moose/libmesh/include/metaphysicl/semidynamicsparsenumberarray_decl.h
DA:34,34211496
DA:56,0
DA:58,53229924
DA:62,0
LF:4
LH:2
end_of_record
SF:/usr/share/miniconda3/envs/moose/x86_64-conda-linux-gnu/include/c++/10.4.0/tuple
FN:1390,_ZNSt15__tuple_compareISt5tupleIJPK8FaceInfoN5Moose2FV11LimiterTypeEbbPKN7libMesh4ElemEEESB_Lm0ELm5EE6__lessERKSB_SE_
FNDA:0,_ZNSt15__tuple_compareISt5tupleIJPK8FaceInfoN5Moose2FV11LimiterTypeEbbPKN7libMesh4ElemEEESB_Lm0ELm5EE6__lessERKSB_SE_
FN:1390,_ZNSt15__tuple_compareISt5tupleIJPK8FaceInfoN5Moose2FV11LimiterTypeEbbPKN7libMesh4ElemEEESB_Lm1ELm5EE6__lessERKSB_SE_
FNDA:0,_ZNSt15__tuple_compareISt5tupleIJPK8FaceInfoN5Moose2FV11LimiterTypeEbbPKN7libMesh4ElemEEESB_Lm1ELm5EE6__lessERKSB_SE_
FN:1390,_ZNSt15__tuple_compareISt5tupleIJPK8FaceInfoN5Moose2FV11LimiterTypeEbbPKN7libMesh4ElemEEESB_Lm2ELm5EE6__lessERKSB_SE_
FNDA:0,_ZNSt15__tuple_compareISt5tupleIJPK8FaceInfoN5Moose2FV11LimiterTypeEbbPKN7libMesh4ElemEEESB_Lm2ELm5EE6__lessERKSB_SE_
FN:1702,_ZNSt4pairIKNSt7__cxx1112basic_stringIcSt11char_traitsIcESaIcEEES5_EC2IJOS5_EJLm0EEJEJEEERSt5tupleIJDpT_EERSA_IJDpT1_EESt12_Index_tupleIJXspT0_EEESJ_IJXspT2_EEE
FNDA:0,_ZNSt4pairIKNSt7__cxx1112basic_stringIcSt11char_traitsIcESaIcEEES5_EC2IJOS5_EJLm0EEJEJEEERSt5tupleIJDpT_EERSA_IJDpT1_EESt12_Index_tupleIJXspT0_EEESJ_IJXspT2_EEE
FN:1702,_ZNSt4pairIKNSt7__cxx1112basic_stringIcSt11char_traitsIcESaIcEEEN15InputParameters8MetadataEEC2IJRS6_EJLm0EEJEJEEERSt5tupleIJDpT_EERSC_IJDpT1_EESt12_Index_tupleIJXspT0_EEESL_IJXspT2_EEE
FNDA:0,_ZNSt4pairIKNSt7__cxx1112basic_stringIcSt11char_traitsIcESaIcEEEN15InputParameters8MetadataEEC2IJRS6_EJLm0EEJEJEEERSt5tupleIJDpT_EERSC_IJDpT1_EESt12_Index_tupleIJXspT0_EEESL_IJXspT2_EEE
FNF:5
FNH:0
DA:130,0
DA:132,204
DA:133,0
DA:135,0
DA:136,0
DA:142,204
DA:143,155750
DA:176,0
DA:532,0
DA:1390,0
DA:1392,0
DA:1393,0
DA:1394,0
DA:1390,0
DA:1392,0
DA:1393,0
DA:1394,0
DA:1390,0
DA:1392,0
DA:1393,0
DA:1394,0
DA:1393,0
DA:1460,0
DA:1690,0
DA:1695,0
DA:1702,0
DA:1707,0
DA:1702,0
DA:1706,0
DA:1707,0
DA:1702,0
DA:1706,0
LF:32
LH:3
end_of_record
SF:/usr/share/miniconda3/envs/moose/x86_64-conda-linux-gnu/include/c++/10.4.0/bits/hashtable_policy.h
FN:701,_ZNSt8__detail9_Map_baseImSt4pairIKmSt6vectorIS3_IS1_IbdESaIS4_EESaIS6_EEESaIS9_ENS_10_Select1stESt8equal_toImESt4hashImENS_18_Mod_range_hashingENS_20_Default_ranged_hashENS_20_Prime_rehash_policyENS_17_Hashtable_traitsILb0ELb0ELb1EEELb1EEixERS2_
FNDA:0,_ZNSt8__detail9_Map_baseImSt4pairIKmSt6vectorIS3_IS1_IbdESaIS4_EESaIS6_EEESaIS9_ENS_10_Select1stESt8equal_toImESt4hashImENS_18_Mod_range_hashingENS_20_Default_ranged_hashENS_20_Prime_rehash_policyENS_17_Hashtable_traitsILb0ELb0ELb1EEELb1EEixERS2_
FN:701,_ZNSt8__detail9_Map_baseImSt4pairIKmSt6vectorIS1_IbdESaIS4_EEESaIS7_ENS_10_Select1stESt8equal_toImESt4hashImENS_18_Mod_range_hashingENS_20_Default_ranged_hashENS_20_Prime_rehash_policyENS_17_Hashtable_traitsILb0ELb0ELb1EEELb1EEixERS2_
FNDA:0,_ZNSt8__detail9_Map_baseImSt4pairIKmSt6vectorIS1_IbdESaIS4_EEESaIS7_ENS_10_Select1stESt8equal_toImESt4hashImENS_18_Mod_range_hashingENS_20_Default_ranged_hashENS_20_Prime_rehash_policyENS_17_Hashtable_traitsILb0ELb0ELb1EEELb1EEixERS2_
FN:701,_ZNSt8__detail9_Map_baseImSt4pairIKmSt6vectorIS3_IS1_IbN11MetaPhysicL10DualNumberIdNS4_28SemiDynamicSparseNumberArrayIdmNS4_8NWrapperILm64EEEEELb1EEEESaISB_EESaISD_EEESaISG_ENS_10_Select1stESt8equal_toImESt4hashImENS_18_Mod_range_hashingENS_20_Default_ranged_hashENS_20_Prime_rehash_policyENS_17_Hashtable_traitsILb0ELb0ELb1EEELb1EEixERS2_
FNDA:0,_ZNSt8__detail9_Map_baseImSt4pairIKmSt6vectorIS3_IS1_IbN11MetaPhysicL10DualNumberIdNS4_28SemiDynamicSparseNumberArrayIdmNS4_8NWrapperILm64EEEEELb1EEEESaISB_EESaISD_EEESaISG_ENS_10_Select1stESt8equal_toImESt4hashImENS_18_Mod_range_hashingENS_20_Default_ranged_hashENS_20_Prime_rehash_policyENS_17_Hashtable_traitsILb0ELb0ELb1EEELb1EEixERS2_
FN:701,_ZNSt8__detail9_Map_baseImSt4pairIKmSt6vectorIS1_IbN11MetaPhysicL10DualNumberIdNS4_28SemiDynamicSparseNumberArrayIdmNS4_8NWrapperILm64EEEEELb1EEEESaISB_EEESaISE_ENS_10_Select1stESt8equal_toImESt4hashImENS_18_Mod_range_hashingENS_20_Default_ranged_hashENS_20_Prime_rehash_policyENS_17_Hashtable_traitsILb0ELb0ELb1EEELb1EEixERS2_
FNDA:0,_ZNSt8__detail9_Map_baseImSt4pairIKmSt6vectorIS1_IbN11MetaPhysicL10DualNumberIdNS4_28SemiDynamicSparseNumberArrayIdmNS4_8NWrapperILm64EEEEELb1EEEESaISB_EEESaISE_ENS_10_Select1stESt8equal_toImESt4hashImENS_18_Mod_range_hashingENS_20_Default_ranged_hashENS_20_Prime_rehash_policyENS_17_Hashtable_traitsILb0ELb0ELb1EEELb1EEixERS2_
FN:2030,_ZNSt8__detail16_Hashtable_allocISaINS_10_Hash_nodeISt4pairIKmSt6vectorIS4_IS2_IbdESaIS5_EESaIS7_EEELb0EEEEE16_M_allocate_nodeIJRKSt21piecewise_construct_tSt5tupleIJRS3_EESI_IJEEEEEPSB_DpOT_
FNDA:0,_ZNSt8__detail16_Hashtable_allocISaINS_10_Hash_nodeISt4pairIKmSt6vectorIS4_IS2_IbdESaIS5_EESaIS7_EEELb0EEEEE16_M_allocate_nodeIJRKSt21piecewise_construct_tSt5tupleIJRS3_EESI_IJEEEEEPSB_DpOT_
FN:2030,_ZNSt8__detail16_Hashtable_allocISaINS_10_Hash_nodeISt4pairIKmSt6vectorIS2_IbdESaIS5_EEELb0EEEEE16_M_allocate_nodeIJRKSt21piecewise_construct_tSt5tupleIJRS3_EESG_IJEEEEEPS9_DpOT_
FNDA:0,_ZNSt8__detail16_Hashtable_allocISaINS_10_Hash_nodeISt4pairIKmSt6vectorIS2_IbdESaIS5_EEELb0EEEEE16_M_allocate_nodeIJRKSt21piecewise_construct_tSt5tupleIJRS3_EESG_IJEEEEEPS9_DpOT_
FN:2030,_ZNSt8__detail16_Hashtable_allocISaINS_10_Hash_nodeISt4pairIKmSt6vectorIS4_IS2_IbN11MetaPhysicL10DualNumberIdNS5_28SemiDynamicSparseNumberArrayIdmNS5_8NWrapperILm64EEEEELb1EEEESaISC_EESaISE_EEELb0EEEEE16_M_allocate_nodeIJRKSt21piecewise_construct_tSt5tupleIJRS3_EESP_IJEEEEEPSI_DpOT_
FNDA:0,_ZNSt8__detail16_Hashtable_allocISaINS_10_Hash_nodeISt4pairIKmSt6vectorIS4_IS2_IbN11MetaPhysicL10DualNumberIdNS5_28SemiDynamicSparseNumberArrayIdmNS5_8NWrapperILm64EEEEELb1EEEESaISC_EESaISE_EEELb0EEEEE16_M_allocate_nodeIJRKSt21piecewise_construct_tSt5tupleIJRS3_EESP_IJEEEEEPSI_DpOT_
FN:2030,_ZNSt8__detail16_Hashtable_allocISaINS_10_Hash_nodeISt4pairIKmSt6vectorIS2_IbN11MetaPhysicL10DualNumberIdNS5_28SemiDynamicSparseNumberArrayIdmNS5_8NWrapperILm64EEEEELb1EEEESaISC_EEELb0EEEEE16_M_allocate_nodeIJRKSt21piecewise_construct_tSt5tupleIJRS3_EESN_IJEEEEEPSG_DpOT_
FNDA:0,_ZNSt8__detail16_Hashtable_allocISaINS_10_Hash_nodeISt4pairIKmSt6vectorIS2_IbN11MetaPhysicL10DualNumberIdNS5_28SemiDynamicSparseNumberArrayIdmNS5_8NWrapperILm64EEEEELb1EEEESaISC_EEELb0EEEEE16_M_allocate_nodeIJRKSt21piecewise_construct_tSt5tupleIJRS3_EESN_IJEEEEEPSG_DpOT_
FN:2052,_ZNSt8__detail16_Hashtable_allocISaINS_10_Hash_nodeISt4pairIKNSt7__cxx1112basic_stringIcSt11char_traitsIcESaIcEEESt10unique_ptrI10MooseArrayIN7libMesh11VectorValueIN11MetaPhysicL10DualNumberIdNSE_28SemiDynamicSparseNumberArrayIdmNSE_8NWrapperILm64EEEEELb1EEEEEESt14default_deleteISM_EEELb1EEEEE18_M_deallocate_nodeEPSR_
FNDA:0,_ZNSt8__detail16_Hashtable_allocISaINS_10_Hash_nodeISt4pairIKNSt7__cxx1112basic_stringIcSt11char_traitsIcESaIcEEESt10unique_ptrI10MooseArrayIN7libMesh11VectorValueIN11MetaPhysicL10DualNumberIdNSE_28SemiDynamicSparseNumberArrayIdmNSE_8NWrapperILm64EEEEELb1EEEEEESt14default_deleteISM_EEELb1EEEEE18_M_deallocate_nodeEPSR_
FN:2052,_ZNSt8__detail16_Hashtable_allocISaINS_10_Hash_nodeISt4pairIKNSt7__cxx1112basic_stringIcSt11char_traitsIcESaIcEEESt6vectorIjSaIjEEELb1EEEEE18_M_deallocate_nodeEPSE_
FNDA:0,_ZNSt8__detail16_Hashtable_allocISaINS_10_Hash_nodeISt4pairIKNSt7__cxx1112basic_stringIcSt11char_traitsIcESaIcEEESt6vectorIjSaIjEEELb1EEEEE18_M_deallocate_nodeEPSE_
FN:2052,_ZNSt8__detail16_Hashtable_allocISaINS_10_Hash_nodeISt4pairIKNSt7__cxx1112basic_stringIcSt11char_traitsIcESaIcEEESt10unique_ptrI10MooseArrayIN5Eigen6MatrixIdLin1ELi1ELi0ELin1ELi1EEEESt14default_deleteISF_EEELb1EEEEE18_M_deallocate_nodeEPSK_
FNDA:0,_ZNSt8__detail16_Hashtable_allocISaINS_10_Hash_nodeISt4pairIKNSt7__cxx1112basic_stringIcSt11char_traitsIcESaIcEEESt10unique_ptrI10MooseArrayIN5Eigen6MatrixIdLin1ELi1ELi0ELin1ELi1EEEESt14default_deleteISF_EEELb1EEEEE18_M_deallocate_nodeEPSK_
FN:2052,_ZNSt8__detail16_Hashtable_allocISaINS_10_Hash_nodeISt4pairIKNSt7__cxx1112basic_stringIcSt11char_traitsIcESaIcEEESt10unique_ptrI10MooseArrayIN7libMesh11VectorValueIdEEESt14default_deleteISF_EEELb1EEEEE18_M_deallocate_nodeEPSK_
FNDA:0,_ZNSt8__detail16_Hashtable_allocISaINS_10_Hash_nodeISt4pairIKNSt7__cxx1112basic_stringIcSt11char_traitsIcESaIcEEESt10unique_ptrI10MooseArrayIN7libMesh11VectorValueIdEEESt14default_deleteISF_EEELb1EEEEE18_M_deallocate_nodeEPSK_
FN:2052,_ZNSt8__detail16_Hashtable_allocISaINS_10_Hash_nodeISt4pairIKNSt7__cxx1112basic_stringIcSt11char_traitsIcESaIcEEESt6vectorISt10unique_ptrI10MooseArrayIdESt14default_deleteISD_EESaISG_EEELb1EEEEE18_M_deallocate_nodeEPSK_
FNDA:0,_ZNSt8__detail16_Hashtable_allocISaINS_10_Hash_nodeISt4pairIKNSt7__cxx1112basic_stringIcSt11char_traitsIcESaIcEEESt6vectorISt10unique_ptrI10MooseArrayIdESt14default_deleteISD_EESaISG_EEELb1EEEEE18_M_deallocate_nodeEPSK_
FN:2052,_ZNSt8__detail16_Hashtable_allocISaINS_10_Hash_nodeISt4pairIKNSt7__cxx1112basic_stringIcSt11char_traitsIcESaIcEEESt6vectorIP22MooseVariableFieldBaseSaISC_EEELb1EEEEE18_M_deallocate_nodeEPSG_
FNDA:0,_ZNSt8__detail16_Hashtable_allocISaINS_10_Hash_nodeISt4pairIKNSt7__cxx1112basic_stringIcSt11char_traitsIcESaIcEEESt6vectorIP22MooseVariableFieldBaseSaISC_EEELb1EEEEE18_M_deallocate_nodeEPSG_
FN:2052,_ZNSt8__detail16_Hashtable_allocISaINS_10_Hash_nodeISt4pairIKNSt7__cxx1112basic_stringIcSt11char_traitsIcESaIcEEES8_ELb1EEEEE18_M_deallocate_nodeEPSB_
FNDA:0,_ZNSt8__detail16_Hashtable_allocISaINS_10_Hash_nodeISt4pairIKNSt7__cxx1112basic_stringIcSt11char_traitsIcESaIcEEES8_ELb1EEEEE18_M_deallocate_nodeEPSB_
FN:2052,_ZNSt8__detail16_Hashtable_allocISaINS_10_Hash_nodeISt4pairIKNSt7__cxx1112basic_stringIcSt11char_traitsIcESaIcEEESt10unique_ptrI10MooseArrayIN11MetaPhysicL10DualNumberIdNSC_28SemiDynamicSparseNumberArrayIdmNSC_8NWrapperILm64EEEEELb1EEEESt14default_deleteISJ_EEELb1EEEEE18_M_deallocate_nodeEPSO_
FNDA:0,_ZNSt8__detail16_Hashtable_allocISaINS_10_Hash_nodeISt4pairIKNSt7__cxx1112basic_stringIcSt11char_traitsIcESaIcEEESt10unique_ptrI10MooseArrayIN11MetaPhysicL10DualNumberIdNSC_28SemiDynamicSparseNumberArrayIdmNSC_8NWrapperILm64EEEEELb1EEEESt14default_deleteISJ_EEELb1EEEEE18_M_deallocate_nodeEPSO_
FN:2052,_ZNSt8__detail16_Hashtable_allocISaINS_10_Hash_nodeISt4pairIKNSt7__cxx1112basic_stringIcSt11char_traitsIcESaIcEEESt10unique_ptrI10MooseArrayIdESt14default_deleteISC_EEELb1EEEEE18_M_deallocate_nodeEPSH_
FNDA:0,_ZNSt8__detail16_Hashtable_allocISaINS_10_Hash_nodeISt4pairIKNSt7__cxx1112basic_stringIcSt11char_traitsIcESaIcEEESt10unique_ptrI10MooseArrayIdESt14default_deleteISC_EEELb1EEEEE18_M_deallocate_nodeEPSH_
FN:2052,_ZNSt8__detail16_Hashtable_allocISaINS_10_Hash_nodeISt4pairIKNSt7__cxx1112basic_stringIcSt11char_traitsIcESaIcEEESt6vectorIP19MooseVariableScalarSaISC_EEELb1EEEEE18_M_deallocate_nodeEPSG_
FNDA:0,_ZNSt8__detail16_Hashtable_allocISaINS_10_Hash_nodeISt4pairIKNSt7__cxx1112basic_stringIcSt11char_traitsIcESaIcEEESt6vectorIP19MooseVariableScalarSaISC_EEELb1EEEEE18_M_deallocate_nodeEPSG_
FN:2070,_ZNSt8__detail16_Hashtable_allocISaINS_10_Hash_nodeISt4pairIKmSt6vectorIS4_IS2_IbN11MetaPhysicL10DualNumberIdNS5_28SemiDynamicSparseNumberArrayIdmNS5_8NWrapperILm64EEEEELb1EEEESaISC_EESaISE_EEELb0EEEEE19_M_deallocate_nodesEPSI_
FNDA:0,_ZNSt8__detail16_Hashtable_allocISaINS_10_Hash_nodeISt4pairIKmSt6vectorIS4_IS2_IbN11MetaPhysicL10DualNumberIdNS5_28SemiDynamicSparseNumberArrayIdmNS5_8NWrapperILm64EEEEELb1EEEESaISC_EESaISE_EEELb0EEEEE19_M_deallocate_nodesEPSI_
FN:2070,_ZNSt8__detail16_Hashtable_allocISaINS_10_Hash_nodeISt4pairIKmSt6vectorIS2_IbdESaIS5_EEELb0EEEEE19_M_deallocate_nodesEPS9_
FNDA:0,_ZNSt8__detail16_Hashtable_allocISaINS_10_Hash_nodeISt4pairIKmSt6vectorIS2_IbdESaIS5_EEELb0EEEEE19_M_deallocate_nodesEPS9_
FN:2070,_ZNSt8__detail16_Hashtable_allocISaINS_10_Hash_nodeISt4pairIKmSt6vectorIS4_IS2_IbdESaIS5_EESaIS7_EEELb0EEEEE19_M_deallocate_nodesEPSB_
FNDA:0,_ZNSt8__detail16_Hashtable_allocISaINS_10_Hash_nodeISt4pairIKmSt6vectorIS4_IS2_IbdESaIS5_EESaIS7_EEELb0EEEEE19_M_deallocate_nodesEPSB_
FN:2070,_ZNSt8__detail16_Hashtable_allocISaINS_10_Hash_nodeISt4pairIKmSt6vectorIS2_IbN11MetaPhysicL10DualNumberIdNS5_28SemiDynamicSparseNumberArrayIdmNS5_8NWrapperILm64EEEEELb1EEEESaISC_EEELb0EEEEE19_M_deallocate_nodesEPSG_
FNDA:0,_ZNSt8__detail16_Hashtable_allocISaINS_10_Hash_nodeISt4pairIKmSt6vectorIS2_IbN11MetaPhysicL10DualNumberIdNS5_28SemiDynamicSparseNumberArrayIdmNS5_8NWrapperILm64EEEEELb1EEEESaISC_EEELb0EEEEE19_M_deallocate_nodesEPSG_
FN:2082,_ZNSt8__detail16_Hashtable_allocISaINS_10_Hash_nodeISt4pairIKmSt6vectorIS4_IS2_IbdESaIS5_EESaIS7_EEELb0EEEEE19_M_allocate_bucketsEm
FNDA:0,_ZNSt8__detail16_Hashtable_allocISaINS_10_Hash_nodeISt4pairIKmSt6vectorIS4_IS2_IbdESaIS5_EESaIS7_EEELb0EEEEE19_M_allocate_bucketsEm
FN:2082,_ZNSt8__detail16_Hashtable_allocISaINS_10_Hash_nodeISt4pairIKmSt6vectorIS2_IbN11MetaPhysicL10DualNumberIdNS5_28SemiDynamicSparseNumberArrayIdmNS5_8NWrapperILm64EEEEELb1EEEESaISC_EEELb0EEEEE19_M_allocate_bucketsEm
FNDA:0,_ZNSt8__detail16_Hashtable_allocISaINS_10_Hash_nodeISt4pairIKmSt6vectorIS2_IbN11MetaPhysicL10DualNumberIdNS5_28SemiDynamicSparseNumberArrayIdmNS5_8NWrapperILm64EEEEELb1EEEESaISC_EEELb0EEEEE19_M_allocate_bucketsEm
FN:2082,_ZNSt8__detail16_Hashtable_allocISaINS_10_Hash_nodeISt4pairIKmSt6vectorIS4_IS2_IbN11MetaPhysicL10DualNumberIdNS5_28SemiDynamicSparseNumberArrayIdmNS5_8NWrapperILm64EEEEELb1EEEESaISC_EESaISE_EEELb0EEEEE19_M_allocate_bucketsEm
FNDA:0,_ZNSt8__detail16_Hashtable_allocISaINS_10_Hash_nodeISt4pairIKmSt6vectorIS4_IS2_IbN11MetaPhysicL10DualNumberIdNS5_28SemiDynamicSparseNumberArrayIdmNS5_8NWrapperILm64EEEEELb1EEEESaISC_EESaISE_EEELb0EEEEE19_M_allocate_bucketsEm
FN:2082,_ZNSt8__detail16_Hashtable_allocISaINS_10_Hash_nodeISt4pairIKmSt6vectorIS2_IbdESaIS5_EEELb0EEEEE19_M_allocate_bucketsEm
FNDA:0,_ZNSt8__detail16_Hashtable_allocISaINS_10_Hash_nodeISt4pairIKmSt6vectorIS2_IbdESaIS5_EEELb0EEEEE19_M_allocate_bucketsEm
FNF:26
FNH:0
DA:218,0
DA:270,0
DA:283,0
DA:349,0
DA:355,0
DA:433,0
DA:477,0
DA:485,0
DA:701,0
DA:709,0
DA:710,0
DA:712,0
DA:715,0
DA:716,0
DA:719,0
DA:720,0
DA:721,0
DA:701,0
DA:709,0
DA:710,0
DA:712,0
DA:715,0
DA:716,0
DA:719,0
DA:720,0
DA:721,0
DA:701,0
DA:709,0
DA:710,0
DA:712,0
DA:715,0
DA:716,0
DA:719,0
DA:720,0
DA:721,0
DA:701,0
DA:709,0
DA:710,0
DA:712,0
DA:715,0
DA:716,0
DA:719,0
DA:720,0
DA:721,0
DA:1294,0
DA:1307,0
DA:1805,0
DA:2030,0
DA:2041,0
DA:2030,0
DA:2041,0
DA:2030,0
DA:2041,0
DA:2030,0
DA:2041,0
DA:2052,0
DA:2056,0
DA:2052,0
DA:2056,0
DA:2052,0
DA:2056,0
DA:2052,0
DA:2056,0
DA:2052,0
DA:2056,0
DA:2052,0
DA:2056,0
DA:2052,0
DA:2056,0
DA:2052,0
DA:2056,0
DA:2052,0
DA:2056,0
DA:2052,0
DA:2056,0
DA:2056,231
DA:2064,231
DA:2070,0
DA:2072,0
DA:2078,0
DA:2070,0
DA:2072,0
DA:2078,0
DA:2070,0
DA:2072,0
DA:2078,0
DA:2070,0
DA:2072,0
DA:2078,0
DA:2072,336
DA:2076,0
DA:2082,0
DA:2086,0
DA:2088,0
DA:2089,0
DA:2082,0
DA:2086,0
DA:2088,0
DA:2089,0
DA:2082,0
DA:2086,0
DA:2088,0
DA:2089,0
DA:2082,0
DA:2086,0
DA:2088,0
DA:2089,0
DA:2101,105
LF:108
LH:4
end_of_record
SF:/usr/share/miniconda3/envs/moose/libmesh/include/timpi/message_tag.h
LF:0
LH:0
end_of_record
SF:/home/runner/work/beaver/beaver/moose/framework/build/header_symlinks/MooseMesh.h
LF:0
LH:0
end_of_record
SF:/home/runner/work/beaver/beaver/moose/framework/build/header_symlinks/Material.h
FN:46,_ZNK8Material12getElementIDERKNSt7__cxx1112basic_stringIcSt11char_traitsIcESaIcEEEj
FNDA:0,_ZNK8Material12getElementIDERKNSt7__cxx1112basic_stringIcSt11char_traitsIcESaIcEEEj
FN:56,_ZNK8Material20getElementIDNeighborERKNSt7__cxx1112basic_stringIcSt11char_traitsIcESaIcEEEj
FNDA:0,_ZNK8Material20getElementIDNeighborERKNSt7__cxx1112basic_stringIcSt11char_traitsIcESaIcEEEj
FN:70,_ZNK8Material18getElementIDByNameERKNSt7__cxx1112basic_stringIcSt11char_traitsIcESaIcEEE
FNDA:0,_ZNK8Material18getElementIDByNameERKNSt7__cxx1112basic_stringIcSt11char_traitsIcESaIcEEE
FN:80,_ZNK8Material26getElementIDNeighborByNameERKNSt7__cxx1112basic_stringIcSt11char_traitsIcESaIcEEE
FNDA:0,_ZNK8Material26getElementIDNeighborByNameERKNSt7__cxx1112basic_stringIcSt11char_traitsIcESaIcEEE
FN:200,_ZNK8Material18isBoundaryMaterialEv
FNDA:0,_ZNK8Material18isBoundaryMaterialEv
FN:202,_ZNK8Material22getMatPropDependenciesEv
FNDA:38,_ZNK8Material22getMatPropDependenciesEv
FN:215,_ZNK8Material9ghostableEv
FNDA:0,_ZNK8Material9ghostableEv
FN:221,_ZNK8Material12materialDataEv
FNDA:0,_ZNK8Material12materialDataEv
FN:222,_ZN8Material12materialDataEv
FNDA:14038,_ZN8Material12materialDataEv
FN:224,_ZNK8Material5qRuleEv
FNDA:0,_ZNK8Material5qRuleEv
FN:260,_ZN8Material26getGenericMaterialPropertyIdLb0EEERKN29GenericMaterialPropertyStructIT_XT0_EE4typeERKNSt7__cxx1112basic_stringIcSt11char_traitsIcESaIcEEEj
FNDA:9,_ZN8Material26getGenericMaterialPropertyIdLb0EEERKN29GenericMaterialPropertyStructIT_XT0_EE4typeERKNSt7__cxx1112basic_stringIcSt11char_traitsIcESaIcEEEj
FN:260,_ZN8Material26getGenericMaterialPropertyI18RankTwoTensorTemplIdELb0EEERKN29GenericMaterialPropertyStructIT_XT0_EE4typeERKNSt7__cxx1112basic_stringIcSt11char_traitsIcESaIcEEEj
FNDA:33,_ZN8Material26getGenericMaterialPropertyI18RankTwoTensorTemplIdELb0EEERKN29GenericMaterialPropertyStructIT_XT0_EE4typeERKNSt7__cxx1112basic_stringIcSt11char_traitsIcESaIcEEEj
FN:260,_ZN8Material26getGenericMaterialPropertyI18RankTwoTensorTemplIdELb1EEERKN29GenericMaterialPropertyStructIT_XT0_EE4typeERKNSt7__cxx1112basic_stringIcSt11char_traitsIcESaIcEEEj
FNDA:6,_ZN8Material26getGenericMaterialPropertyI18RankTwoTensorTemplIdELb1EEERKN29GenericMaterialPropertyStructIT_XT0_EE4typeERKNSt7__cxx1112basic_stringIcSt11char_traitsIcESaIcEEEj
FN:260,_ZN8Material26getGenericMaterialPropertyIdLb1EEERKN29GenericMaterialPropertyStructIT_XT0_EE4typeERKNSt7__cxx1112basic_stringIcSt11char_traitsIcESaIcEEEj
FNDA:42,_ZN8Material26getGenericMaterialPropertyIdLb1EEERKN29GenericMaterialPropertyStructIT_XT0_EE4typeERKNSt7__cxx1112basic_stringIcSt11char_traitsIcESaIcEEEj
FN:274,_ZN8Material32getGenericMaterialPropertyByNameIdLb1EEERKN29GenericMaterialPropertyStructIT_XT0_EE4typeERKNSt7__cxx1112basic_stringIcSt11char_traitsIcESaIcEEEj
FNDA:42,_ZN8Material32getGenericMaterialPropertyByNameIdLb1EEERKN29GenericMaterialPropertyStructIT_XT0_EE4typeERKNSt7__cxx1112basic_stringIcSt11char_traitsIcESaIcEEEj
FN:274,_ZN8Material32getGenericMaterialPropertyByNameIdLb0EEERKN29GenericMaterialPropertyStructIT_XT0_EE4typeERKNSt7__cxx1112basic_stringIcSt11char_traitsIcESaIcEEEj
FNDA:9,_ZN8Material32getGenericMaterialPropertyByNameIdLb0EEERKN29GenericMaterialPropertyStructIT_XT0_EE4typeERKNSt7__cxx1112basic_stringIcSt11char_traitsIcESaIcEEEj
FN:274,_ZN8Material32getGenericMaterialPropertyByNameI18RankTwoTensorTemplIdELb0EEERKN29GenericMaterialPropertyStructIT_XT0_EE4typeERKNSt7__cxx1112basic_stringIcSt11char_traitsIcESaIcEEEj
FNDA:33,_ZN8Material32getGenericMaterialPropertyByNameI18RankTwoTensorTemplIdELb0EEERKN29GenericMaterialPropertyStructIT_XT0_EE4typeERKNSt7__cxx1112basic_stringIcSt11char_traitsIcESaIcEEEj
FN:274,_ZN8Material32getGenericMaterialPropertyByNameI18RankTwoTensorTemplIdELb1EEERKN29GenericMaterialPropertyStructIT_XT0_EE4typeERKNSt7__cxx1112basic_stringIcSt11char_traitsIcESaIcEEEj
FNDA:6,_ZN8Material32getGenericMaterialPropertyByNameI18RankTwoTensorTemplIdELb1EEERKN29GenericMaterialPropertyStructIT_XT0_EE4typeERKNSt7__cxx1112basic_stringIcSt11char_traitsIcESaIcEEEj
FNF:18
FNH:10
DA:46,0
DA:49,0
DA:50,0
DA:56,0
DA:59,0
DA:70,0
DA:72,0
DA:73,0
DA:80,0
DA:82,0
DA:106,48
DA:111,42
DA:200,0
DA:202,38
DA:204,38
DA:215,0
DA:221,0
DA:222,14038
DA:224,0
DA:260,42
DA:263,42
DA:266,42
DA:269,42
DA:260,6
DA:263,6
DA:269,6
DA:260,33
DA:263,33
DA:269,33
DA:260,9
DA:263,9
DA:266,9
DA:269,9
DA:274,42
DA:277,42
DA:281,42
DA:284,42
DA:286,42
DA:287,42
DA:291,42
DA:293,42
DA:295,42
DA:274,6
DA:277,6
DA:281,6
DA:284,6
DA:286,6
DA:287,6
DA:291,6
DA:293,6
DA:295,6
DA:274,33
DA:277,33
DA:281,33
DA:284,33
DA:286,33
DA:287,0
DA:291,33
DA:293,33
DA:295,33
DA:274,9
DA:277,9
DA:281,9
DA:284,9
DA:286,9
DA:287,0
DA:291,9
DA:293,9
DA:295,9
LF:69
LH:53
end_of_record
SF:/usr/share/miniconda3/envs/moose/x86_64-conda-linux-gnu/include/c++/10.4.0/bits/hashtable.h
FN:290,_ZNSt10_HashtableImSt4pairIKmSt6vectorIS0_IbN11MetaPhysicL10DualNumberIdNS3_28SemiDynamicSparseNumberArrayIdmNS3_8NWrapperILm64EEEEELb1EEEESaISA_EEESaISD_ENSt8__detail10_Select1stESt8equal_toImESt4hashImENSF_18_Mod_range_hashingENSF_20_Default_ranged_hashENSF_20_Prime_rehash_policyENSF_17_Hashtable_traitsILb0ELb0ELb1EEEE12_Scoped_nodeD2Ev
FNDA:0,_ZNSt10_HashtableImSt4pairIKmSt6vectorIS0_IbN11MetaPhysicL10DualNumberIdNS3_28SemiDynamicSparseNumberArrayIdmNS3_8NWrapperILm64EEEEELb1EEEESaISA_EEESaISD_ENSt8__detail10_Select1stESt8equal_toImESt4hashImENSF_18_Mod_range_hashingENSF_20_Default_ranged_hashENSF_20_Prime_rehash_policyENSF_17_Hashtable_traitsILb0ELb0ELb1EEEE12_Scoped_nodeD2Ev
FN:290,_ZNSt10_HashtableImSt4pairIKmSt6vectorIS2_IS0_IbN11MetaPhysicL10DualNumberIdNS3_28SemiDynamicSparseNumberArrayIdmNS3_8NWrapperILm64EEEEELb1EEEESaISA_EESaISC_EEESaISF_ENSt8__detail10_Select1stESt8equal_toImESt4hashImENSH_18_Mod_range_hashingENSH_20_Default_ranged_hashENSH_20_Prime_rehash_policyENSH_17_Hashtable_traitsILb0ELb0ELb1EEEE12_Scoped_nodeD2Ev
FNDA:0,_ZNSt10_HashtableImSt4pairIKmSt6vectorIS2_IS0_IbN11MetaPhysicL10DualNumberIdNS3_28SemiDynamicSparseNumberArrayIdmNS3_8NWrapperILm64EEEEELb1EEEESaISA_EESaISC_EEESaISF_ENSt8__detail10_Select1stESt8equal_toImESt4hashImENSH_18_Mod_range_hashingENSH_20_Default_ranged_hashENSH_20_Prime_rehash_policyENSH_17_Hashtable_traitsILb0ELb0ELb1EEEE12_Scoped_nodeD2Ev
FN:290,_ZNSt10_HashtableImSt4pairIKmSt6vectorIS0_IbdESaIS3_EEESaIS6_ENSt8__detail10_Select1stESt8equal_toImESt4hashImENS8_18_Mod_range_hashingENS8_20_Default_ranged_hashENS8_20_Prime_rehash_policyENS8_17_Hashtable_traitsILb0ELb0ELb1EEEE12_Scoped_nodeD2Ev
FNDA:0,_ZNSt10_HashtableImSt4pairIKmSt6vectorIS0_IbdESaIS3_EEESaIS6_ENSt8__detail10_Select1stESt8equal_toImESt4hashImENS8_18_Mod_range_hashingENS8_20_Default_ranged_hashENS8_20_Prime_rehash_policyENS8_17_Hashtable_traitsILb0ELb0ELb1EEEE12_Scoped_nodeD2Ev
FN:290,_ZNSt10_HashtableImSt4pairIKmSt6vectorIS2_IS0_IbdESaIS3_EESaIS5_EEESaIS8_ENSt8__detail10_Select1stESt8equal_toImESt4hashImENSA_18_Mod_range_hashingENSA_20_Default_ranged_hashENSA_20_Prime_rehash_policyENSA_17_Hashtable_traitsILb0ELb0ELb1EEEE12_Scoped_nodeD2Ev
FNDA:0,_ZNSt10_HashtableImSt4pairIKmSt6vectorIS2_IS0_IbdESaIS3_EESaIS5_EEESaIS8_ENSt8__detail10_Select1stESt8equal_toImESt4hashImENSA_18_Mod_range_hashingENSA_20_Default_ranged_hashENSA_20_Prime_rehash_policyENSA_17_Hashtable_traitsILb0ELb0ELb1EEEE12_Scoped_nodeD2Ev
FN:425,_ZNSt10_HashtableINSt7__cxx1112basic_stringIcSt11char_traitsIcESaIcEEESt4pairIKS5_St10unique_ptrI10MooseArrayIN5Eigen6MatrixIdLin1ELi1ELi0ELin1ELi1EEEESt14default_deleteISD_EEESaISH_ENSt8__detail10_Select1stESt8equal_toIS5_ESt4hashIS5_ENSJ_18_Mod_range_hashingENSJ_20_Default_ranged_hashENSJ_20_Prime_rehash_policyENSJ_17_Hashtable_traitsILb1ELb0ELb1EEEE21_M_deallocate_bucketsEv
FNDA:0,_ZNSt10_HashtableINSt7__cxx1112basic_stringIcSt11char_traitsIcESaIcEEESt4pairIKS5_St10unique_ptrI10MooseArrayIN5Eigen6MatrixIdLin1ELi1ELi0ELin1ELi1EEEESt14default_deleteISD_EEESaISH_ENSt8__detail10_Select1stESt8equal_toIS5_ESt4hashIS5_ENSJ_18_Mod_range_hashingENSJ_20_Default_ranged_hashENSJ_20_Prime_rehash_policyENSJ_17_Hashtable_traitsILb1ELb0ELb1EEEE21_M_deallocate_bucketsEv
FN:425,_ZNSt10_HashtableINSt7__cxx1112basic_stringIcSt11char_traitsIcESaIcEEESt4pairIKS5_St10unique_ptrI10MooseArrayIN7libMesh11VectorValueIdEEESt14default_deleteISD_EEESaISH_ENSt8__detail10_Select1stESt8equal_toIS5_ESt4hashIS5_ENSJ_18_Mod_range_hashingENSJ_20_Default_ranged_hashENSJ_20_Prime_rehash_policyENSJ_17_Hashtable_traitsILb1ELb0ELb1EEEE21_M_deallocate_bucketsEv
FNDA:0,_ZNSt10_HashtableINSt7__cxx1112basic_stringIcSt11char_traitsIcESaIcEEESt4pairIKS5_St10unique_ptrI10MooseArrayIN7libMesh11VectorValueIdEEESt14default_deleteISD_EEESaISH_ENSt8__detail10_Select1stESt8equal_toIS5_ESt4hashIS5_ENSJ_18_Mod_range_hashingENSJ_20_Default_ranged_hashENSJ_20_Prime_rehash_policyENSJ_17_Hashtable_traitsILb1ELb0ELb1EEEE21_M_deallocate_bucketsEv
FN:425,_ZNSt10_HashtableINSt7__cxx1112basic_stringIcSt11char_traitsIcESaIcEEESt4pairIKS5_St10unique_ptrI10MooseArrayIN7libMesh11VectorValueIN11MetaPhysicL10DualNumberIdNSC_28SemiDynamicSparseNumberArrayIdmNSC_8NWrapperILm64EEEEELb1EEEEEESt14default_deleteISK_EEESaISO_ENSt8__detail10_Select1stESt8equal_toIS5_ESt4hashIS5_ENSQ_18_Mod_range_hashingENSQ_20_Default_ranged_hashENSQ_20_Prime_rehash_policyENSQ_17_Hashtable_traitsILb1ELb0ELb1EEEE21_M_deallocate_bucketsEv
FNDA:0,_ZNSt10_HashtableINSt7__cxx1112basic_stringIcSt11char_traitsIcESaIcEEESt4pairIKS5_St10unique_ptrI10MooseArrayIN7libMesh11VectorValueIN11MetaPhysicL10DualNumberIdNSC_28SemiDynamicSparseNumberArrayIdmNSC_8NWrapperILm64EEEEELb1EEEEEESt14default_deleteISK_EEESaISO_ENSt8__detail10_Select1stESt8equal_toIS5_ESt4hashIS5_ENSQ_18_Mod_range_hashingENSQ_20_Default_ranged_hashENSQ_20_Prime_rehash_policyENSQ_17_Hashtable_traitsILb1ELb0ELb1EEEE21_M_deallocate_bucketsEv
FN:425,_ZNSt10_HashtableINSt7__cxx1112basic_stringIcSt11char_traitsIcESaIcEEESt4pairIKS5_St6vectorIjSaIjEEESaISB_ENSt8__detail10_Select1stESt8equal_toIS5_ESt4hashIS5_ENSD_18_Mod_range_hashingENSD_20_Default_ranged_hashENSD_20_Prime_rehash_policyENSD_17_Hashtable_traitsILb1ELb0ELb1EEEE21_M_deallocate_bucketsEv
FNDA:0,_ZNSt10_HashtableINSt7__cxx1112basic_stringIcSt11char_traitsIcESaIcEEESt4pairIKS5_St6vectorIjSaIjEEESaISB_ENSt8__detail10_Select1stESt8equal_toIS5_ESt4hashIS5_ENSD_18_Mod_range_hashingENSD_20_Default_ranged_hashENSD_20_Prime_rehash_policyENSD_17_Hashtable_traitsILb1ELb0ELb1EEEE21_M_deallocate_bucketsEv
FN:425,_ZNSt10_HashtableINSt7__cxx1112basic_stringIcSt11char_traitsIcESaIcEEESt4pairIKS5_St6vectorISt10unique_ptrI10MooseArrayIdESt14default_deleteISB_EESaISE_EEESaISH_ENSt8__detail10_Select1stESt8equal_toIS5_ESt4hashIS5_ENSJ_18_Mod_range_hashingENSJ_20_Default_ranged_hashENSJ_20_Prime_rehash_policyENSJ_17_Hashtable_traitsILb1ELb0ELb1EEEE21_M_deallocate_bucketsEv
FNDA:0,_ZNSt10_HashtableINSt7__cxx1112basic_stringIcSt11char_traitsIcESaIcEEESt4pairIKS5_St6vectorISt10unique_ptrI10MooseArrayIdESt14default_deleteISB_EESaISE_EEESaISH_ENSt8__detail10_Select1stESt8equal_toIS5_ESt4hashIS5_ENSJ_18_Mod_range_hashingENSJ_20_Default_ranged_hashENSJ_20_Prime_rehash_policyENSJ_17_Hashtable_traitsILb1ELb0ELb1EEEE21_M_deallocate_bucketsEv
FN:425,_ZNSt10_HashtableImSt4pairIKmSt6vectorIS0_IbdESaIS3_EEESaIS6_ENSt8__detail10_Select1stESt8equal_toImESt4hashImENS8_18_Mod_range_hashingENS8_20_Default_ranged_hashENS8_20_Prime_rehash_policyENS8_17_Hashtable_traitsILb0ELb0ELb1EEEE21_M_deallocate_bucketsEv
FNDA:0,_ZNSt10_HashtableImSt4pairIKmSt6vectorIS0_IbdESaIS3_EEESaIS6_ENSt8__detail10_Select1stESt8equal_toImESt4hashImENS8_18_Mod_range_hashingENS8_20_Default_ranged_hashENS8_20_Prime_rehash_policyENS8_17_Hashtable_traitsILb0ELb0ELb1EEEE21_M_deallocate_bucketsEv
FN:425,_ZNSt10_HashtableImSt4pairIKmSt6vectorIS2_IS0_IbdESaIS3_EESaIS5_EEESaIS8_ENSt8__detail10_Select1stESt8equal_toImESt4hashImENSA_18_Mod_range_hashingENSA_20_Default_ranged_hashENSA_20_Prime_rehash_policyENSA_17_Hashtable_traitsILb0ELb0ELb1EEEE21_M_deallocate_bucketsEv
FNDA:0,_ZNSt10_HashtableImSt4pairIKmSt6vectorIS2_IS0_IbdESaIS3_EESaIS5_EEESaIS8_ENSt8__detail10_Select1stESt8equal_toImESt4hashImENSA_18_Mod_range_hashingENSA_20_Default_ranged_hashENSA_20_Prime_rehash_policyENSA_17_Hashtable_traitsILb0ELb0ELb1EEEE21_M_deallocate_bucketsEv
FN:425,_ZNSt10_HashtableIjSt4pairIKjjESaIS2_ENSt8__detail10_Select1stESt8equal_toIjESt4hashIjENS4_18_Mod_range_hashingENS4_20_Default_ranged_hashENS4_20_Prime_rehash_policyENS4_17_Hashtable_traitsILb0ELb0ELb1EEEE21_M_deallocate_bucketsEv
FNDA:105,_ZNSt10_HashtableIjSt4pairIKjjESaIS2_ENSt8__detail10_Select1stESt8equal_toIjESt4hashIjENS4_18_Mod_range_hashingENS4_20_Default_ranged_hashENS4_20_Prime_rehash_policyENS4_17_Hashtable_traitsILb0ELb0ELb1EEEE21_M_deallocate_bucketsEv
FN:425,_ZNSt10_HashtableImSt4pairIKmSt6vectorIS0_IbN11MetaPhysicL10DualNumberIdNS3_28SemiDynamicSparseNumberArrayIdmNS3_8NWrapperILm64EEEEELb1EEEESaISA_EEESaISD_ENSt8__detail10_Select1stESt8equal_toImESt4hashImENSF_18_Mod_range_hashingENSF_20_Default_ranged_hashENSF_20_Prime_rehash_policyENSF_17_Hashtable_traitsILb0ELb0ELb1EEEE21_M_deallocate_bucketsEv
FNDA:0,_ZNSt10_HashtableImSt4pairIKmSt6vectorIS0_IbN11MetaPhysicL10DualNumberIdNS3_28SemiDynamicSparseNumberArrayIdmNS3_8NWrapperILm64EEEEELb1EEEESaISA_EEESaISD_ENSt8__detail10_Select1stESt8equal_toImESt4hashImENSF_18_Mod_range_hashingENSF_20_Default_ranged_hashENSF_20_Prime_rehash_policyENSF_17_Hashtable_traitsILb0ELb0ELb1EEEE21_M_deallocate_bucketsEv
FN:425,_ZNSt10_HashtableImSt4pairIKmSt6vectorIS2_IS0_IbN11MetaPhysicL10DualNumberIdNS3_28SemiDynamicSparseNumberArrayIdmNS3_8NWrapperILm64EEEEELb1EEEESaISA_EESaISC_EEESaISF_ENSt8__detail10_Select1stESt8equal_toImESt4hashImENSH_18_Mod_range_hashingENSH_20_Default_ranged_hashENSH_20_Prime_rehash_policyENSH_17_Hashtable_traitsILb0ELb0ELb1EEEE21_M_deallocate_bucketsEv
FNDA:0,_ZNSt10_HashtableImSt4pairIKmSt6vectorIS2_IS0_IbN11MetaPhysicL10DualNumberIdNS3_28SemiDynamicSparseNumberArrayIdmNS3_8NWrapperILm64EEEEELb1EEEESaISA_EESaISC_EEESaISF_ENSt8__detail10_Select1stESt8equal_toImESt4hashImENSH_18_Mod_range_hashingENSH_20_Default_ranged_hashENSH_20_Prime_rehash_policyENSH_17_Hashtable_traitsILb0ELb0ELb1EEEE21_M_deallocate_bucketsEv
FN:425,_ZNSt10_HashtableINSt7__cxx1112basic_stringIcSt11char_traitsIcESaIcEEESt4pairIKS5_St6vectorIP22MooseVariableFieldBaseSaISA_EEESaISD_ENSt8__detail10_Select1stESt8equal_toIS5_ESt4hashIS5_ENSF_18_Mod_range_hashingENSF_20_Default_ranged_hashENSF_20_Prime_rehash_policyENSF_17_Hashtable_traitsILb1ELb0ELb1EEEE21_M_deallocate_bucketsEv
FNDA:0,_ZNSt10_HashtableINSt7__cxx1112basic_stringIcSt11char_traitsIcESaIcEEESt4pairIKS5_St6vectorIP22MooseVariableFieldBaseSaISA_EEESaISD_ENSt8__detail10_Select1stESt8equal_toIS5_ESt4hashIS5_ENSF_18_Mod_range_hashingENSF_20_Default_ranged_hashENSF_20_Prime_rehash_policyENSF_17_Hashtable_traitsILb1ELb0ELb1EEEE21_M_deallocate_bucketsEv
FN:425,_ZNSt10_HashtableINSt7__cxx1112basic_stringIcSt11char_traitsIcESaIcEEESt4pairIKS5_S5_ESaIS8_ENSt8__detail10_Select1stESt8equal_toIS5_ESt4hashIS5_ENSA_18_Mod_range_hashingENSA_20_Default_ranged_hashENSA_20_Prime_rehash_policyENSA_17_Hashtable_traitsILb1ELb0ELb1EEEE21_M_deallocate_bucketsEv
FNDA:0,_ZNSt10_HashtableINSt7__cxx1112basic_stringIcSt11char_traitsIcESaIcEEESt4pairIKS5_S5_ESaIS8_ENSt8__detail10_Select1stESt8equal_toIS5_ESt4hashIS5_ENSA_18_Mod_range_hashingENSA_20_Default_ranged_hashENSA_20_Prime_rehash_policyENSA_17_Hashtable_traitsILb1ELb0ELb1EEEE21_M_deallocate_bucketsEv
FN:425,_ZNSt10_HashtableINSt7__cxx1112basic_stringIcSt11char_traitsIcESaIcEEESt4pairIKS5_St10unique_ptrI10MooseArrayIdESt14default_deleteISA_EEESaISE_ENSt8__detail10_Select1stESt8equal_toIS5_ESt4hashIS5_ENSG_18_Mod_range_hashingENSG_20_Default_ranged_hashENSG_20_Prime_rehash_policyENSG_17_Hashtable_traitsILb1ELb0ELb1EEEE21_M_deallocate_bucketsEv
FNDA:0,_ZNSt10_HashtableINSt7__cxx1112basic_stringIcSt11char_traitsIcESaIcEEESt4pairIKS5_St10unique_ptrI10MooseArrayIdESt14default_deleteISA_EEESaISE_ENSt8__detail10_Select1stESt8equal_toIS5_ESt4hashIS5_ENSG_18_Mod_range_hashingENSG_20_Default_ranged_hashENSG_20_Prime_rehash_policyENSG_17_Hashtable_traitsILb1ELb0ELb1EEEE21_M_deallocate_bucketsEv
FN:425,_ZNSt10_HashtableINSt7__cxx1112basic_stringIcSt11char_traitsIcESaIcEEESt4pairIKS5_St6vectorIP19MooseVariableScalarSaISA_EEESaISD_ENSt8__detail10_Select1stESt8equal_toIS5_ESt4hashIS5_ENSF_18_Mod_range_hashingENSF_20_Default_ranged_hashENSF_20_Prime_rehash_policyENSF_17_Hashtable_traitsILb1ELb0ELb1EEEE21_M_deallocate_bucketsEv
FNDA:0,_ZNSt10_HashtableINSt7__cxx1112basic_stringIcSt11char_traitsIcESaIcEEESt4pairIKS5_St6vectorIP19MooseVariableScalarSaISA_EEESaISD_ENSt8__detail10_Select1stESt8equal_toIS5_ESt4hashIS5_ENSF_18_Mod_range_hashingENSF_20_Default_ranged_hashENSF_20_Prime_rehash_policyENSF_17_Hashtable_traitsILb1ELb0ELb1EEEE21_M_deallocate_bucketsEv
FN:425,_ZNSt10_HashtableINSt7__cxx1112basic_stringIcSt11char_traitsIcESaIcEEESt4pairIKS5_St10unique_ptrI10MooseArrayIN11MetaPhysicL10DualNumberIdNSA_28SemiDynamicSparseNumberArrayIdmNSA_8NWrapperILm64EEEEELb1EEEESt14default_deleteISH_EEESaISL_ENSt8__detail10_Select1stESt8equal_toIS5_ESt4hashIS5_ENSN_18_Mod_range_hashingENSN_20_Default_ranged_hashENSN_20_Prime_rehash_policyENSN_17_Hashtable_traitsILb1ELb0ELb1EEEE21_M_deallocate_bucketsEv
FNDA:0,_ZNSt10_HashtableINSt7__cxx1112basic_stringIcSt11char_traitsIcESaIcEEESt4pairIKS5_St10unique_ptrI10MooseArrayIN11MetaPhysicL10DualNumberIdNSA_28SemiDynamicSparseNumberArrayIdmNSA_8NWrapperILm64EEEEELb1EEEESt14default_deleteISH_EEESaISL_ENSt8__detail10_Select1stESt8equal_toIS5_ESt4hashIS5_ENSN_18_Mod_range_hashingENSN_20_Default_ranged_hashENSN_20_Prime_rehash_policyENSN_17_Hashtable_traitsILb1ELb0ELb1EEEE21_M_deallocate_bucketsEv
FN:1622,_ZNKSt10_HashtableImSt4pairIKmSt6vectorIS0_IbN11MetaPhysicL10DualNumberIdNS3_28SemiDynamicSparseNumberArrayIdmNS3_8NWrapperILm64EEEEELb1EEEESaISA_EEESaISD_ENSt8__detail10_Select1stESt8equal_toImESt4hashImENSF_18_Mod_range_hashingENSF_20_Default_ranged_hashENSF_20_Prime_rehash_policyENSF_17_Hashtable_traitsILb0ELb0ELb1EEEE19_M_find_before_nodeEmRS1_m
FNDA:0,_ZNKSt10_HashtableImSt4pairIKmSt6vectorIS0_IbN11MetaPhysicL10DualNumberIdNS3_28SemiDynamicSparseNumberArrayIdmNS3_8NWrapperILm64EEEEELb1EEEESaISA_EEESaISD_ENSt8__detail10_Select1stESt8equal_toImESt4hashImENSF_18_Mod_range_hashingENSF_20_Default_ranged_hashENSF_20_Prime_rehash_policyENSF_17_Hashtable_traitsILb0ELb0ELb1EEEE19_M_find_before_nodeEmRS1_m
FN:1622,_ZNKSt10_HashtableImSt4pairIKmSt6vectorIS2_IS0_IbdESaIS3_EESaIS5_EEESaIS8_ENSt8__detail10_Select1stESt8equal_toImESt4hashImENSA_18_Mod_range_hashingENSA_20_Default_ranged_hashENSA_20_Prime_rehash_policyENSA_17_Hashtable_traitsILb0ELb0ELb1EEEE19_M_find_before_nodeEmRS1_m
FNDA:0,_ZNKSt10_HashtableImSt4pairIKmSt6vectorIS2_IS0_IbdESaIS3_EESaIS5_EEESaIS8_ENSt8__detail10_Select1stESt8equal_toImESt4hashImENSA_18_Mod_range_hashingENSA_20_Default_ranged_hashENSA_20_Prime_rehash_policyENSA_17_Hashtable_traitsILb0ELb0ELb1EEEE19_M_find_before_nodeEmRS1_m
FN:1622,_ZNKSt10_HashtableImSt4pairIKmSt6vectorIS0_IbdESaIS3_EEESaIS6_ENSt8__detail10_Select1stESt8equal_toImESt4hashImENS8_18_Mod_range_hashingENS8_20_Default_ranged_hashENS8_20_Prime_rehash_policyENS8_17_Hashtable_traitsILb0ELb0ELb1EEEE19_M_find_before_nodeEmRS1_m
FNDA:0,_ZNKSt10_HashtableImSt4pairIKmSt6vectorIS0_IbdESaIS3_EEESaIS6_ENSt8__detail10_Select1stESt8equal_toImESt4hashImENS8_18_Mod_range_hashingENS8_20_Default_ranged_hashENS8_20_Prime_rehash_policyENS8_17_Hashtable_traitsILb0ELb0ELb1EEEE19_M_find_before_nodeEmRS1_m
